TN:
SF:/mnt/c/Users/waviot-research/Documents/software/ManholeModem/waviot-water7/tests/catch.hpp
FN:471,_ZN5Catch11NonCopyableC2Ev
FN:471,_ZN5Catch11NonCopyableD2Ev
FN:471,_ZN5Catch11NonCopyableD0Ev
FN:485,_ZN5Catch14SourceLineInfoC2EPKcm
FN:552,_ZN5Catch12ITestInvokerC2Ev
FN:552,_ZN5Catch12ITestInvokerD2Ev
FN:552,_ZN5Catch12ITestInvokerD0Ev
FN:560,_ZN5Catch17ITestCaseRegistryD2Ev
FN:560,_ZN5Catch17ITestCaseRegistryC2Ev
FN:560,_ZN5Catch17ITestCaseRegistryD0Ev
FN:598,_ZN5Catch9StringRefC2Ev
FN:602,_ZN5Catch9StringRefC2EPKcm
FN:607,_ZN5Catch9StringRefC2ERKNSt7__cxx1112basic_stringIcSt11char_traitsIcESaIcEEE
FN:612,_ZNK5Catch9StringRefcvNSt7__cxx1112basic_stringIcSt11char_traitsIcESaIcEEEEv
FN:622,_ZNK5Catch9StringRefixEm
FN:628,_ZNK5Catch9StringRef5emptyEv
FN:631,_ZNK5Catch9StringRef4sizeEv
FN:648,_ZNK5Catch9StringRef16isNullTerminatedEv
FN:653,_ZNK5Catch9StringRef5beginEv
FN:654,_ZNK5Catch9StringRef3endEv
FN:660,_ZN5Catchli3_srEPKcm
FN:966,_ZN5Catch7AutoRegD2Ev
FN:966,_ZN5Catch7AutoRegD0Ev
FN:1368,_ZN5Catch11isFalseTestEi
FN:1413,_ZN5Catch7IStreamC2Ev
FN:1413,_ZN5Catch7IStreamD2Ev
FN:1413,_ZN5Catch7IStreamD0Ev
FN:1430,_ZN5Catch20ReusableStringStreamlsIA60_cEERS0_RKT_
FN:1430,_ZN5Catch20ReusableStringStreamlsIA2_cEERS0_RKT_
FN:1430,_ZN5Catch20ReusableStringStreamlsIA7_cEERS0_RKT_
FN:1430,_ZN5Catch20ReusableStringStreamlsINSt7__cxx1112basic_stringIcSt11char_traitsIcESaIcEEEEERS0_RKT_
FN:1430,_ZN5Catch20ReusableStringStreamlsISt5_SetwEERS0_RKT_
FN:1430,_ZN5Catch20ReusableStringStreamlsIA1_cEERS0_RKT_
FN:1430,_ZN5Catch20ReusableStringStreamlsIA32_cEERS0_RKT_
FN:1430,_ZN5Catch20ReusableStringStreamlsIA18_cEERS0_RKT_
FN:1430,_ZN5Catch20ReusableStringStreamlsIA40_cEERS0_RKT_
FN:1430,_ZN5Catch20ReusableStringStreamlsINS_14LazyExpressionEEERS0_RKT_
FN:1430,_ZN5Catch20ReusableStringStreamlsIA17_cEERS0_RKT_
FN:1430,_ZN5Catch20ReusableStringStreamlsIA5_cEERS0_RKT_
FN:1430,_ZN5Catch20ReusableStringStreamlsIyEERS0_RKT_
FN:1430,_ZN5Catch20ReusableStringStreamlsIA57_cEERS0_RKT_
FN:1430,_ZN5Catch20ReusableStringStreamlsIA12_cEERS0_RKT_
FN:1430,_ZN5Catch20ReusableStringStreamlsINS_5clara8TextFlow6ColumnEEERS0_RKT_
FN:1430,_ZN5Catch20ReusableStringStreamlsIA22_cEERS0_RKT_
FN:1430,_ZN5Catch20ReusableStringStreamlsIA9_cEERS0_RKT_
FN:1430,_ZN5Catch20ReusableStringStreamlsISt13_SetprecisionEERS0_RKT_
FN:1430,_ZN5Catch20ReusableStringStreamlsIA8_cEERS0_RKT_
FN:1430,_ZN5Catch20ReusableStringStreamlsIA27_cEERS0_RKT_
FN:1430,_ZN5Catch20ReusableStringStreamlsIA16_cEERS0_RKT_
FN:1430,_ZN5Catch20ReusableStringStreamlsIA26_cEERS0_RKT_
FN:1430,_ZN5Catch20ReusableStringStreamlsIA44_cEERS0_RKT_
FN:1430,_ZN5Catch20ReusableStringStreamlsIxEERS0_RKT_
FN:1430,_ZN5Catch20ReusableStringStreamlsINS_9StringRefEEERS0_RKT_
FN:1430,_ZN5Catch20ReusableStringStreamlsIA19_cEERS0_RKT_
FN:1430,_ZN5Catch20ReusableStringStreamlsISt8_SetfillIcEEERS0_RKT_
FN:1430,_ZN5Catch20ReusableStringStreamlsIFRSt8ios_baseS3_EEERS0_RKT_
FN:1430,_ZN5Catch20ReusableStringStreamlsIA21_cEERS0_RKT_
FN:1430,_ZN5Catch20ReusableStringStreamlsINS_14SourceLineInfoEEERS0_RKT_
FN:1430,_ZN5Catch20ReusableStringStreamlsIA47_cEERS0_RKT_
FN:1430,_ZN5Catch20ReusableStringStreamlsIA59_cEERS0_RKT_
FN:1430,_ZN5Catch20ReusableStringStreamlsIA25_cEERS0_RKT_
FN:1430,_ZN5Catch20ReusableStringStreamlsIA20_cEERS0_RKT_
FN:1430,_ZN5Catch20ReusableStringStreamlsINS_16TestCaseTracking11TrackerBase10CycleStateEEERS0_RKT_
FN:1430,_ZN5Catch20ReusableStringStreamlsIfEERS0_RKT_
FN:1430,_ZN5Catch20ReusableStringStreamlsIjEERS0_RKT_
FN:1430,_ZN5Catch20ReusableStringStreamlsIA15_cEERS0_RKT_
FN:1430,_ZN5Catch20ReusableStringStreamlsIA36_cEERS0_RKT_
FN:1430,_ZN5Catch20ReusableStringStreamlsIA53_cEERS0_RKT_
FN:1430,_ZN5Catch20ReusableStringStreamlsImEERS0_RKT_
FN:1430,_ZN5Catch20ReusableStringStreamlsIcEERS0_RKT_
FN:1430,_ZN5Catch20ReusableStringStreamlsIdEERS0_RKT_
FN:1430,_ZN5Catch20ReusableStringStreamlsIA4_cEERS0_RKT_
FN:1430,_ZN5Catch20ReusableStringStreamlsIA13_cEERS0_RKT_
FN:1430,_ZN5Catch20ReusableStringStreamlsIA3_cEERS0_RKT_
FN:1430,_ZN5Catch20ReusableStringStreamlsIA23_cEERS0_RKT_
FN:1430,_ZN5Catch20ReusableStringStreamlsIA37_cEERS0_RKT_
FN:1430,_ZN5Catch20ReusableStringStreamlsIA66_cEERS0_RKT_
FN:1430,_ZN5Catch20ReusableStringStreamlsIPKcEERS0_RKT_
FN:1434,_ZN5Catch20ReusableStringStream3getEv
FN:1446,_ZN5Catch6Detail8EnumInfoC2Ev
FN:1456,_ZN5Catch26IMutableEnumValuesRegistryC2Ev
FN:1599,_ZN5Catch11StringMakerINS_14SourceLineInfoEvE7convertIS1_EENSt9enable_ifIXsrNS_6Detail18IsStreamInsertableIT_EE5valueENSt7__cxx1112basic_stringIcSt11char_traitsIcESaIcEEEE4typeERKS7_
FN:1624,_ZN5Catch6Detail9stringifyIaEENSt7__cxx1112basic_stringIcSt11char_traitsIcESaIcEEERKT_
FN:1624,_ZN5Catch6Detail9stringifyINSt7__cxx1112basic_stringIwSt11char_traitsIwESaIwEEEEENS3_IcS4_IcESaIcEEERKT_
FN:1624,_ZN5Catch6Detail9stringifyIxEENSt7__cxx1112basic_stringIcSt11char_traitsIcESaIcEEERKT_
FN:1624,_ZN5Catch6Detail9stringifyINS_14SourceLineInfoEEENSt7__cxx1112basic_stringIcSt11char_traitsIcESaIcEEERKT_
FN:1624,_ZN5Catch6Detail9stringifyIdEENSt7__cxx1112basic_stringIcSt11char_traitsIcESaIcEEERKT_
FN:1624,_ZN5Catch6Detail9stringifyIcEENSt7__cxx1112basic_stringIcSt11char_traitsIcESaIcEEERKT_
FN:1624,_ZN5Catch6Detail9stringifyIyEENSt7__cxx1112basic_stringIcSt11char_traitsIcESaIcEEERKT_
FN:1624,_ZN5Catch6Detail9stringifyINSt7__cxx1112basic_stringIcSt11char_traitsIcESaIcEEEEES7_RKT_
FN:1624,_ZN5Catch6Detail9stringifyIjEENSt7__cxx1112basic_stringIcSt11char_traitsIcESaIcEEERKT_
FN:2175,_ZN5Catch20ITransientExpressionD0Ev
FN:2175,_ZN5Catch20ITransientExpressionD2Ev
FN:2176,_ZNK5Catch20ITransientExpression18isBinaryExpressionEv
FN:2177,_ZNK5Catch20ITransientExpression9getResultEv
FN:2180,_ZN5Catch20ITransientExpressionC2Ebb
FN:2419,_ZN5Catch14IResultCaptureC2Ev
FN:2419,_ZN5Catch14IResultCaptureD2Ev
FN:2419,_ZN5Catch14IResultCaptureD0Ev
FN:2504,_ZN5Catch17AssertionReactionC2Ev
FN:2560,_ZN5Catch11MessageInfoD2Ev
FN:2560,_ZN5Catch11MessageInfoC2ERKS0_
FN:2560,_ZN5Catch11MessageInfoC2EOS0_
FN:2560,_ZN5Catch11MessageInfoaSEOS0_
FN:2577,_ZN5Catch13MessageStreamC2Ev
FN:2577,_ZN5Catch13MessageStreamD2Ev
FN:2588,_ZN5Catch14MessageBuilderD2Ev
FN:2594,_ZN5Catch14MessageBuilderlsINSt7__cxx1112basic_stringIcSt11char_traitsIcESaIcEEEEERS0_RKT_
FN:2790,_ZN5Catch6CountsC2Ev
FN:2803,_ZN5Catch6TotalsC2Ev
FN:2821,_ZN5Catch11SectionInfoC2ERKS0_
FN:2821,_ZN5Catch11SectionInfoaSERKS0_
FN:2821,_ZN5Catch11SectionInfoD2Ev
FN:2821,_ZN5Catch11SectionInfoC2EOS0_
FN:2837,_ZN5Catch14SectionEndInfoD2Ev
FN:2837,_ZN5Catch14SectionEndInfoC2ERKS0_
FN:2837,_ZN5Catch14SectionEndInfoC2EOS0_
FN:2855,_ZN5Catch5TimerC2Ev
FN:2926,_ZN5Catch12IRegistryHubC2Ev
FN:2926,_ZN5Catch12IRegistryHubD2Ev
FN:2926,_ZN5Catch12IRegistryHubD0Ev
FN:2937,_ZN5Catch19IMutableRegistryHubC2Ev
FN:2937,_ZN5Catch19IMutableRegistryHubD2Ev
FN:2937,_ZN5Catch19IMutableRegistryHubD0Ev
FN:2971,_ZN5Catch20IExceptionTranslatorD2Ev
FN:2971,_ZN5Catch20IExceptionTranslatorD0Ev
FN:2976,_ZN5Catch28IExceptionTranslatorRegistryD2Ev
FN:2976,_ZN5Catch28IExceptionTranslatorRegistryD0Ev
FN:2976,_ZN5Catch28IExceptionTranslatorRegistryC2Ev
FN:3062,_ZN5Catch6Detail6ApproxC2IivEERKT_
FN:3062,_ZN5Catch6Detail6ApproxC2IevEERKT_
FN:3062,_ZN5Catch6Detail6ApproxC2IyvEERKT_
FN:3173,_ZN5Catch9pluraliseD2Ev
FN:3200,_ZN5Catch8Matchers4Impl18MatcherUntypedBaseD0Ev
FN:3200,_ZN5Catch8Matchers4Impl18MatcherUntypedBaseD2Ev
FN:3202,_ZN5Catch8Matchers4Impl18MatcherUntypedBaseC2Ev
FN:3219,_ZN5Catch8Matchers4Impl13MatcherMethodINSt7__cxx1112basic_stringIcSt11char_traitsIcESaIcEEEEC2Ev
FN:3219,_ZN5Catch8Matchers4Impl13MatcherMethodISt9exceptionEC2Ev
FN:3219,_ZN5Catch8Matchers4Impl13MatcherMethodIdEC2Ev
FN:3237,_ZN5Catch8Matchers4Impl11MatcherBaseIdED2Ev
FN:3237,_ZN5Catch8Matchers4Impl11MatcherBaseINSt7__cxx1112basic_stringIcSt11char_traitsIcESaIcEEEEC2Ev
FN:3237,_ZN5Catch8Matchers4Impl11MatcherBaseISt9exceptionED2Ev
FN:3237,_ZN5Catch8Matchers4Impl11MatcherBaseINSt7__cxx1112basic_stringIcSt11char_traitsIcESaIcEEEED2Ev
FN:3237,_ZN5Catch8Matchers4Impl11MatcherBaseIdEC2Ev
FN:3237,_ZN5Catch8Matchers4Impl11MatcherBaseISt9exceptionED0Ev
FN:3237,_ZN5Catch8Matchers4Impl11MatcherBaseIdED0Ev
FN:3237,_ZN5Catch8Matchers4Impl11MatcherBaseINSt7__cxx1112basic_stringIcSt11char_traitsIcESaIcEEEED0Ev
FN:3237,_ZN5Catch8Matchers4Impl11MatcherBaseISt9exceptionEC2Ev
FN:3354,_ZN5Catch8Matchers9Exception23ExceptionMessageMatcherD0Ev
FN:3354,_ZN5Catch8Matchers9Exception23ExceptionMessageMatcherD2Ev
FN:3358,_ZN5Catch8Matchers9Exception23ExceptionMessageMatcherC2ERKNSt7__cxx1112basic_stringIcSt11char_traitsIcESaIcEEE
FN:3384,_ZN5Catch8Matchers8Floating16WithinAbsMatcherD0Ev
FN:3384,_ZN5Catch8Matchers8Floating16WithinAbsMatcherD2Ev
FN:3393,_ZN5Catch8Matchers8Floating17WithinUlpsMatcherD2Ev
FN:3393,_ZN5Catch8Matchers8Floating17WithinUlpsMatcherD0Ev
FN:3409,_ZN5Catch8Matchers8Floating16WithinRelMatcherD0Ev
FN:3409,_ZN5Catch8Matchers8Floating16WithinRelMatcherD2Ev
FN:3493,_ZN5Catch8Matchers9StdString11CasedStringD2Ev
FN:3493,_ZN5Catch8Matchers9StdString11CasedStringC2ERKS2_
FN:3503,_ZN5Catch8Matchers9StdString17StringMatcherBaseD2Ev
FN:3503,_ZN5Catch8Matchers9StdString17StringMatcherBaseD0Ev
FN:3511,_ZN5Catch8Matchers9StdString13EqualsMatcherD2Ev
FN:3511,_ZN5Catch8Matchers9StdString13EqualsMatcherD0Ev
FN:3515,_ZN5Catch8Matchers9StdString15ContainsMatcherD2Ev
FN:3515,_ZN5Catch8Matchers9StdString15ContainsMatcherD0Ev
FN:3519,_ZN5Catch8Matchers9StdString17StartsWithMatcherD2Ev
FN:3519,_ZN5Catch8Matchers9StdString17StartsWithMatcherD0Ev
FN:3523,_ZN5Catch8Matchers9StdString15EndsWithMatcherD2Ev
FN:3523,_ZN5Catch8Matchers9StdString15EndsWithMatcherD0Ev
FN:3528,_ZN5Catch8Matchers9StdString12RegexMatcherD0Ev
FN:3528,_ZN5Catch8Matchers9StdString12RegexMatcherD2Ev
FN:3727,_ZN5Catch9MatchExprINSt7__cxx1112basic_stringIcSt11char_traitsIcESaIcEEERKNS_8Matchers4Impl11MatcherBaseIS6_EEED2Ev
FN:3727,_ZN5Catch9MatchExprINSt7__cxx1112basic_stringIcSt11char_traitsIcESaIcEEERKNS_8Matchers4Impl11MatcherBaseIS6_EEED0Ev
FN:3732,_ZN5Catch9MatchExprINSt7__cxx1112basic_stringIcSt11char_traitsIcESaIcEEERKNS_8Matchers4Impl11MatcherBaseIS6_EEEC2ERKS6_SC_RKNS_9StringRefE
FN:3739,_ZNK5Catch9MatchExprINSt7__cxx1112basic_stringIcSt11char_traitsIcESaIcEEERKNS_8Matchers4Impl11MatcherBaseIS6_EEE29streamReconstructedExpressionERSo
FN:3816,_ZN5Catch17IGeneratorTrackerC2Ev
FN:3834,_ZN5Catch15throw_exceptionISt12domain_errorEEvRKT_
FN:3834,_ZN5Catch15throw_exceptionISt11logic_errorEEvRKT_
FN:3834,_ZN5Catch15throw_exceptionISt13runtime_errorEEvRKT_
FN:3876,_ZN5Catch18GeneratorExceptionD2Ev
FN:3876,_ZN5Catch18GeneratorExceptionD0Ev
FN:4304,_ZN5Catch8IContextD0Ev
FN:4304,_ZN5Catch8IContextC2Ev
FN:4304,_ZN5Catch8IContextD2Ev
FN:4313,_ZN5Catch15IMutableContextC2Ev
FN:4313,_ZN5Catch15IMutableContextD0Ev
FN:4313,_ZN5Catch15IMutableContextD2Ev
FN:4327,_ZN5Catch24getCurrentMutableContextEv
FN:4335,_ZN5Catch17getCurrentContextEv
FN:4357,_ZN5Catch6OptionINS_9GroupInfoEEC2Ev
FN:4357,_ZN5Catch6OptionINS_11TestRunInfoEEC2Ev
FN:4357,_ZN5Catch6OptionINS_12TestCaseInfoEEC2Ev
FN:4357,_ZN5Catch6OptionINS_15AssertionResultEEC2Ev
FN:4357,_ZN5Catch6OptionImEC2Ev
FN:4365,_ZN5Catch6OptionINS_15AssertionResultEED2Ev
FN:4365,_ZN5Catch6OptionINS_9GroupInfoEED2Ev
FN:4365,_ZN5Catch6OptionImED2Ev
FN:4365,_ZN5Catch6OptionINS_11TestRunInfoEED2Ev
FN:4365,_ZN5Catch6OptionINS_12TestCaseInfoEED2Ev
FN:4377,_ZN5Catch6OptionImEaSERKm
FN:4377,_ZN5Catch6OptionINS_15AssertionResultEEaSERKS1_
FN:4377,_ZN5Catch6OptionINS_12TestCaseInfoEEaSERKS1_
FN:4377,_ZN5Catch6OptionINS_9GroupInfoEEaSERKS1_
FN:4377,_ZN5Catch6OptionINS_11TestRunInfoEEaSERKS1_
FN:4383,_ZN5Catch6OptionINS_11TestRunInfoEE5resetEv
FN:4383,_ZN5Catch6OptionImE5resetEv
FN:4383,_ZN5Catch6OptionINS_12TestCaseInfoEE5resetEv
FN:4383,_ZN5Catch6OptionINS_15AssertionResultEE5resetEv
FN:4383,_ZN5Catch6OptionINS_9GroupInfoEE5resetEv
FN:4389,_ZN5Catch6OptionImEdeEv
FN:4390,_ZNK5Catch6OptionINS_15AssertionResultEEdeEv
FN:4391,_ZN5Catch6OptionINS_9GroupInfoEEptEv
FN:4391,_ZN5Catch6OptionINS_12TestCaseInfoEEptEv
FN:4391,_ZN5Catch6OptionINS_11TestRunInfoEEptEv
FN:4394,_ZNK5Catch6OptionImE7valueOrERKm
FN:4398,_ZNK5Catch6OptionImE4someEv
FN:4402,_ZNK5Catch6OptionImEcvbEv
FN:4457,_ZN5Catch7IConfigC2Ev
FN:4457,_ZN5Catch7IConfigD2Ev
FN:4457,_ZN5Catch7IConfigD0Ev
FN:4513,_ZN5Catch11SimplePcg32C2Ev
FN:4715,_ZN5Catch12TestCaseInfoC2EOS0_
FN:4715,_ZN5Catch12TestCaseInfoaSEOS0_
FN:4715,_ZN5Catch12TestCaseInfoD2Ev
FN:4715,_ZN5Catch12TestCaseInfoC2ERKS0_
FN:4750,_ZN5Catch8TestCaseaSEOS0_
FN:4750,_ZN5Catch8TestCaseC2ERKS0_
FN:4750,_ZN5Catch8TestCaseD2Ev
FN:4750,_ZN5Catch8TestCaseC2EOS0_
FN:4783,_ZN5Catch7IRunnerC2Ev
FN:4783,_ZN5Catch7IRunnerD0Ev
FN:4783,_ZN5Catch7IRunnerD2Ev
FN:5034,_ZN5Catch15WildcardPatternD2Ev
FN:5034,_ZN5Catch15WildcardPatternD0Ev
FN:5054,_ZN5Catch8TestSpecD2Ev
FN:5054,_ZN5Catch8TestSpecC2Ev
FN:5054,_ZN5Catch8TestSpecaSEOS0_
FN:5054,_ZN5Catch8TestSpecC2ERKS0_
FN:5055,_ZN5Catch8TestSpec7PatternD2Ev
FN:5055,_ZN5Catch8TestSpec7PatternD0Ev
FN:5066,_ZN5Catch8TestSpec11NamePatternD0Ev
FN:5066,_ZN5Catch8TestSpec11NamePatternD2Ev
FN:5074,_ZN5Catch8TestSpec10TagPatternD2Ev
FN:5074,_ZN5Catch8TestSpec10TagPatternD0Ev
FN:5082,_ZN5Catch8TestSpec15ExcludedPatternD2Ev
FN:5082,_ZN5Catch8TestSpec15ExcludedPatternD0Ev
FN:5090,_ZN5Catch8TestSpec6FilterC2ERKS1_
FN:5090,_ZN5Catch8TestSpec6FilterC2EOS1_
FN:5090,_ZN5Catch8TestSpec6FilterD2Ev
FN:5090,_ZN5Catch8TestSpec6FilteraSEOS1_
FN:5090,_ZN5Catch8TestSpec6FilterC2Ev
FN:5098,_ZN5Catch8TestSpec11FilterMatchaSEOS1_
FN:5098,_ZN5Catch8TestSpec11FilterMatchD2Ev
FN:5098,_ZN5Catch8TestSpec11FilterMatchC2Ev
FN:5130,_ZN5Catch17ITagAliasRegistryC2Ev
FN:5144,_ZN5Catch14TestSpecParserD2Ev
FN:5186,_ZN5Catch14TestSpecParser16addCharToPatternEc
FN:5216,_ZN5Catch10ConfigDataC2Ev
FN:5216,_ZN5Catch10ConfigDataC2ERKS0_
FN:5216,_ZN5Catch10ConfigDataaSERKS0_
FN:5216,_ZN5Catch10ConfigDataD2Ev
FN:5263,_ZN5Catch6ConfigD2Ev
FN:5263,_ZN5Catch6ConfigD0Ev
FN:5322,_ZN5Catch19AssertionResultDataD2Ev
FN:5322,_ZN5Catch19AssertionResultDataC2ERKS0_
FN:5336,_ZN5Catch15AssertionResultD2Ev
FN:5336,_ZN5Catch15AssertionResultC2ERKS0_
FN:5418,_ZN5Catch14ReporterConfigD2Ev
FN:5431,_ZN5Catch19ReporterPreferencesC2Ev
FN:5437,_ZN5Catch8LazyStatINS_11TestRunInfoEED2Ev
FN:5437,_ZN5Catch8LazyStatINS_11TestRunInfoEEC2Ev
FN:5437,_ZN5Catch8LazyStatINS_12TestCaseInfoEED2Ev
FN:5437,_ZN5Catch8LazyStatINS_12TestCaseInfoEEC2Ev
FN:5437,_ZN5Catch8LazyStatINS_9GroupInfoEED2Ev
FN:5437,_ZN5Catch8LazyStatINS_9GroupInfoEEC2Ev
FN:5438,_ZN5Catch8LazyStatINS_12TestCaseInfoEEaSERKS1_
FN:5438,_ZN5Catch8LazyStatINS_9GroupInfoEEaSERKS1_
FN:5438,_ZN5Catch8LazyStatINS_11TestRunInfoEEaSERKS1_
FN:5443,_ZN5Catch8LazyStatINS_12TestCaseInfoEE5resetEv
FN:5443,_ZN5Catch8LazyStatINS_9GroupInfoEE5resetEv
FN:5443,_ZN5Catch8LazyStatINS_11TestRunInfoEE5resetEv
FN:5450,_ZN5Catch11TestRunInfoD2Ev
FN:5450,_ZN5Catch11TestRunInfoC2ERKS0_
FN:5454,_ZN5Catch9GroupInfoC2ERKS0_
FN:5454,_ZN5Catch9GroupInfoD2Ev
FN:5464,_ZN5Catch14AssertionStatsD2Ev
FN:5464,_ZN5Catch14AssertionStatsD0Ev
FN:5469,_ZN5Catch14AssertionStatsC2ERKS0_
FN:5480,_ZN5Catch12SectionStatsaSERKS0_
FN:5480,_ZN5Catch12SectionStatsD0Ev
FN:5480,_ZN5Catch12SectionStatsD2Ev
FN:5485,_ZN5Catch12SectionStatsC2ERKS0_
FN:5497,_ZN5Catch13TestCaseStatsD0Ev
FN:5497,_ZN5Catch13TestCaseStatsD2Ev
FN:5504,_ZN5Catch13TestCaseStatsC2ERKS0_
FN:5517,_ZN5Catch14TestGroupStatsD0Ev
FN:5517,_ZN5Catch14TestGroupStatsD2Ev
FN:5523,_ZN5Catch14TestGroupStatsC2ERKS0_
FN:5534,_ZN5Catch12TestRunStatsD0Ev
FN:5534,_ZN5Catch12TestRunStatsD2Ev
FN:5539,_ZN5Catch12TestRunStatsC2ERKS0_
FN:5588,_ZN5Catch18IStreamingReporterC2Ev
FN:5589,_ZN5Catch18IStreamingReporterD2Ev
FN:5589,_ZN5Catch18IStreamingReporterD0Ev
FN:5599,_ZN5Catch18IStreamingReporter22reportInvalidArgumentsERKNSt7__cxx1112basic_stringIcSt11char_traitsIcESaIcEEE
FN:5633,_ZN5Catch16IReporterFactoryD0Ev
FN:5633,_ZN5Catch16IReporterFactoryC2Ev
FN:5633,_ZN5Catch16IReporterFactoryD2Ev
FN:5640,_ZN5Catch17IReporterRegistryD2Ev
FN:5640,_ZN5Catch17IReporterRegistryD0Ev
FN:5640,_ZN5Catch17IReporterRegistryC2Ev
FN:5672,_ZN5Catch21StreamingReporterBaseINS_21TestEventListenerBaseEEC2ERKNS_14ReporterConfigE
FN:5672,_ZN5Catch21StreamingReporterBaseINS_11XmlReporterEEC2ERKNS_14ReporterConfigE
FN:5672,_ZN5Catch21StreamingReporterBaseINS_15CompactReporterEEC2ERKNS_14ReporterConfigE
FN:5672,_ZN5Catch21StreamingReporterBaseINS_15ConsoleReporterEEC2ERKNS_14ReporterConfigE
FN:5681,_ZNK5Catch21StreamingReporterBaseINS_21TestEventListenerBaseEE14getPreferencesEv
FN:5681,_ZNK5Catch21StreamingReporterBaseINS_15CompactReporterEE14getPreferencesEv
FN:5681,_ZNK5Catch21StreamingReporterBaseINS_11XmlReporterEE14getPreferencesEv
FN:5681,_ZNK5Catch21StreamingReporterBaseINS_15ConsoleReporterEE14getPreferencesEv
FN:5685,_ZN5Catch21StreamingReporterBaseINS_15CompactReporterEE23getSupportedVerbositiesEv
FN:5685,_ZN5Catch21StreamingReporterBaseINS_15ConsoleReporterEE23getSupportedVerbositiesEv
FN:5685,_ZN5Catch21StreamingReporterBaseINS_11XmlReporterEE23getSupportedVerbositiesEv
FN:5689,_ZN5Catch21StreamingReporterBaseINS_15ConsoleReporterEED2Ev
FN:5689,_ZN5Catch21StreamingReporterBaseINS_21TestEventListenerBaseEED0Ev
FN:5689,_ZN5Catch21StreamingReporterBaseINS_15CompactReporterEED2Ev
FN:5689,_ZN5Catch21StreamingReporterBaseINS_15CompactReporterEED0Ev
FN:5689,_ZN5Catch21StreamingReporterBaseINS_15ConsoleReporterEED0Ev
FN:5689,_ZN5Catch21StreamingReporterBaseINS_11XmlReporterEED2Ev
FN:5689,_ZN5Catch21StreamingReporterBaseINS_21TestEventListenerBaseEED2Ev
FN:5689,_ZN5Catch21StreamingReporterBaseINS_11XmlReporterEED0Ev
FN:5691,_ZN5Catch21StreamingReporterBaseINS_15CompactReporterEE19noMatchingTestCasesERKNSt7__cxx1112basic_stringIcSt11char_traitsIcESaIcEEE
FN:5691,_ZN5Catch21StreamingReporterBaseINS_11XmlReporterEE19noMatchingTestCasesERKNSt7__cxx1112basic_stringIcSt11char_traitsIcESaIcEEE
FN:5691,_ZN5Catch21StreamingReporterBaseINS_21TestEventListenerBaseEE19noMatchingTestCasesERKNSt7__cxx1112basic_stringIcSt11char_traitsIcESaIcEEE
FN:5691,_ZN5Catch21StreamingReporterBaseINS_15ConsoleReporterEE19noMatchingTestCasesERKNSt7__cxx1112basic_stringIcSt11char_traitsIcESaIcEEE
FN:5693,_ZN5Catch21StreamingReporterBaseINS_21TestEventListenerBaseEE22reportInvalidArgumentsERKNSt7__cxx1112basic_stringIcSt11char_traitsIcESaIcEEE
FN:5693,_ZN5Catch21StreamingReporterBaseINS_15ConsoleReporterEE22reportInvalidArgumentsERKNSt7__cxx1112basic_stringIcSt11char_traitsIcESaIcEEE
FN:5693,_ZN5Catch21StreamingReporterBaseINS_15CompactReporterEE22reportInvalidArgumentsERKNSt7__cxx1112basic_stringIcSt11char_traitsIcESaIcEEE
FN:5693,_ZN5Catch21StreamingReporterBaseINS_11XmlReporterEE22reportInvalidArgumentsERKNSt7__cxx1112basic_stringIcSt11char_traitsIcESaIcEEE
FN:5695,_ZN5Catch21StreamingReporterBaseINS_15ConsoleReporterEE15testRunStartingERKNS_11TestRunInfoE
FN:5695,_ZN5Catch21StreamingReporterBaseINS_21TestEventListenerBaseEE15testRunStartingERKNS_11TestRunInfoE
FN:5695,_ZN5Catch21StreamingReporterBaseINS_11XmlReporterEE15testRunStartingERKNS_11TestRunInfoE
FN:5695,_ZN5Catch21StreamingReporterBaseINS_15CompactReporterEE15testRunStartingERKNS_11TestRunInfoE
FN:5699,_ZN5Catch21StreamingReporterBaseINS_11XmlReporterEE17testGroupStartingERKNS_9GroupInfoE
FN:5699,_ZN5Catch21StreamingReporterBaseINS_21TestEventListenerBaseEE17testGroupStartingERKNS_9GroupInfoE
FN:5699,_ZN5Catch21StreamingReporterBaseINS_15ConsoleReporterEE17testGroupStartingERKNS_9GroupInfoE
FN:5699,_ZN5Catch21StreamingReporterBaseINS_15CompactReporterEE17testGroupStartingERKNS_9GroupInfoE
FN:5703,_ZN5Catch21StreamingReporterBaseINS_15ConsoleReporterEE16testCaseStartingERKNS_12TestCaseInfoE
FN:5703,_ZN5Catch21StreamingReporterBaseINS_11XmlReporterEE16testCaseStartingERKNS_12TestCaseInfoE
FN:5703,_ZN5Catch21StreamingReporterBaseINS_15CompactReporterEE16testCaseStartingERKNS_12TestCaseInfoE
FN:5703,_ZN5Catch21StreamingReporterBaseINS_21TestEventListenerBaseEE16testCaseStartingERKNS_12TestCaseInfoE
FN:5706,_ZN5Catch21StreamingReporterBaseINS_15ConsoleReporterEE15sectionStartingERKNS_11SectionInfoE
FN:5706,_ZN5Catch21StreamingReporterBaseINS_15CompactReporterEE15sectionStartingERKNS_11SectionInfoE
FN:5706,_ZN5Catch21StreamingReporterBaseINS_11XmlReporterEE15sectionStartingERKNS_11SectionInfoE
FN:5706,_ZN5Catch21StreamingReporterBaseINS_21TestEventListenerBaseEE15sectionStartingERKNS_11SectionInfoE
FN:5710,_ZN5Catch21StreamingReporterBaseINS_21TestEventListenerBaseEE12sectionEndedERKNS_12SectionStatsE
FN:5710,_ZN5Catch21StreamingReporterBaseINS_15ConsoleReporterEE12sectionEndedERKNS_12SectionStatsE
FN:5710,_ZN5Catch21StreamingReporterBaseINS_11XmlReporterEE12sectionEndedERKNS_12SectionStatsE
FN:5710,_ZN5Catch21StreamingReporterBaseINS_15CompactReporterEE12sectionEndedERKNS_12SectionStatsE
FN:5713,_ZN5Catch21StreamingReporterBaseINS_11XmlReporterEE13testCaseEndedERKNS_13TestCaseStatsE
FN:5713,_ZN5Catch21StreamingReporterBaseINS_15ConsoleReporterEE13testCaseEndedERKNS_13TestCaseStatsE
FN:5713,_ZN5Catch21StreamingReporterBaseINS_15CompactReporterEE13testCaseEndedERKNS_13TestCaseStatsE
FN:5713,_ZN5Catch21StreamingReporterBaseINS_21TestEventListenerBaseEE13testCaseEndedERKNS_13TestCaseStatsE
FN:5716,_ZN5Catch21StreamingReporterBaseINS_15CompactReporterEE14testGroupEndedERKNS_14TestGroupStatsE
FN:5716,_ZN5Catch21StreamingReporterBaseINS_15ConsoleReporterEE14testGroupEndedERKNS_14TestGroupStatsE
FN:5716,_ZN5Catch21StreamingReporterBaseINS_21TestEventListenerBaseEE14testGroupEndedERKNS_14TestGroupStatsE
FN:5716,_ZN5Catch21StreamingReporterBaseINS_11XmlReporterEE14testGroupEndedERKNS_14TestGroupStatsE
FN:5719,_ZN5Catch21StreamingReporterBaseINS_15ConsoleReporterEE12testRunEndedERKNS_12TestRunStatsE
FN:5719,_ZN5Catch21StreamingReporterBaseINS_11XmlReporterEE12testRunEndedERKNS_12TestRunStatsE
FN:5719,_ZN5Catch21StreamingReporterBaseINS_15CompactReporterEE12testRunEndedERKNS_12TestRunStatsE
FN:5719,_ZN5Catch21StreamingReporterBaseINS_21TestEventListenerBaseEE12testRunEndedERKNS_12TestRunStatsE
FN:5725,_ZN5Catch21StreamingReporterBaseINS_15CompactReporterEE8skipTestERKNS_12TestCaseInfoE
FN:5725,_ZN5Catch21StreamingReporterBaseINS_15ConsoleReporterEE8skipTestERKNS_12TestCaseInfoE
FN:5725,_ZN5Catch21StreamingReporterBaseINS_11XmlReporterEE8skipTestERKNS_12TestCaseInfoE
FN:5725,_ZN5Catch21StreamingReporterBaseINS_21TestEventListenerBaseEE8skipTestERKNS_12TestCaseInfoE
FN:5745,_ZN5Catch22CumulativeReporterBaseINS_13JunitReporterEE4NodeINS_12TestRunStatsENS3_INS_14TestGroupStatsENS3_INS_13TestCaseStatsENS2_11SectionNodeEEEEEEC2ERKS4_
FN:5745,_ZN5Catch22CumulativeReporterBaseINS_13JunitReporterEE4NodeINS_13TestCaseStatsENS2_11SectionNodeEEC2ERKS4_
FN:5745,_ZN5Catch22CumulativeReporterBaseINS_13JunitReporterEE4NodeINS_14TestGroupStatsENS3_INS_13TestCaseStatsENS2_11SectionNodeEEEEC2ERKS4_
FN:5746,_ZN5Catch22CumulativeReporterBaseINS_13JunitReporterEE4NodeINS_13TestCaseStatsENS2_11SectionNodeEED0Ev
FN:5746,_ZN5Catch22CumulativeReporterBaseINS_13JunitReporterEE4NodeINS_14TestGroupStatsENS3_INS_13TestCaseStatsENS2_11SectionNodeEEEED2Ev
FN:5746,_ZN5Catch22CumulativeReporterBaseINS_13JunitReporterEE4NodeINS_14TestGroupStatsENS3_INS_13TestCaseStatsENS2_11SectionNodeEEEED0Ev
FN:5746,_ZN5Catch22CumulativeReporterBaseINS_13JunitReporterEE4NodeINS_12TestRunStatsENS3_INS_14TestGroupStatsENS3_INS_13TestCaseStatsENS2_11SectionNodeEEEEEED0Ev
FN:5746,_ZN5Catch22CumulativeReporterBaseINS_13JunitReporterEE4NodeINS_12TestRunStatsENS3_INS_14TestGroupStatsENS3_INS_13TestCaseStatsENS2_11SectionNodeEEEEEED2Ev
FN:5746,_ZN5Catch22CumulativeReporterBaseINS_13JunitReporterEE4NodeINS_13TestCaseStatsENS2_11SectionNodeEED2Ev
FN:5753,_ZN5Catch22CumulativeReporterBaseINS_13JunitReporterEE11SectionNodeC2ERKNS_12SectionStatsE
FN:5754,_ZN5Catch22CumulativeReporterBaseINS_13JunitReporterEE11SectionNodeD2Ev
FN:5754,_ZN5Catch22CumulativeReporterBaseINS_13JunitReporterEE11SectionNodeD0Ev
FN:5773,_ZN5Catch22CumulativeReporterBaseINS_13JunitReporterEE13BySectionInfoC2ERKNS_11SectionInfoE
FN:5774,_ZN5Catch22CumulativeReporterBaseINS_13JunitReporterEE13BySectionInfoC2ERKS3_
FN:5775,_ZNK5Catch22CumulativeReporterBaseINS_13JunitReporterEE13BySectionInfoclERKSt10shared_ptrINS2_11SectionNodeEE
FN:5789,_ZN5Catch22CumulativeReporterBaseINS_13JunitReporterEEC2ERKNS_14ReporterConfigE
FN:5797,_ZN5Catch22CumulativeReporterBaseINS_13JunitReporterEED0Ev
FN:5797,_ZN5Catch22CumulativeReporterBaseINS_13JunitReporterEED2Ev
FN:5799,_ZNK5Catch22CumulativeReporterBaseINS_13JunitReporterEE14getPreferencesEv
FN:5803,_ZN5Catch22CumulativeReporterBaseINS_13JunitReporterEE23getSupportedVerbositiesEv
FN:5807,_ZN5Catch22CumulativeReporterBaseINS_13JunitReporterEE15testRunStartingERKNS_11TestRunInfoE
FN:5808,_ZN5Catch22CumulativeReporterBaseINS_13JunitReporterEE17testGroupStartingERKNS_9GroupInfoE
FN:5810,_ZN5Catch22CumulativeReporterBaseINS_13JunitReporterEE16testCaseStartingERKNS_12TestCaseInfoE
FN:5812,_ZN5Catch22CumulativeReporterBaseINS_13JunitReporterEE15sectionStartingERKNS_11SectionInfoE
FN:5837,_ZN5Catch22CumulativeReporterBaseINS_13JunitReporterEE17assertionStartingERKNS_13AssertionInfoE
FN:5839,_ZN5Catch22CumulativeReporterBaseINS_13JunitReporterEE14assertionEndedERKNS_14AssertionStatsE
FN:5851,_ZN5Catch22CumulativeReporterBaseINS_13JunitReporterEE12sectionEndedERKNS_12SectionStatsE
FN:5857,_ZN5Catch22CumulativeReporterBaseINS_13JunitReporterEE13testCaseEndedERKNS_13TestCaseStatsE
FN:5868,_ZN5Catch22CumulativeReporterBaseINS_13JunitReporterEE14testGroupEndedERKNS_14TestGroupStatsE
FN:5873,_ZN5Catch22CumulativeReporterBaseINS_13JunitReporterEE12testRunEndedERKNS_12TestRunStatsE
FN:5881,_ZN5Catch22CumulativeReporterBaseINS_13JunitReporterEE8skipTestERKNS_12TestCaseInfoE
FN:5899,_ZN5Catch14getLineOfCharsILc45EEEPKcv
FN:5899,_ZN5Catch14getLineOfCharsILc46EEEPKcv
FN:5899,_ZN5Catch14getLineOfCharsILc126EEEPKcv
FN:5908,_ZN5Catch21TestEventListenerBaseD2Ev
FN:5908,_ZN5Catch21TestEventListenerBaseD0Ev
FN:5987,_ZN5Catch17ReporterRegistrarINS_15ConsoleReporterEE15ReporterFactoryD0Ev
FN:5987,_ZN5Catch17ReporterRegistrarINS_15ConsoleReporterEE15ReporterFactoryC2Ev
FN:5987,_ZN5Catch17ReporterRegistrarINS_13JunitReporterEE15ReporterFactoryD2Ev
FN:5987,_ZN5Catch17ReporterRegistrarINS_15ConsoleReporterEE15ReporterFactoryD2Ev
FN:5987,_ZN5Catch17ReporterRegistrarINS_15CompactReporterEE15ReporterFactoryC2Ev
FN:5987,_ZN5Catch17ReporterRegistrarINS_13JunitReporterEE15ReporterFactoryD0Ev
FN:5987,_ZN5Catch17ReporterRegistrarINS_11XmlReporterEE15ReporterFactoryD2Ev
FN:5987,_ZN5Catch17ReporterRegistrarINS_13JunitReporterEE15ReporterFactoryC2Ev
FN:5987,_ZN5Catch17ReporterRegistrarINS_11XmlReporterEE15ReporterFactoryC2Ev
FN:5987,_ZN5Catch17ReporterRegistrarINS_11XmlReporterEE15ReporterFactoryD0Ev
FN:5987,_ZN5Catch17ReporterRegistrarINS_15CompactReporterEE15ReporterFactoryD2Ev
FN:5987,_ZN5Catch17ReporterRegistrarINS_15CompactReporterEE15ReporterFactoryD0Ev
FN:5989,_ZNK5Catch17ReporterRegistrarINS_15ConsoleReporterEE15ReporterFactory6createERKNS_14ReporterConfigE
FN:5989,_ZNK5Catch17ReporterRegistrarINS_11XmlReporterEE15ReporterFactory6createERKNS_14ReporterConfigE
FN:5989,_ZNK5Catch17ReporterRegistrarINS_13JunitReporterEE15ReporterFactory6createERKNS_14ReporterConfigE
FN:5989,_ZNK5Catch17ReporterRegistrarINS_15CompactReporterEE15ReporterFactory6createERKNS_14ReporterConfigE
FN:5993,_ZNK5Catch17ReporterRegistrarINS_13JunitReporterEE15ReporterFactory14getDescriptionB5cxx11Ev
FN:5993,_ZNK5Catch17ReporterRegistrarINS_11XmlReporterEE15ReporterFactory14getDescriptionB5cxx11Ev
FN:5993,_ZNK5Catch17ReporterRegistrarINS_15CompactReporterEE15ReporterFactory14getDescriptionB5cxx11Ev
FN:5993,_ZNK5Catch17ReporterRegistrarINS_15ConsoleReporterEE15ReporterFactory14getDescriptionB5cxx11Ev
FN:6000,_ZN5Catch17ReporterRegistrarINS_15CompactReporterEEC2ERKNSt7__cxx1112basic_stringIcSt11char_traitsIcESaIcEEE
FN:6000,_ZN5Catch17ReporterRegistrarINS_15ConsoleReporterEEC2ERKNSt7__cxx1112basic_stringIcSt11char_traitsIcESaIcEEE
FN:6000,_ZN5Catch17ReporterRegistrarINS_11XmlReporterEEC2ERKNSt7__cxx1112basic_stringIcSt11char_traitsIcESaIcEEE
FN:6000,_ZN5Catch17ReporterRegistrarINS_13JunitReporterEEC2ERKNSt7__cxx1112basic_stringIcSt11char_traitsIcESaIcEEE
FN:6054,_ZN5Catch15CompactReporterCI2NS_21StreamingReporterBaseIS0_EEERKNS_14ReporterConfigE
FN:6091,_ZN5Catch15ConsoleReporterD0Ev
FN:6091,_ZN5Catch15ConsoleReporterD2Ev
FN:6170,_ZN5Catch9XmlEncodeD2Ev
FN:6200,_ZN5Catch9XmlWriter13ScopedElement14writeAttributeIdEERS1_RKNSt7__cxx1112basic_stringIcSt11char_traitsIcESaIcEEERKT_
FN:6200,_ZN5Catch9XmlWriter13ScopedElement14writeAttributeINSt7__cxx1112basic_stringIcSt11char_traitsIcESaIcEEEEERS1_RKS8_RKT_
FN:6200,_ZN5Catch9XmlWriter13ScopedElement14writeAttributeIbEERS1_RKNSt7__cxx1112basic_stringIcSt11char_traitsIcESaIcEEERKT_
FN:6200,_ZN5Catch9XmlWriter13ScopedElement14writeAttributeIjEERS1_RKNSt7__cxx1112basic_stringIcSt11char_traitsIcESaIcEEERKT_
FN:6200,_ZN5Catch9XmlWriter13ScopedElement14writeAttributeIA8_cEERS1_RKNSt7__cxx1112basic_stringIcSt11char_traitsIcESaIcEEERKT_
FN:6200,_ZN5Catch9XmlWriter13ScopedElement14writeAttributeImEERS1_RKNSt7__cxx1112basic_stringIcSt11char_traitsIcESaIcEEERKT_
FN:6200,_ZN5Catch9XmlWriter13ScopedElement14writeAttributeIA12_cEERS1_RKNSt7__cxx1112basic_stringIcSt11char_traitsIcESaIcEEERKT_
FN:6227,_ZN5Catch9XmlWriter14writeAttributeIA1_cEERS0_RKNSt7__cxx1112basic_stringIcSt11char_traitsIcESaIcEEERKT_
FN:6227,_ZN5Catch9XmlWriter14writeAttributeIdEERS0_RKNSt7__cxx1112basic_stringIcSt11char_traitsIcESaIcEEERKT_
FN:6227,_ZN5Catch9XmlWriter14writeAttributeIA4_cEERS0_RKNSt7__cxx1112basic_stringIcSt11char_traitsIcESaIcEEERKT_
FN:6227,_ZN5Catch9XmlWriter14writeAttributeIA5_cEERS0_RKNSt7__cxx1112basic_stringIcSt11char_traitsIcESaIcEEERKT_
FN:6227,_ZN5Catch9XmlWriter14writeAttributeIjEERS0_RKNSt7__cxx1112basic_stringIcSt11char_traitsIcESaIcEEERKT_
FN:6227,_ZN5Catch9XmlWriter14writeAttributeINS_9StringRefEEERS0_RKNSt7__cxx1112basic_stringIcSt11char_traitsIcESaIcEEERKT_
FN:6227,_ZN5Catch9XmlWriter14writeAttributeIPKcEERS0_RKNSt7__cxx1112basic_stringIcSt11char_traitsIcESaIcEEERKT_
FN:6227,_ZN5Catch9XmlWriter14writeAttributeImEERS0_RKNSt7__cxx1112basic_stringIcSt11char_traitsIcESaIcEEERKT_
FN:6227,_ZN5Catch9XmlWriter14writeAttributeIA8_cEERS0_RKNSt7__cxx1112basic_stringIcSt11char_traitsIcESaIcEEERKT_
FN:6227,_ZN5Catch9XmlWriter14writeAttributeIA12_cEERS0_RKNSt7__cxx1112basic_stringIcSt11char_traitsIcESaIcEEERKT_
FN:6311,_ZN5Catch11XmlReporterD2Ev
FN:6311,_ZN5Catch11XmlReporterD0Ev
FN:7410,_ZN5Catch16TestCaseTracking15NameAndLocationD2Ev
FN:7410,_ZN5Catch16TestCaseTracking15NameAndLocationC2ERKS1_
FN:7421,_ZN5Catch16TestCaseTracking8ITrackerC2Ev
FN:7421,_ZN5Catch16TestCaseTracking8ITrackerD2Ev
FN:7421,_ZN5Catch16TestCaseTracking8ITrackerD0Ev
FN:7449,_ZN5Catch16TestCaseTracking14TrackerContextD2Ev
FN:7449,_ZN5Catch16TestCaseTracking14TrackerContextC2Ev
FN:7474,_ZN5Catch16TestCaseTracking11TrackerBaseD0Ev
FN:7474,_ZN5Catch16TestCaseTracking11TrackerBaseD2Ev
FN:7522,_ZN5Catch16TestCaseTracking14SectionTrackerD0Ev
FN:7522,_ZN5Catch16TestCaseTracking14SectionTrackerD2Ev
FN:7782,_ZN12_GLOBAL__N_116marginComparisonEddd
FN:7791,_ZN5Catch6Detail6ApproxC2Ed
FN:7798,_ZN5Catch6Detail6Approx6customEv
FN:7802,_ZNK5Catch6Detail6ApproxngEv
FN:7808,_ZNK5Catch6Detail6Approx8toStringB5cxx11Ev
FN:7814,_ZNK5Catch6Detail6Approx22equalityComparisonImplEd
FN:7821,_ZN5Catch6Detail6Approx9setMarginEd
FN:7828,_ZN5Catch6Detail6Approx10setEpsilonEd
FN:7838,_ZN5Catch8literalsli2_aEe
FN:7841,_ZN5Catch8literalsli2_aEy
FN:7846,_ZN5Catch11StringMakerINS_6Detail6ApproxEvE7convertB5cxx11ERKS2_
FN:8122,_ZN5Catch12_GLOBAL__N_1lsERSoRKNS_20ITransientExpressionE
FN:8128,_ZN5Catch14LazyExpressionC2Eb
FN:8132,_ZN5Catch14LazyExpressionC2ERKS0_
FN:8134,_ZNK5Catch14LazyExpressioncvbEv
FN:8138,_ZN5CatchlsERSoRKNS_14LazyExpressionE
FN:8154,_ZN5Catch16AssertionHandlerC2ERKNS_9StringRefERKNS_14SourceLineInfoES1_NS_17ResultDisposition5FlagsE
FN:8163,_ZN5Catch16AssertionHandler10handleExprERKNS_20ITransientExpressionE
FN:8166,_ZN5Catch16AssertionHandler13handleMessageENS_9ResultWas6OfTypeERKNS_9StringRefE
FN:8170,_ZNK5Catch16AssertionHandler11allowThrowsEv
FN:8174,_ZN5Catch16AssertionHandler8completeEv
FN:8182,_ZZN5Catch16AssertionHandler8completeEvENKUlvE_clEv
FN:8192,_ZN5Catch16AssertionHandler12setCompletedEv
FN:8196,_ZN5Catch16AssertionHandler33handleUnexpectedInflightExceptionEv
FN:8200,_ZN5Catch16AssertionHandler31handleExceptionThrownAsExpectedEv
FN:8203,_ZN5Catch16AssertionHandler34handleExceptionNotThrownAsExpectedEv
FN:8207,_ZN5Catch16AssertionHandler34handleUnexpectedExceptionNotThrownEv
FN:8211,_ZN5Catch16AssertionHandler25handleThrowingCallSkippedEv
FN:8217,_ZN5Catch24handleExceptionMatchExprERNS_16AssertionHandlerERKNSt7__cxx1112basic_stringIcSt11char_traitsIcESaIcEEERKNS_9StringRefE
FN:8226,_ZN5Catch19AssertionResultDataC2ENS_9ResultWas6OfTypeERKNS_14LazyExpressionE
FN:8230,_ZNK5Catch19AssertionResultData21reconstructExpressionB5cxx11Ev
FN:8242,_ZN5Catch15AssertionResultC2ERKNS_13AssertionInfoERKNS_19AssertionResultDataE
FN:8248,_ZNK5Catch15AssertionResult9succeededEv
FN:8253,_ZNK5Catch15AssertionResult4isOkEv
FN:8257,_ZNK5Catch15AssertionResult13getResultTypeEv
FN:8261,_ZNK5Catch15AssertionResult13hasExpressionEv
FN:8265,_ZNK5Catch15AssertionResult10hasMessageEv
FN:8269,_ZNK5Catch15AssertionResult13getExpressionB5cxx11Ev
FN:8282,_ZNK5Catch15AssertionResult20getExpressionInMacroB5cxx11Ev
FN:8296,_ZNK5Catch15AssertionResult21hasExpandedExpressionEv
FN:8300,_ZNK5Catch15AssertionResult21getExpandedExpressionB5cxx11Ev
FN:8307,_ZNK5Catch15AssertionResult10getMessageB5cxx11Ev
FN:8310,_ZNK5Catch15AssertionResult13getSourceInfoEv
FN:8314,_ZNK5Catch15AssertionResult16getTestMacroNameEv
FN:8329,_ZN5Catch24handleExceptionMatchExprERNS_16AssertionHandlerERKNS_8Matchers4Impl11MatcherBaseINSt7__cxx1112basic_stringIcSt11char_traitsIcESaIcEEEEERKNS_9StringRefE
FN:8410,_ZN5Catch5clara8TextFlow12isWhitespaceEc
FN:8414,_ZN5Catch5clara8TextFlow17isBreakableBeforeEc
FN:8418,_ZN5Catch5clara8TextFlow16isBreakableAfterEc
FN:8425,_ZN5Catch5clara8TextFlow6ColumnC2ERKS2_
FN:8425,_ZN5Catch5clara8TextFlow6ColumnD2Ev
FN:8425,_ZN5Catch5clara8TextFlow6ColumnC2EOS2_
FN:8443,_ZN5Catch5clara8TextFlow6Column8iteratorC2ERKS2_m
FN:8447,_ZNK5Catch5clara8TextFlow6Column8iterator4lineB5cxx11Ev
FN:8449,_ZNK5Catch5clara8TextFlow6Column8iterator10isBoundaryEm
FN:8459,_ZN5Catch5clara8TextFlow6Column8iterator10calcLengthEv
FN:8489,_ZNK5Catch5clara8TextFlow6Column8iterator6indentEv
FN:8494,_ZNK5Catch5clara8TextFlow6Column8iterator18addIndentAndSuffixERKNSt7__cxx1112basic_stringIcSt11char_traitsIcESaIcEEE
FN:8505,_ZN5Catch5clara8TextFlow6Column8iteratorC2ERKS2_
FN:8513,_ZNK5Catch5clara8TextFlow6Column8iteratordeB5cxx11Ev
FN:8519,_ZN5Catch5clara8TextFlow6Column8iteratorppEv
FN:8541,_ZNK5Catch5clara8TextFlow6Column8iteratoreqERKS3_
FN:8547,_ZNK5Catch5clara8TextFlow6Column8iteratorneERKS3_
FN:8553,_ZN5Catch5clara8TextFlow6ColumnC2ERKNSt7__cxx1112basic_stringIcSt11char_traitsIcESaIcEEE
FN:8555,_ZN5Catch5clara8TextFlow6Column5widthEm
FN:8560,_ZN5Catch5clara8TextFlow6Column6indentEm
FN:8564,_ZN5Catch5clara8TextFlow6Column13initialIndentEm
FN:8569,_ZNK5Catch5clara8TextFlow6Column5widthEv
FN:8570,_ZNK5Catch5clara8TextFlow6Column5beginEv
FN:8571,_ZNK5Catch5clara8TextFlow6Column3endEv
FN:8573,_ZN5Catch5clara8TextFlowlsERSoRKNS1_6ColumnE
FN:8594,_ZN5Catch5clara8TextFlow6SpacerD2Ev
FN:8597,_ZN5Catch5clara8TextFlow6SpacerC2Em
FN:8602,_ZN5Catch5clara8TextFlow7ColumnsC2Ev
FN:8602,_ZN5Catch5clara8TextFlow7ColumnsC2ERKS2_
FN:8602,_ZN5Catch5clara8TextFlow7ColumnsD2Ev
FN:8607,_ZN5Catch5clara8TextFlow7Columns8iteratorD2Ev
FN:8615,_ZN5Catch5clara8TextFlow7Columns8iteratorC2ERKS2_NS3_6EndTagE
FN:8631,_ZN5Catch5clara8TextFlow7Columns8iteratorC2ERKS2_
FN:8643,_ZNK5Catch5clara8TextFlow7Columns8iteratorneERKS3_
FN:8646,_ZNK5Catch5clara8TextFlow7Columns8iteratordeB5cxx11Ev
FN:8664,_ZN5Catch5clara8TextFlow7Columns8iteratorppEv
FN:8679,_ZNK5Catch5clara8TextFlow7Columns5beginEv
FN:8680,_ZNK5Catch5clara8TextFlow7Columns3endEv
FN:8682,_ZN5Catch5clara8TextFlow7ColumnspLERKNS1_6ColumnE
FN:8686,_ZN5Catch5clara8TextFlow7ColumnsplERKNS1_6ColumnE
FN:8692,_ZN5Catch5clara8TextFlowlsERSoRKNS1_7ColumnsE
FN:8712,_ZN5Catch5clara8TextFlow6ColumnplERKS2_
FN:8758,_ZN5Catch5clara6detail4ArgsD2Ev
FN:8764,_ZN5Catch5clara6detail4ArgsC2EiPKPKc
FN:8773,_ZNK5Catch5clara6detail4Args7exeNameB5cxx11Ev
FN:8783,_ZN5Catch5clara6detail5TokenD2Ev
FN:8783,_ZN5Catch5clara6detail5TokenC2EOS2_
FN:8783,_ZN5Catch5clara6detail5TokenC2Ev
FN:8783,_ZN5Catch5clara6detail5TokenaSEOS2_
FN:8783,_ZN5Catch5clara6detail5TokenC2ERKS2_
FN:8788,_ZN5Catch5clara6detail11isOptPrefixEc
FN:8797,_ZN5Catch5clara6detail11TokenStreamC2ERKS2_
FN:8797,_ZN5Catch5clara6detail11TokenStreamD2Ev
FN:8803,_ZN5Catch5clara6detail11TokenStream10loadBufferEv
FN:8835,_ZN5Catch5clara6detail11TokenStreamC2ERKNS1_4ArgsE
FN:8837,_ZN5Catch5clara6detail11TokenStreamC2EN9__gnu_cxx17__normal_iteratorIPKNSt7__cxx1112basic_stringIcSt11char_traitsIcESaIcEEESt6vectorISA_SaISA_EEEESG_
FN:8841,_ZNK5Catch5clara6detail11TokenStreamcvbEv
FN:8847,_ZNK5Catch5clara6detail11TokenStreamdeEv
FN:8852,_ZNK5Catch5clara6detail11TokenStreamptEv
FN:8857,_ZN5Catch5clara6detail11TokenStreamppEv
FN:8869,_ZN5Catch5clara6detail10ResultBaseaSERKS2_
FN:8869,_ZN5Catch5clara6detail10ResultBaseC2ERKS2_
FN:8876,_ZN5Catch5clara6detail10ResultBaseC2ENS2_4TypeE
FN:8877,_ZN5Catch5clara6detail10ResultBaseD0Ev
FN:8877,_ZN5Catch5clara6detail10ResultBaseD2Ev
FN:8887,_ZNK5Catch5clara6detail15ResultValueBaseINS1_15ParseResultTypeEE5valueEv
FN:8887,_ZNK5Catch5clara6detail15ResultValueBaseINS1_10ParseStateEE5valueEv
FN:8893,_ZN5Catch5clara6detail15ResultValueBaseINS1_15ParseResultTypeEEC2ENS1_10ResultBase4TypeE
FN:8893,_ZN5Catch5clara6detail15ResultValueBaseINS1_10ParseStateEEC2ENS1_10ResultBase4TypeE
FN:8895,_ZN5Catch5clara6detail15ResultValueBaseINS1_15ParseResultTypeEEC2ERKS4_
FN:8895,_ZN5Catch5clara6detail15ResultValueBaseINS1_10ParseStateEEC2ERKS4_
FN:8900,_ZN5Catch5clara6detail15ResultValueBaseINS1_15ParseResultTypeEEC2ENS1_10ResultBase4TypeERKS3_
FN:8900,_ZN5Catch5clara6detail15ResultValueBaseINS1_10ParseStateEEC2ENS1_10ResultBase4TypeERKS3_
FN:8904,_ZN5Catch5clara6detail15ResultValueBaseINS1_10ParseStateEEaSERKS4_
FN:8913,_ZN5Catch5clara6detail15ResultValueBaseINS1_10ParseStateEED0Ev
FN:8913,_ZN5Catch5clara6detail15ResultValueBaseINS1_10ParseStateEED2Ev
FN:8913,_ZN5Catch5clara6detail15ResultValueBaseINS1_15ParseResultTypeEED2Ev
FN:8913,_ZN5Catch5clara6detail15ResultValueBaseINS1_15ParseResultTypeEED0Ev
FN:8924,_ZN5Catch5clara6detail15ResultValueBaseIvED0Ev
FN:8924,_ZN5Catch5clara6detail15ResultValueBaseIvEC2EOS3_
FN:8924,_ZN5Catch5clara6detail15ResultValueBaseIvED2Ev
FN:8926,_ZN5Catch5clara6detail15ResultValueBaseIvECI2NS1_10ResultBaseEENS4_4TypeE
FN:8930,_ZN5Catch5clara6detail11BasicResultIvED0Ev
FN:8930,_ZN5Catch5clara6detail11BasicResultINS1_10ParseStateEED0Ev
FN:8930,_ZN5Catch5clara6detail11BasicResultIvED2Ev
FN:8930,_ZN5Catch5clara6detail11BasicResultINS1_15ParseResultTypeEEC2ERKS4_
FN:8930,_ZN5Catch5clara6detail11BasicResultINS1_15ParseResultTypeEED0Ev
FN:8930,_ZN5Catch5clara6detail11BasicResultINS1_10ParseStateEED2Ev
FN:8930,_ZN5Catch5clara6detail11BasicResultINS1_15ParseResultTypeEED2Ev
FN:8930,_ZN5Catch5clara6detail11BasicResultINS1_10ParseStateEEC2EOS4_
FN:8930,_ZN5Catch5clara6detail11BasicResultINS1_10ParseStateEEaSEOS4_
FN:8930,_ZN5Catch5clara6detail11BasicResultIvEC2EOS3_
FN:8933,_ZN5Catch5clara6detail11BasicResultINS1_10ParseStateEEC2INS1_15ParseResultTypeEEERKNS2_IT_EE
FN:8933,_ZN5Catch5clara6detail11BasicResultINS1_10ParseStateEEC2IvEERKNS2_IT_EE
FN:8941,_ZN5Catch5clara6detail11BasicResultINS1_10ParseStateEE2okIS3_EES4_RKT_
FN:8941,_ZN5Catch5clara6detail11BasicResultINS1_15ParseResultTypeEE2okIS3_EES4_RKT_
FN:8942,_ZN5Catch5clara6detail11BasicResultIvE2okEv
FN:8943,_ZN5Catch5clara6detail11BasicResultIvE10logicErrorERKNSt7__cxx1112basic_stringIcSt11char_traitsIcESaIcEEE
FN:8944,_ZN5Catch5clara6detail11BasicResultINS1_15ParseResultTypeEE12runtimeErrorERKNSt7__cxx1112basic_stringIcSt11char_traitsIcESaIcEEE
FN:8944,_ZN5Catch5clara6detail11BasicResultINS1_10ParseStateEE12runtimeErrorERKNSt7__cxx1112basic_stringIcSt11char_traitsIcESaIcEEE
FN:8946,_ZNK5Catch5clara6detail11BasicResultINS1_15ParseResultTypeEEcvbEv
FN:8946,_ZNK5Catch5clara6detail11BasicResultIvEcvbEv
FN:8946,_ZNK5Catch5clara6detail11BasicResultINS1_10ParseStateEEcvbEv
FN:8947,_ZNK5Catch5clara6detail11BasicResultIvE4typeEv
FN:8947,_ZNK5Catch5clara6detail11BasicResultINS1_10ParseStateEE4typeEv
FN:8947,_ZNK5Catch5clara6detail11BasicResultINS1_15ParseResultTypeEE4typeEv
FN:8948,_ZNK5Catch5clara6detail11BasicResultIvE12errorMessageB5cxx11Ev
FN:8948,_ZNK5Catch5clara6detail11BasicResultINS1_15ParseResultTypeEE12errorMessageB5cxx11Ev
FN:8948,_ZNK5Catch5clara6detail11BasicResultINS1_10ParseStateEE12errorMessageB5cxx11Ev
FN:8951,_ZNK5Catch5clara6detail11BasicResultINS1_15ParseResultTypeEE9enforceOkEv
FN:8951,_ZNK5Catch5clara6detail11BasicResultINS1_10ParseStateEE9enforceOkEv
FN:8951,_ZNK5Catch5clara6detail11BasicResultIvE9enforceOkEv
FN:8963,_ZN5Catch5clara6detail11BasicResultINS1_10ParseStateEEC2ENS1_10ResultBase4TypeERKNSt7__cxx1112basic_stringIcSt11char_traitsIcESaIcEEE
FN:8963,_ZN5Catch5clara6detail11BasicResultIvEC2ENS1_10ResultBase4TypeERKNSt7__cxx1112basic_stringIcSt11char_traitsIcESaIcEEE
FN:8963,_ZN5Catch5clara6detail11BasicResultINS1_15ParseResultTypeEEC2ENS1_10ResultBase4TypeERKNSt7__cxx1112basic_stringIcSt11char_traitsIcESaIcEEE
FN:8970,_ZN5Catch5clara6detail11BasicResultINS1_10ParseStateEECI2NS1_15ResultValueBaseIS3_EEENS1_10ResultBase4TypeERKS3_
FN:8970,_ZN5Catch5clara6detail11BasicResultINS1_15ParseResultTypeEECI2NS1_15ResultValueBaseIS3_EEENS1_10ResultBase4TypeERKS3_
FN:8970,_ZN5Catch5clara6detail11BasicResultIvECI2NS1_10ResultBaseEENS4_4TypeE
FN:8978,_ZN5Catch5clara6detail10ParseStateC2ERKS2_
FN:8978,_ZN5Catch5clara6detail10ParseStateD2Ev
FN:8981,_ZN5Catch5clara6detail10ParseStateC2ENS1_15ParseResultTypeERKNS1_11TokenStreamE
FN:8986,_ZNK5Catch5clara6detail10ParseState4typeEv
FN:8987,_ZNK5Catch5clara6detail10ParseState15remainingTokensEv
FN:8998,_ZN5Catch5clara6detail11HelpColumnsD2Ev
FN:8998,_ZN5Catch5clara6detail11HelpColumnsC2ERKS2_
FN:8998,_ZN5Catch5clara6detail11HelpColumnsaSEOS2_
FN:8998,_ZN5Catch5clara6detail11HelpColumnsC2EOS2_
FN:8998,_ZN5Catch5clara6detail11HelpColumnsaSERKS2_
FN:9004,_ZN5Catch5clara6detail11convertIntoIdEENS1_11BasicResultINS1_15ParseResultTypeEEERKNSt7__cxx1112basic_stringIcSt11char_traitsIcESaIcEEERT_
FN:9004,_ZN5Catch5clara6detail11convertIntoIjEENS1_11BasicResultINS1_15ParseResultTypeEEERKNSt7__cxx1112basic_stringIcSt11char_traitsIcESaIcEEERT_
FN:9004,_ZN5Catch5clara6detail11convertIntoIiEENS1_11BasicResultINS1_15ParseResultTypeEEERKNSt7__cxx1112basic_stringIcSt11char_traitsIcESaIcEEERT_
FN:9013,_ZN5Catch5clara6detail11convertIntoERKNSt7__cxx1112basic_stringIcSt11char_traitsIcESaIcEEERS7_
FN:9017,_ZN5Catch5clara6detail11convertIntoERKNSt7__cxx1112basic_stringIcSt11char_traitsIcESaIcEEERb
FN:9019,_ZZN5Catch5clara6detail11convertIntoERKNSt7__cxx1112basic_stringIcSt11char_traitsIcESaIcEEERbENUlcE_4_FUNEc
FN:9019,_ZZN5Catch5clara6detail11convertIntoERKNSt7__cxx1112basic_stringIcSt11char_traitsIcESaIcEEERbENKUlcE_clEc
FN:9047,_ZN5Catch5clara6detail8BoundRefC2Ev
FN:9048,_ZN5Catch5clara6detail8BoundRefD2Ev
FN:9048,_ZN5Catch5clara6detail8BoundRefD0Ev
FN:9049,_ZNK5Catch5clara6detail8BoundRef11isContainerEv
FN:9050,_ZNK5Catch5clara6detail8BoundRef6isFlagEv
FN:9052,_ZN5Catch5clara6detail17BoundValueRefBaseD2Ev
FN:9052,_ZN5Catch5clara6detail17BoundValueRefBaseD0Ev
FN:9052,_ZN5Catch5clara6detail17BoundValueRefBaseC2Ev
FN:9055,_ZN5Catch5clara6detail16BoundFlagRefBaseC2Ev
FN:9055,_ZN5Catch5clara6detail16BoundFlagRefBaseD0Ev
FN:9055,_ZN5Catch5clara6detail16BoundFlagRefBaseD2Ev
FN:9057,_ZNK5Catch5clara6detail16BoundFlagRefBase6isFlagEv
FN:9061,_ZN5Catch5clara6detail13BoundValueRefIjED2Ev
FN:9061,_ZN5Catch5clara6detail13BoundValueRefINSt7__cxx1112basic_stringIcSt11char_traitsIcESaIcEEEED2Ev
FN:9061,_ZN5Catch5clara6detail13BoundValueRefIdED0Ev
FN:9061,_ZN5Catch5clara6detail13BoundValueRefIdED2Ev
FN:9061,_ZN5Catch5clara6detail13BoundValueRefINSt7__cxx1112basic_stringIcSt11char_traitsIcESaIcEEEED0Ev
FN:9061,_ZN5Catch5clara6detail13BoundValueRefIjED0Ev
FN:9064,_ZN5Catch5clara6detail13BoundValueRefIjEC2ERj
FN:9064,_ZN5Catch5clara6detail13BoundValueRefINSt7__cxx1112basic_stringIcSt11char_traitsIcESaIcEEEEC2ERS8_
FN:9064,_ZN5Catch5clara6detail13BoundValueRefIdEC2ERd
FN:9066,_ZN5Catch5clara6detail13BoundValueRefIjE8setValueERKNSt7__cxx1112basic_stringIcSt11char_traitsIcESaIcEEE
FN:9066,_ZN5Catch5clara6detail13BoundValueRefINSt7__cxx1112basic_stringIcSt11char_traitsIcESaIcEEEE8setValueERKS8_
FN:9066,_ZN5Catch5clara6detail13BoundValueRefIdE8setValueERKNSt7__cxx1112basic_stringIcSt11char_traitsIcESaIcEEE
FN:9072,_ZN5Catch5clara6detail13BoundValueRefISt6vectorINSt7__cxx1112basic_stringIcSt11char_traitsIcESaIcEEESaIS9_EEED0Ev
FN:9072,_ZN5Catch5clara6detail13BoundValueRefISt6vectorINSt7__cxx1112basic_stringIcSt11char_traitsIcESaIcEEESaIS9_EEED2Ev
FN:9075,_ZN5Catch5clara6detail13BoundValueRefISt6vectorINSt7__cxx1112basic_stringIcSt11char_traitsIcESaIcEEESaIS9_EEEC2ERSB_
FN:9077,_ZNK5Catch5clara6detail13BoundValueRefISt6vectorINSt7__cxx1112basic_stringIcSt11char_traitsIcESaIcEEESaIS9_EEE11isContainerEv
FN:9079,_ZN5Catch5clara6detail13BoundValueRefISt6vectorINSt7__cxx1112basic_stringIcSt11char_traitsIcESaIcEEESaIS9_EEE8setValueERKS9_
FN:9088,_ZN5Catch5clara6detail12BoundFlagRefD2Ev
FN:9088,_ZN5Catch5clara6detail12BoundFlagRefD0Ev
FN:9091,_ZN5Catch5clara6detail12BoundFlagRefC2ERb
FN:9093,_ZN5Catch5clara6detail12BoundFlagRef7setFlagEb
FN:9104,_ZN5Catch5clara6detail13LambdaInvokerINS1_11BasicResultINS1_15ParseResultTypeEEEE6invokeIZNS1_4HelpC4ERbEUlbE_bEES5_RKT_RKT0_
FN:9104,_ZN5Catch5clara6detail13LambdaInvokerINS1_11BasicResultINS1_15ParseResultTypeEEEE6invokeIZNS_21makeCommandLineParserERNS_10ConfigDataEEUlRKNSt7__cxx1112basic_stringIcSt11char_traitsIcESaIcEEEE6_SF_EES5_RKT_RKT0_
FN:9104,_ZN5Catch5clara6detail13LambdaInvokerINS1_11BasicResultINS1_15ParseResultTypeEEEE6invokeIZNS_21makeCommandLineParserERNS_10ConfigDataEEUlRKNSt7__cxx1112basic_stringIcSt11char_traitsIcESaIcEEEE_SF_EES5_RKT_RKT0_
FN:9104,_ZN5Catch5clara6detail13LambdaInvokerINS1_11BasicResultINS1_15ParseResultTypeEEEE6invokeIZNS_21makeCommandLineParserERNS_10ConfigDataEEUlRKNSt7__cxx1112basic_stringIcSt11char_traitsIcESaIcEEEE2_SF_EES5_RKT_RKT0_
FN:9104,_ZN5Catch5clara6detail13LambdaInvokerINS1_11BasicResultINS1_15ParseResultTypeEEEE6invokeIZNS_21makeCommandLineParserERNS_10ConfigDataEEUlRKNSt7__cxx1112basic_stringIcSt11char_traitsIcESaIcEEEE5_SF_EES5_RKT_RKT0_
FN:9104,_ZN5Catch5clara6detail13LambdaInvokerINS1_11BasicResultINS1_15ParseResultTypeEEEE6invokeIZNS_21makeCommandLineParserERNS_10ConfigDataEEUlRKNSt7__cxx1112basic_stringIcSt11char_traitsIcESaIcEEEE1_SF_EES5_RKT_RKT0_
FN:9104,_ZN5Catch5clara6detail13LambdaInvokerINS1_11BasicResultINS1_15ParseResultTypeEEEE6invokeIZNS_21makeCommandLineParserERNS_10ConfigDataEEUlRKNSt7__cxx1112basic_stringIcSt11char_traitsIcESaIcEEEE0_SF_EES5_RKT_RKT0_
FN:9104,_ZN5Catch5clara6detail13LambdaInvokerINS1_11BasicResultINS1_15ParseResultTypeEEEE6invokeIZNS_21makeCommandLineParserERNS_10ConfigDataEEUlRKNSt7__cxx1112basic_stringIcSt11char_traitsIcESaIcEEEE3_SF_EES5_RKT_RKT0_
FN:9104,_ZN5Catch5clara6detail13LambdaInvokerINS1_11BasicResultINS1_15ParseResultTypeEEEE6invokeIZNS_21makeCommandLineParserERNS_10ConfigDataEEUlRKNSt7__cxx1112basic_stringIcSt11char_traitsIcESaIcEEEE4_SF_EES5_RKT_RKT0_
FN:9112,_ZN5Catch5clara6detail13LambdaInvokerIvE6invokeIZNS_21makeCommandLineParserERNS_10ConfigDataEEUlbE7_bEENS1_11BasicResultINS1_15ParseResultTypeEEERKT_RKT0_
FN:9112,_ZN5Catch5clara6detail13LambdaInvokerIvE6invokeIZNS_21makeCommandLineParserERNS_10ConfigDataEEUlbE9_bEENS1_11BasicResultINS1_15ParseResultTypeEEERKT_RKT0_
FN:9112,_ZN5Catch5clara6detail13LambdaInvokerIvE6invokeIZNS_21makeCommandLineParserERNS_10ConfigDataEEUliE8_iEENS1_11BasicResultINS1_15ParseResultTypeEEERKT_RKT0_
FN:9119,_ZN5Catch5clara6detail12invokeLambdaINSt7__cxx1112basic_stringIcSt11char_traitsIcESaIcEEEZNS_21makeCommandLineParserERNS_10ConfigDataEEUlRKS8_E5_EENS1_11BasicResultINS1_15ParseResultTypeEEERKT0_SC_
FN:9119,_ZN5Catch5clara6detail12invokeLambdaINSt7__cxx1112basic_stringIcSt11char_traitsIcESaIcEEEZNS_21makeCommandLineParserERNS_10ConfigDataEEUlRKS8_E0_EENS1_11BasicResultINS1_15ParseResultTypeEEERKT0_SC_
FN:9119,_ZN5Catch5clara6detail12invokeLambdaINSt7__cxx1112basic_stringIcSt11char_traitsIcESaIcEEEZNS_21makeCommandLineParserERNS_10ConfigDataEEUlRKS8_E4_EENS1_11BasicResultINS1_15ParseResultTypeEEERKT0_SC_
FN:9119,_ZN5Catch5clara6detail12invokeLambdaIbZNS_21makeCommandLineParserERNS_10ConfigDataEEUlbE9_EENS1_11BasicResultINS1_15ParseResultTypeEEERKT0_RKNSt7__cxx1112basic_stringIcSt11char_traitsIcESaIcEEE
FN:9119,_ZN5Catch5clara6detail12invokeLambdaINSt7__cxx1112basic_stringIcSt11char_traitsIcESaIcEEEZNS_21makeCommandLineParserERNS_10ConfigDataEEUlRKS8_E2_EENS1_11BasicResultINS1_15ParseResultTypeEEERKT0_SC_
FN:9119,_ZN5Catch5clara6detail12invokeLambdaIiZNS_21makeCommandLineParserERNS_10ConfigDataEEUliE8_EENS1_11BasicResultINS1_15ParseResultTypeEEERKT0_RKNSt7__cxx1112basic_stringIcSt11char_traitsIcESaIcEEE
FN:9119,_ZN5Catch5clara6detail12invokeLambdaINSt7__cxx1112basic_stringIcSt11char_traitsIcESaIcEEEZNS_21makeCommandLineParserERNS_10ConfigDataEEUlRKS8_E6_EENS1_11BasicResultINS1_15ParseResultTypeEEERKT0_SC_
FN:9119,_ZN5Catch5clara6detail12invokeLambdaINSt7__cxx1112basic_stringIcSt11char_traitsIcESaIcEEEZNS_21makeCommandLineParserERNS_10ConfigDataEEUlRKS8_E3_EENS1_11BasicResultINS1_15ParseResultTypeEEERKT0_SC_
FN:9119,_ZN5Catch5clara6detail12invokeLambdaINSt7__cxx1112basic_stringIcSt11char_traitsIcESaIcEEEZNS_21makeCommandLineParserERNS_10ConfigDataEEUlRKS8_E_EENS1_11BasicResultINS1_15ParseResultTypeEEERKT0_SC_
FN:9119,_ZN5Catch5clara6detail12invokeLambdaINSt7__cxx1112basic_stringIcSt11char_traitsIcESaIcEEEZNS_21makeCommandLineParserERNS_10ConfigDataEEUlRKS8_E1_EENS1_11BasicResultINS1_15ParseResultTypeEEERKT0_SC_
FN:9128,_ZN5Catch5clara6detail11BoundLambdaIZNS_21makeCommandLineParserERNS_10ConfigDataEEUlRKNSt7__cxx1112basic_stringIcSt11char_traitsIcESaIcEEEE6_ED2Ev
FN:9128,_ZN5Catch5clara6detail11BoundLambdaIZNS_21makeCommandLineParserERNS_10ConfigDataEEUlRKNSt7__cxx1112basic_stringIcSt11char_traitsIcESaIcEEEE1_ED2Ev
FN:9128,_ZN5Catch5clara6detail11BoundLambdaIZNS_21makeCommandLineParserERNS_10ConfigDataEEUlRKNSt7__cxx1112basic_stringIcSt11char_traitsIcESaIcEEEE2_ED0Ev
FN:9128,_ZN5Catch5clara6detail11BoundLambdaIZNS_21makeCommandLineParserERNS_10ConfigDataEEUlRKNSt7__cxx1112basic_stringIcSt11char_traitsIcESaIcEEEE3_ED0Ev
FN:9128,_ZN5Catch5clara6detail11BoundLambdaIZNS_21makeCommandLineParserERNS_10ConfigDataEEUlRKNSt7__cxx1112basic_stringIcSt11char_traitsIcESaIcEEEE4_ED2Ev
FN:9128,_ZN5Catch5clara6detail11BoundLambdaIZNS_21makeCommandLineParserERNS_10ConfigDataEEUlRKNSt7__cxx1112basic_stringIcSt11char_traitsIcESaIcEEEE2_ED2Ev
FN:9128,_ZN5Catch5clara6detail11BoundLambdaIZNS_21makeCommandLineParserERNS_10ConfigDataEEUlRKNSt7__cxx1112basic_stringIcSt11char_traitsIcESaIcEEEE6_ED0Ev
FN:9128,_ZN5Catch5clara6detail11BoundLambdaIZNS_21makeCommandLineParserERNS_10ConfigDataEEUlRKNSt7__cxx1112basic_stringIcSt11char_traitsIcESaIcEEEE4_ED0Ev
FN:9128,_ZN5Catch5clara6detail11BoundLambdaIZNS_21makeCommandLineParserERNS_10ConfigDataEEUlRKNSt7__cxx1112basic_stringIcSt11char_traitsIcESaIcEEEE3_ED2Ev
FN:9128,_ZN5Catch5clara6detail11BoundLambdaIZNS_21makeCommandLineParserERNS_10ConfigDataEEUlRKNSt7__cxx1112basic_stringIcSt11char_traitsIcESaIcEEEE5_ED0Ev
FN:9128,_ZN5Catch5clara6detail11BoundLambdaIZNS_21makeCommandLineParserERNS_10ConfigDataEEUlRKNSt7__cxx1112basic_stringIcSt11char_traitsIcESaIcEEEE0_ED2Ev
FN:9128,_ZN5Catch5clara6detail11BoundLambdaIZNS_21makeCommandLineParserERNS_10ConfigDataEEUlRKNSt7__cxx1112basic_stringIcSt11char_traitsIcESaIcEEEE_ED0Ev
FN:9128,_ZN5Catch5clara6detail11BoundLambdaIZNS_21makeCommandLineParserERNS_10ConfigDataEEUliE8_ED2Ev
FN:9128,_ZN5Catch5clara6detail11BoundLambdaIZNS_21makeCommandLineParserERNS_10ConfigDataEEUliE8_ED0Ev
FN:9128,_ZN5Catch5clara6detail11BoundLambdaIZNS_21makeCommandLineParserERNS_10ConfigDataEEUlbE9_ED0Ev
FN:9128,_ZN5Catch5clara6detail11BoundLambdaIZNS_21makeCommandLineParserERNS_10ConfigDataEEUlRKNSt7__cxx1112basic_stringIcSt11char_traitsIcESaIcEEEE5_ED2Ev
FN:9128,_ZN5Catch5clara6detail11BoundLambdaIZNS_21makeCommandLineParserERNS_10ConfigDataEEUlRKNSt7__cxx1112basic_stringIcSt11char_traitsIcESaIcEEEE_ED2Ev
FN:9128,_ZN5Catch5clara6detail11BoundLambdaIZNS_21makeCommandLineParserERNS_10ConfigDataEEUlRKNSt7__cxx1112basic_stringIcSt11char_traitsIcESaIcEEEE1_ED0Ev
FN:9128,_ZN5Catch5clara6detail11BoundLambdaIZNS_21makeCommandLineParserERNS_10ConfigDataEEUlRKNSt7__cxx1112basic_stringIcSt11char_traitsIcESaIcEEEE0_ED0Ev
FN:9128,_ZN5Catch5clara6detail11BoundLambdaIZNS_21makeCommandLineParserERNS_10ConfigDataEEUlbE9_ED2Ev
FN:9132,_ZN5Catch5clara6detail11BoundLambdaIZNS_21makeCommandLineParserERNS_10ConfigDataEEUlRKNSt7__cxx1112basic_stringIcSt11char_traitsIcESaIcEEEE0_EC2ERKSD_
FN:9132,_ZN5Catch5clara6detail11BoundLambdaIZNS_21makeCommandLineParserERNS_10ConfigDataEEUlRKNSt7__cxx1112basic_stringIcSt11char_traitsIcESaIcEEEE4_EC2ERKSD_
FN:9132,_ZN5Catch5clara6detail11BoundLambdaIZNS_21makeCommandLineParserERNS_10ConfigDataEEUliE8_EC2ERKS5_
FN:9132,_ZN5Catch5clara6detail11BoundLambdaIZNS_21makeCommandLineParserERNS_10ConfigDataEEUlRKNSt7__cxx1112basic_stringIcSt11char_traitsIcESaIcEEEE6_EC2ERKSD_
FN:9132,_ZN5Catch5clara6detail11BoundLambdaIZNS_21makeCommandLineParserERNS_10ConfigDataEEUlRKNSt7__cxx1112basic_stringIcSt11char_traitsIcESaIcEEEE2_EC2ERKSD_
FN:9132,_ZN5Catch5clara6detail11BoundLambdaIZNS_21makeCommandLineParserERNS_10ConfigDataEEUlRKNSt7__cxx1112basic_stringIcSt11char_traitsIcESaIcEEEE3_EC2ERKSD_
FN:9132,_ZN5Catch5clara6detail11BoundLambdaIZNS_21makeCommandLineParserERNS_10ConfigDataEEUlRKNSt7__cxx1112basic_stringIcSt11char_traitsIcESaIcEEEE1_EC2ERKSD_
FN:9132,_ZN5Catch5clara6detail11BoundLambdaIZNS_21makeCommandLineParserERNS_10ConfigDataEEUlbE9_EC2ERKS5_
FN:9132,_ZN5Catch5clara6detail11BoundLambdaIZNS_21makeCommandLineParserERNS_10ConfigDataEEUlRKNSt7__cxx1112basic_stringIcSt11char_traitsIcESaIcEEEE5_EC2ERKSD_
FN:9132,_ZN5Catch5clara6detail11BoundLambdaIZNS_21makeCommandLineParserERNS_10ConfigDataEEUlRKNSt7__cxx1112basic_stringIcSt11char_traitsIcESaIcEEEE_EC2ERKSD_
FN:9134,_ZN5Catch5clara6detail11BoundLambdaIZNS_21makeCommandLineParserERNS_10ConfigDataEEUlRKNSt7__cxx1112basic_stringIcSt11char_traitsIcESaIcEEEE6_E8setValueESC_
FN:9134,_ZN5Catch5clara6detail11BoundLambdaIZNS_21makeCommandLineParserERNS_10ConfigDataEEUlRKNSt7__cxx1112basic_stringIcSt11char_traitsIcESaIcEEEE3_E8setValueESC_
FN:9134,_ZN5Catch5clara6detail11BoundLambdaIZNS_21makeCommandLineParserERNS_10ConfigDataEEUlbE9_E8setValueERKNSt7__cxx1112basic_stringIcSt11char_traitsIcESaIcEEE
FN:9134,_ZN5Catch5clara6detail11BoundLambdaIZNS_21makeCommandLineParserERNS_10ConfigDataEEUlRKNSt7__cxx1112basic_stringIcSt11char_traitsIcESaIcEEEE5_E8setValueESC_
FN:9134,_ZN5Catch5clara6detail11BoundLambdaIZNS_21makeCommandLineParserERNS_10ConfigDataEEUlRKNSt7__cxx1112basic_stringIcSt11char_traitsIcESaIcEEEE1_E8setValueESC_
FN:9134,_ZN5Catch5clara6detail11BoundLambdaIZNS_21makeCommandLineParserERNS_10ConfigDataEEUlRKNSt7__cxx1112basic_stringIcSt11char_traitsIcESaIcEEEE4_E8setValueESC_
FN:9134,_ZN5Catch5clara6detail11BoundLambdaIZNS_21makeCommandLineParserERNS_10ConfigDataEEUliE8_E8setValueERKNSt7__cxx1112basic_stringIcSt11char_traitsIcESaIcEEE
FN:9134,_ZN5Catch5clara6detail11BoundLambdaIZNS_21makeCommandLineParserERNS_10ConfigDataEEUlRKNSt7__cxx1112basic_stringIcSt11char_traitsIcESaIcEEEE0_E8setValueESC_
FN:9134,_ZN5Catch5clara6detail11BoundLambdaIZNS_21makeCommandLineParserERNS_10ConfigDataEEUlRKNSt7__cxx1112basic_stringIcSt11char_traitsIcESaIcEEEE2_E8setValueESC_
FN:9134,_ZN5Catch5clara6detail11BoundLambdaIZNS_21makeCommandLineParserERNS_10ConfigDataEEUlRKNSt7__cxx1112basic_stringIcSt11char_traitsIcESaIcEEEE_E8setValueESC_
FN:9140,_ZN5Catch5clara6detail15BoundFlagLambdaIZNS1_4HelpC4ERbEUlbE_ED0Ev
FN:9140,_ZN5Catch5clara6detail15BoundFlagLambdaIZNS_21makeCommandLineParserERNS_10ConfigDataEEUlbE7_ED0Ev
FN:9140,_ZN5Catch5clara6detail15BoundFlagLambdaIZNS_21makeCommandLineParserERNS_10ConfigDataEEUlbE7_ED2Ev
FN:9140,_ZN5Catch5clara6detail15BoundFlagLambdaIZNS1_4HelpC4ERbEUlbE_ED2Ev
FN:9146,_ZN5Catch5clara6detail15BoundFlagLambdaIZNS1_4HelpC4ERbEUlbE_EC2ERKS5_
FN:9146,_ZN5Catch5clara6detail15BoundFlagLambdaIZNS_21makeCommandLineParserERNS_10ConfigDataEEUlbE7_EC2ERKS5_
FN:9148,_ZN5Catch5clara6detail15BoundFlagLambdaIZNS_21makeCommandLineParserERNS_10ConfigDataEEUlbE7_E7setFlagEb
FN:9148,_ZN5Catch5clara6detail15BoundFlagLambdaIZNS1_4HelpC4ERbEUlbE_E7setFlagEb
FN:9157,_ZN5Catch5clara6detail10ParserBaseC2ERKS2_
FN:9157,_ZN5Catch5clara6detail10ParserBaseC2Ev
FN:9157,_ZN5Catch5clara6detail10ParserBaseaSERKS2_
FN:9159,_ZN5Catch5clara6detail10ParserBaseD0Ev
FN:9159,_ZN5Catch5clara6detail10ParserBaseD2Ev
FN:9160,_ZNK5Catch5clara6detail10ParserBase8validateEv
FN:9162,_ZNK5Catch5clara6detail10ParserBase11cardinalityEv
FN:9164,_ZNK5Catch5clara6detail10ParserBase5parseERKNS1_4ArgsE
FN:9170,_ZN5Catch5clara6detail20ComposableParserImplINS1_3OptEED2Ev
FN:9170,_ZN5Catch5clara6detail20ComposableParserImplINS1_3OptEEC2ERKS4_
FN:9170,_ZN5Catch5clara6detail20ComposableParserImplINS1_7ExeNameEEC2ERKS4_
FN:9170,_ZN5Catch5clara6detail20ComposableParserImplINS1_7ExeNameEEC2Ev
FN:9170,_ZN5Catch5clara6detail20ComposableParserImplINS1_7ExeNameEED0Ev
FN:9170,_ZN5Catch5clara6detail20ComposableParserImplINS1_3ArgEED2Ev
FN:9170,_ZN5Catch5clara6detail20ComposableParserImplINS1_3ArgEED0Ev
FN:9170,_ZN5Catch5clara6detail20ComposableParserImplINS1_3ArgEEC2EOS4_
FN:9170,_ZN5Catch5clara6detail20ComposableParserImplINS1_3ArgEEC2ERKS4_
FN:9170,_ZN5Catch5clara6detail20ComposableParserImplINS1_3ArgEEC2Ev
FN:9170,_ZN5Catch5clara6detail20ComposableParserImplINS1_3ArgEEaSERKS4_
FN:9170,_ZN5Catch5clara6detail20ComposableParserImplINS1_7ExeNameEED2Ev
FN:9170,_ZN5Catch5clara6detail20ComposableParserImplINS1_3OptEED0Ev
FN:9170,_ZN5Catch5clara6detail20ComposableParserImplINS1_3OptEEC2EOS4_
FN:9170,_ZN5Catch5clara6detail20ComposableParserImplINS1_7ExeNameEEaSERKS4_
FN:9170,_ZN5Catch5clara6detail20ComposableParserImplINS1_3OptEEC2Ev
FN:9170,_ZN5Catch5clara6detail20ComposableParserImplINS1_3OptEEaSERKS4_
FN:9170,_ZN5Catch5clara6detail20ComposableParserImplINS1_7ExeNameEEaSEOS4_
FN:9181,_ZN5Catch5clara6detail13ParserRefImplINS1_3OptEEaSERKS4_
FN:9181,_ZN5Catch5clara6detail13ParserRefImplINS1_3ArgEEC2EOS4_
FN:9181,_ZN5Catch5clara6detail13ParserRefImplINS1_3OptEED0Ev
FN:9181,_ZN5Catch5clara6detail13ParserRefImplINS1_3OptEEC2ERKS4_
FN:9181,_ZN5Catch5clara6detail13ParserRefImplINS1_3ArgEED2Ev
FN:9181,_ZN5Catch5clara6detail13ParserRefImplINS1_3ArgEEC2ERKS4_
FN:9181,_ZN5Catch5clara6detail13ParserRefImplINS1_3OptEED2Ev
FN:9181,_ZN5Catch5clara6detail13ParserRefImplINS1_3ArgEEaSERKS4_
FN:9181,_ZN5Catch5clara6detail13ParserRefImplINS1_3OptEEC2EOS4_
FN:9181,_ZN5Catch5clara6detail13ParserRefImplINS1_3ArgEED0Ev
FN:9188,_ZN5Catch5clara6detail13ParserRefImplINS1_3OptEEC2ERKSt10shared_ptrINS1_8BoundRefEE
FN:9192,_ZN5Catch5clara6detail13ParserRefImplINS1_3ArgEEC2ISt6vectorINSt7__cxx1112basic_stringIcSt11char_traitsIcESaIcEEESaISC_EEEERT_RKSC_
FN:9192,_ZN5Catch5clara6detail13ParserRefImplINS1_3OptEEC2IdEERT_RKNSt7__cxx1112basic_stringIcSt11char_traitsIcESaIcEEE
FN:9192,_ZN5Catch5clara6detail13ParserRefImplINS1_3OptEEC2ISt6vectorINSt7__cxx1112basic_stringIcSt11char_traitsIcESaIcEEESaISC_EEEERT_RKSC_
FN:9192,_ZN5Catch5clara6detail13ParserRefImplINS1_3OptEEC2IjEERT_RKNSt7__cxx1112basic_stringIcSt11char_traitsIcESaIcEEE
FN:9192,_ZN5Catch5clara6detail13ParserRefImplINS1_3OptEEC2INSt7__cxx1112basic_stringIcSt11char_traitsIcESaIcEEEEERT_RKSB_
FN:9198,_ZN5Catch5clara6detail13ParserRefImplINS1_3OptEEC2IZNS_21makeCommandLineParserERNS_10ConfigDataEEUlRKNSt7__cxx1112basic_stringIcSt11char_traitsIcESaIcEEEE6_EERKT_SF_
FN:9198,_ZN5Catch5clara6detail13ParserRefImplINS1_3OptEEC2IZNS_21makeCommandLineParserERNS_10ConfigDataEEUlRKNSt7__cxx1112basic_stringIcSt11char_traitsIcESaIcEEEE5_EERKT_SF_
FN:9198,_ZN5Catch5clara6detail13ParserRefImplINS1_3OptEEC2IZNS_21makeCommandLineParserERNS_10ConfigDataEEUlRKNSt7__cxx1112basic_stringIcSt11char_traitsIcESaIcEEEE1_EERKT_SF_
FN:9198,_ZN5Catch5clara6detail13ParserRefImplINS1_3OptEEC2IZNS_21makeCommandLineParserERNS_10ConfigDataEEUliE8_EERKT_RKNSt7__cxx1112basic_stringIcSt11char_traitsIcESaIcEEE
FN:9198,_ZN5Catch5clara6detail13ParserRefImplINS1_3OptEEC2IZNS_21makeCommandLineParserERNS_10ConfigDataEEUlRKNSt7__cxx1112basic_stringIcSt11char_traitsIcESaIcEEEE2_EERKT_SF_
FN:9198,_ZN5Catch5clara6detail13ParserRefImplINS1_3OptEEC2IZNS_21makeCommandLineParserERNS_10ConfigDataEEUlRKNSt7__cxx1112basic_stringIcSt11char_traitsIcESaIcEEEE4_EERKT_SF_
FN:9198,_ZN5Catch5clara6detail13ParserRefImplINS1_3OptEEC2IZNS_21makeCommandLineParserERNS_10ConfigDataEEUlRKNSt7__cxx1112basic_stringIcSt11char_traitsIcESaIcEEEE3_EERKT_SF_
FN:9198,_ZN5Catch5clara6detail13ParserRefImplINS1_3OptEEC2IZNS_21makeCommandLineParserERNS_10ConfigDataEEUlbE9_EERKT_RKNSt7__cxx1112basic_stringIcSt11char_traitsIcESaIcEEE
FN:9198,_ZN5Catch5clara6detail13ParserRefImplINS1_3OptEEC2IZNS_21makeCommandLineParserERNS_10ConfigDataEEUlRKNSt7__cxx1112basic_stringIcSt11char_traitsIcESaIcEEEE0_EERKT_SF_
FN:9198,_ZN5Catch5clara6detail13ParserRefImplINS1_3OptEEC2IZNS_21makeCommandLineParserERNS_10ConfigDataEEUlRKNSt7__cxx1112basic_stringIcSt11char_traitsIcESaIcEEEE_EERKT_SF_
FN:9203,_ZN5Catch5clara6detail13ParserRefImplINS1_3ArgEEclERKNSt7__cxx1112basic_stringIcSt11char_traitsIcESaIcEEE
FN:9203,_ZN5Catch5clara6detail13ParserRefImplINS1_3OptEEclERKNSt7__cxx1112basic_stringIcSt11char_traitsIcESaIcEEE
FN:9208,_ZN5Catch5clara6detail13ParserRefImplINS1_3OptEE8optionalEv
FN:9218,_ZNK5Catch5clara6detail13ParserRefImplINS1_3ArgEE10isOptionalEv
FN:9222,_ZNK5Catch5clara6detail13ParserRefImplINS1_3ArgEE11cardinalityEv
FN:9222,_ZNK5Catch5clara6detail13ParserRefImplINS1_3OptEE11cardinalityEv
FN:9229,_ZNK5Catch5clara6detail13ParserRefImplINS1_3ArgEE4hintB5cxx11Ev
FN:9232,_ZN5Catch5clara6detail7ExeNameD2Ev
FN:9232,_ZN5Catch5clara6detail7ExeNameaSERKS2_
FN:9232,_ZN5Catch5clara6detail7ExeNameC2ERKS2_
FN:9232,_ZN5Catch5clara6detail7ExeNameD0Ev
FN:9232,_ZN5Catch5clara6detail7ExeNameaSEOS2_
FN:9242,_ZN5Catch5clara6detail7ExeNameC2Ev
FN:9244,_ZN5Catch5clara6detail7ExeNameC2ERNSt7__cxx1112basic_stringIcSt11char_traitsIcESaIcEEE
FN:9254,_ZNK5Catch5clara6detail7ExeName5parseERKNSt7__cxx1112basic_stringIcSt11char_traitsIcESaIcEEERKNS1_11TokenStreamE
FN:9258,_ZNK5Catch5clara6detail7ExeName4nameB5cxx11Ev
FN:9259,_ZN5Catch5clara6detail7ExeName3setERKNSt7__cxx1112basic_stringIcSt11char_traitsIcESaIcEEE
FN:9274,_ZN5Catch5clara6detail3ArgaSERKS2_
FN:9274,_ZN5Catch5clara6detail3ArgC2EOS2_
FN:9274,_ZN5Catch5clara6detail3ArgD2Ev
FN:9274,_ZN5Catch5clara6detail3ArgC2ERKS2_
FN:9274,_ZN5Catch5clara6detail3ArgD0Ev
FN:9276,_ZN5Catch5clara6detail3ArgCI2NS1_13ParserRefImplIS2_EEISt6vectorINSt7__cxx1112basic_stringIcSt11char_traitsIcESaIcEEESaISC_EEEERT_RKSC_
FN:9278,_ZNK5Catch5clara6detail3Arg5parseERKNSt7__cxx1112basic_stringIcSt11char_traitsIcESaIcEEERKNS1_11TokenStreamE
FN:9299,_ZN5Catch5clara6detail12normaliseOptERKNSt7__cxx1112basic_stringIcSt11char_traitsIcESaIcEEE
FN:9308,_ZN5Catch5clara6detail3OptaSERKS2_
FN:9308,_ZN5Catch5clara6detail3OptC2ERKS2_
FN:9308,_ZN5Catch5clara6detail3OptD2Ev
FN:9308,_ZN5Catch5clara6detail3OptC2EOS2_
FN:9308,_ZN5Catch5clara6detail3OptD0Ev
FN:9314,_ZN5Catch5clara6detail3OptC2IZNS1_4HelpC4ERbEUlbE_EERKT_
FN:9314,_ZN5Catch5clara6detail3OptC2IZNS_21makeCommandLineParserERNS_10ConfigDataEEUlbE7_EERKT_
FN:9316,_ZN5Catch5clara6detail3OptC2ERb
FN:9319,_ZN5Catch5clara6detail3OptC2IZNS_21makeCommandLineParserERNS_10ConfigDataEEUliE8_EERKT_RKNSt7__cxx1112basic_stringIcSt11char_traitsIcESaIcEEE
FN:9319,_ZN5Catch5clara6detail3OptC2IZNS_21makeCommandLineParserERNS_10ConfigDataEEUlRKNSt7__cxx1112basic_stringIcSt11char_traitsIcESaIcEEEE2_EERKT_SD_
FN:9319,_ZN5Catch5clara6detail3OptC2IZNS_21makeCommandLineParserERNS_10ConfigDataEEUlRKNSt7__cxx1112basic_stringIcSt11char_traitsIcESaIcEEEE_EERKT_SD_
FN:9319,_ZN5Catch5clara6detail3OptC2IZNS_21makeCommandLineParserERNS_10ConfigDataEEUlbE9_EERKT_RKNSt7__cxx1112basic_stringIcSt11char_traitsIcESaIcEEE
FN:9319,_ZN5Catch5clara6detail3OptC2IZNS_21makeCommandLineParserERNS_10ConfigDataEEUlRKNSt7__cxx1112basic_stringIcSt11char_traitsIcESaIcEEEE6_EERKT_SD_
FN:9319,_ZN5Catch5clara6detail3OptC2IZNS_21makeCommandLineParserERNS_10ConfigDataEEUlRKNSt7__cxx1112basic_stringIcSt11char_traitsIcESaIcEEEE4_EERKT_SD_
FN:9319,_ZN5Catch5clara6detail3OptC2IZNS_21makeCommandLineParserERNS_10ConfigDataEEUlRKNSt7__cxx1112basic_stringIcSt11char_traitsIcESaIcEEEE5_EERKT_SD_
FN:9319,_ZN5Catch5clara6detail3OptC2IZNS_21makeCommandLineParserERNS_10ConfigDataEEUlRKNSt7__cxx1112basic_stringIcSt11char_traitsIcESaIcEEEE1_EERKT_SD_
FN:9319,_ZN5Catch5clara6detail3OptC2IZNS_21makeCommandLineParserERNS_10ConfigDataEEUlRKNSt7__cxx1112basic_stringIcSt11char_traitsIcESaIcEEEE0_EERKT_SD_
FN:9319,_ZN5Catch5clara6detail3OptC2IZNS_21makeCommandLineParserERNS_10ConfigDataEEUlRKNSt7__cxx1112basic_stringIcSt11char_traitsIcESaIcEEEE3_EERKT_SD_
FN:9322,_ZN5Catch5clara6detail3OptC2IdEERT_RKNSt7__cxx1112basic_stringIcSt11char_traitsIcESaIcEEE
FN:9322,_ZN5Catch5clara6detail3OptC2ISt6vectorINSt7__cxx1112basic_stringIcSt11char_traitsIcESaIcEEESaISA_EEEERT_RKSA_
FN:9322,_ZN5Catch5clara6detail3OptC2IjEERT_RKNSt7__cxx1112basic_stringIcSt11char_traitsIcESaIcEEE
FN:9322,_ZN5Catch5clara6detail3OptC2INSt7__cxx1112basic_stringIcSt11char_traitsIcESaIcEEEEERT_RKS9_
FN:9324,_ZN5Catch5clara6detail3OptixERKNSt7__cxx1112basic_stringIcSt11char_traitsIcESaIcEEE
FN:9329,_ZNK5Catch5clara6detail3Opt14getHelpColumnsEv
FN:9344,_ZNK5Catch5clara6detail3Opt7isMatchERKNSt7__cxx1112basic_stringIcSt11char_traitsIcESaIcEEE
FN:9355,_ZNK5Catch5clara6detail3Opt5parseERKNSt7__cxx1112basic_stringIcSt11char_traitsIcESaIcEEERKNS1_11TokenStreamE
FN:9391,_ZNK5Catch5clara6detail3Opt8validateEv
FN:9409,_ZN5Catch5clara6detail4HelpD2Ev
FN:9409,_ZN5Catch5clara6detail4HelpD0Ev
FN:9410,_ZN5Catch5clara6detail4HelpC2ERb
FN:9411,_ZZN5Catch5clara6detail4HelpC4ERbENKUlbE_clEb
FN:9423,_ZN5Catch5clara6detail6ParserC2Ev
FN:9423,_ZN5Catch5clara6detail6ParserD0Ev
FN:9423,_ZN5Catch5clara6detail6ParserC2ERKS2_
FN:9423,_ZN5Catch5clara6detail6ParseraSEOS2_
FN:9423,_ZN5Catch5clara6detail6ParserD2Ev
FN:9423,_ZN5Catch5clara6detail6ParseraSERKS2_
FN:9429,_ZN5Catch5clara6detail6ParseroRERKNS1_7ExeNameE
FN:9434,_ZN5Catch5clara6detail6ParseroRERKNS1_3ArgE
FN:9439,_ZN5Catch5clara6detail6ParseroRERKNS1_3OptE
FN:9451,_ZNK5Catch5clara6detail6ParserorINS1_4HelpEEES2_RKT_
FN:9451,_ZNK5Catch5clara6detail6ParserorINS1_7ExeNameEEES2_RKT_
FN:9451,_ZNK5Catch5clara6detail6ParserorINS1_3ArgEEES2_RKT_
FN:9451,_ZNK5Catch5clara6detail6ParserorINS1_3OptEEES2_RKT_
FN:9461,_ZNK5Catch5clara6detail6Parser14getHelpColumnsEv
FN:9470,_ZNK5Catch5clara6detail6Parser13writeToStreamERSo
FN:9511,_ZN5Catch5clara6detaillsERSoRKNS1_6ParserE
FN:9516,_ZNK5Catch5clara6detail6Parser8validateEv
FN:9532,_ZNK5Catch5clara6detail6Parser5parseERKNSt7__cxx1112basic_stringIcSt11char_traitsIcESaIcEEERKNS1_11TokenStreamE
FN:9581,_ZNK5Catch5clara6detail20ComposableParserImplINS1_7ExeNameEEorINS1_4HelpEEENS1_6ParserERKT_
FN:9636,_ZN5Catch21makeCommandLineParserERNS_10ConfigDataE
FN:9640,_ZZN5Catch21makeCommandLineParserERNS_10ConfigDataEENKUlRKNSt7__cxx1112basic_stringIcSt11char_traitsIcESaIcEEEE_clES9_
FN:9641,_ZZZN5Catch21makeCommandLineParserERNS_10ConfigDataEENKUlRKNSt7__cxx1112basic_stringIcSt11char_traitsIcESaIcEEEE_clES9_ENKUlvE_clEv
FN:9656,_ZZN5Catch21makeCommandLineParserERNS_10ConfigDataEENKUlRKNSt7__cxx1112basic_stringIcSt11char_traitsIcESaIcEEEE0_clES9_
FN:9678,_ZZN5Catch21makeCommandLineParserERNS_10ConfigDataEENKUlRKNSt7__cxx1112basic_stringIcSt11char_traitsIcESaIcEEEE1_clES9_
FN:9689,_ZZN5Catch21makeCommandLineParserERNS_10ConfigDataEENKUlRKNSt7__cxx1112basic_stringIcSt11char_traitsIcESaIcEEEE2_clES9_
FN:9695,_ZZN5Catch21makeCommandLineParserERNS_10ConfigDataEENKUlRKNSt7__cxx1112basic_stringIcSt11char_traitsIcESaIcEEEE3_clES9_
FN:9708,_ZZN5Catch21makeCommandLineParserERNS_10ConfigDataEENKUlRKNSt7__cxx1112basic_stringIcSt11char_traitsIcESaIcEEEE4_clES9_
FN:9720,_ZZN5Catch21makeCommandLineParserERNS_10ConfigDataEENKUlRKNSt7__cxx1112basic_stringIcSt11char_traitsIcESaIcEEEE5_clES9_
FN:9732,_ZZN5Catch21makeCommandLineParserERNS_10ConfigDataEENKUlRKNSt7__cxx1112basic_stringIcSt11char_traitsIcESaIcEEEE6_clES9_
FN:9775,_ZZN5Catch21makeCommandLineParserERNS_10ConfigDataEENKUlbE7_clEb
FN:9778,_ZZN5Catch21makeCommandLineParserERNS_10ConfigDataEENKUliE8_clEi
FN:9784,_ZZN5Catch21makeCommandLineParserERNS_10ConfigDataEENKUlbE9_clEb
FN:9847,_ZNK5Catch14SourceLineInfoeqERKS0_
FN:9850,_ZNK5Catch14SourceLineInfoltERKS0_
FN:9856,_ZN5CatchlsERSoRKNS_14SourceLineInfoE
FN:9865,_ZNK5Catch13StreamEndStoppsB5cxx11Ev
FN:9878,_ZN5Catch6ConfigC2ERKNS_10ConfigDataE
FN:9903,_ZNK5Catch6Config11getFilenameB5cxx11Ev
FN:9907,_ZNK5Catch6Config9listTestsEv
FN:9908,_ZNK5Catch6Config17listTestNamesOnlyEv
FN:9909,_ZNK5Catch6Config8listTagsEv
FN:9910,_ZNK5Catch6Config13listReportersEv
FN:9912,_ZNK5Catch6Config14getProcessNameB5cxx11Ev
FN:9913,_ZNK5Catch6Config15getReporterNameB5cxx11Ev
FN:9915,_ZNK5Catch6Config14getTestsOrTagsB5cxx11Ev
FN:9916,_ZNK5Catch6Config16getSectionsToRunB5cxx11Ev
FN:9918,_ZNK5Catch6Config8testSpecEv
FN:9919,_ZNK5Catch6Config14hasTestFiltersEv
FN:9921,_ZNK5Catch6Config8showHelpEv
FN:9924,_ZNK5Catch6Config11allowThrowsEv
FN:9925,_ZNK5Catch6Config6streamEv
FN:9926,_ZNK5Catch6Config4nameB5cxx11Ev
FN:9927,_ZNK5Catch6Config24includeSuccessfulResultsEv
FN:9928,_ZNK5Catch6Config26warnAboutMissingAssertionsEv
FN:9929,_ZNK5Catch6Config16warnAboutNoTestsEv
FN:9930,_ZNK5Catch6Config13showDurationsEv
FN:9931,_ZNK5Catch6Config8runOrderEv
FN:9932,_ZNK5Catch6Config7rngSeedEv
FN:9933,_ZNK5Catch6Config9useColourEv
FN:9934,_ZNK5Catch6Config16shouldDebugBreakEv
FN:9935,_ZNK5Catch6Config10abortAfterEv
FN:9936,_ZNK5Catch6Config14showInvisiblesEv
FN:9937,_ZNK5Catch6Config9verbosityEv
FN:9939,_ZNK5Catch6Config19benchmarkNoAnalysisEv
FN:9940,_ZNK5Catch6Config16benchmarkSamplesEv
FN:9941,_ZNK5Catch6Config27benchmarkConfidenceIntervalEv
FN:9942,_ZNK5Catch6Config18benchmarkResamplesEv
FN:9944,_ZN5Catch6Config10openStreamEv
FN:9978,_ZN5Catch12_GLOBAL__N_111IColourImplD2Ev
FN:9982,_ZN5Catch12_GLOBAL__N_112NoColourImplD0Ev
FN:9982,_ZN5Catch12_GLOBAL__N_112NoColourImplD2Ev
FN:9983,_ZN5Catch12_GLOBAL__N_112NoColourImpl3useENS_6Colour4CodeE
FN:9985,_ZN5Catch12_GLOBAL__N_112NoColourImpl8instanceEv
FN:10078,_ZN5Catch12_GLOBAL__N_115PosixColourImplD2Ev
FN:10078,_ZN5Catch12_GLOBAL__N_115PosixColourImplD0Ev
FN:10080,_ZN5Catch12_GLOBAL__N_115PosixColourImpl3useENS_6Colour4CodeE
FN:10101,_ZN5Catch12_GLOBAL__N_115PosixColourImpl8instanceEv
FN:10107,_ZN5Catch12_GLOBAL__N_115PosixColourImpl9setColourEPKc
FN:10113,_ZN5Catch12_GLOBAL__N_119useColourOnPlatformEv
FN:10125,_ZN5Catch12_GLOBAL__N_122platformColourInstanceEv
FN:10155,_ZN5Catch6ColourC2ENS0_4CodeE
FN:10156,_ZN5Catch6ColourC2EOS0_
FN:10160,_ZN5Catch6ColouraSEOS0_
FN:10166,_ZN5Catch6ColourD2Ev
FN:10168,_ZN5Catch6Colour3useENS0_4CodeE
FN:10179,_ZN5CatchlsERSoRKNS_6ColourE
FN:10194,_ZN5Catch7ContextC2Ev
FN:10194,_ZN5Catch7ContextD2Ev
FN:10194,_ZN5Catch7ContextD0Ev
FN:10197,_ZN5Catch7Context16getResultCaptureEv
FN:10200,_ZN5Catch7Context9getRunnerEv
FN:10204,_ZNK5Catch7Context9getConfigEv
FN:10211,_ZN5Catch7Context16setResultCaptureEPNS_14IResultCaptureE
FN:10214,_ZN5Catch7Context9setRunnerEPNS_7IRunnerE
FN:10217,_ZN5Catch7Context9setConfigERKSt10shared_ptrIKNS_7IConfigEE
FN:10231,_ZN5Catch15IMutableContext13createContextEv
FN:10236,_ZN5Catch14cleanUpContextEv
FN:10244,_ZN5Catch3rngEv
FN:10282,_ZN5Catch19writeToDebugConsoleERKNSt7__cxx1112basic_stringIcSt11char_traitsIcESaIcEEE
FN:10364,_ZN5Catch16isDebuggerActiveEv
FN:10408,_ZN5Catch29formatReconstructedExpressionERSoRKNSt7__cxx1112basic_stringIcSt11char_traitsIcESaIcEEENS_9StringRefES8_
FN:10433,_ZN5Catch17throw_logic_errorERKNSt7__cxx1112basic_stringIcSt11char_traitsIcESaIcEEE
FN:10438,_ZN5Catch18throw_domain_errorERKNSt7__cxx1112basic_stringIcSt11char_traitsIcESaIcEEE
FN:10443,_ZN5Catch19throw_runtime_errorERKNSt7__cxx1112basic_stringIcSt11char_traitsIcESaIcEEE
FN:10461,_ZN5Catch6Detail18EnumValuesRegistryD2Ev
FN:10461,_ZN5Catch6Detail18EnumValuesRegistryD0Ev
FN:10461,_ZN5Catch6Detail18EnumValuesRegistryC2Ev
FN:10481,_ZN5Catch26IMutableEnumValuesRegistryD2Ev
FN:10481,_ZN5Catch26IMutableEnumValuesRegistryD0Ev
FN:10488,_ZN5Catch6Detail12_GLOBAL__N_119extractInstanceNameENS_9StringRefE
FN:10498,_ZN5Catch6Detail10parseEnumsENS_9StringRefE
FN:10508,_ZN5Catch6Detail8EnumInfoD2Ev
FN:10510,_ZNK5Catch6Detail8EnumInfo6lookupEi
FN:10518,_ZN5Catch6Detail12makeEnumInfoENS_9StringRefES1_RKSt6vectorIiSaIiEE
FN:10532,_ZN5Catch6Detail18EnumValuesRegistry12registerEnumENS_9StringRefES2_RKSt6vectorIiSaIiEE
FN:10546,_ZN5Catch10ErrnoGuardC2Ev
FN:10547,_ZN5Catch10ErrnoGuardD2Ev
FN:10560,_ZN5Catch27ExceptionTranslatorRegistryC2Ev
FN:10579,_ZN5Catch27ExceptionTranslatorRegistryD0Ev
FN:10579,_ZN5Catch27ExceptionTranslatorRegistryD2Ev
FN:10582,_ZN5Catch27ExceptionTranslatorRegistry18registerTranslatorEPKNS_20IExceptionTranslatorE
FN:10587,_ZNK5Catch27ExceptionTranslatorRegistry24translateActiveExceptionB5cxx11Ev
FN:10629,_ZNK5Catch27ExceptionTranslatorRegistry14tryTranslatorsB5cxx11Ev
FN:10660,_ZN12_GLOBAL__N_111reportFatalEPKc
FN:10746,_ZN5Catch21FatalConditionHandler12handleSignalEi
FN:10759,_ZN5Catch21FatalConditionHandlerC2Ev
FN:10775,_ZN5Catch21FatalConditionHandlerD2Ev
FN:10779,_ZN5Catch21FatalConditionHandler5resetEv
FN:10817,_ZN5Catch17IGeneratorTrackerD2Ev
FN:10817,_ZN5Catch17IGeneratorTrackerD0Ev
FN:10819,_ZNK5Catch18GeneratorException4whatEv
FN:10825,_ZN5Catch10Generators20GeneratorUntypedBaseD0Ev
FN:10825,_ZN5Catch10Generators20GeneratorUntypedBaseD2Ev
FN:10827,_ZN5Catch10Generators23acquireGeneratorTrackerERKNS_14SourceLineInfoE
FN:10866,_ZN5Catch17ListeningReporterD2Ev
FN:10866,_ZN5Catch17ListeningReporterD0Ev
FN:10918,_ZN5Catch14ReporterConfigC2ERKSt10shared_ptrIKNS_7IConfigEE
FN:10921,_ZN5Catch14ReporterConfigC2ERKSt10shared_ptrIKNS_7IConfigEERSo
FN:10924,_ZNK5Catch14ReporterConfig6streamEv
FN:10925,_ZNK5Catch14ReporterConfig10fullConfigEv
FN:10927,_ZN5Catch11TestRunInfoC2ERKNSt7__cxx1112basic_stringIcSt11char_traitsIcESaIcEEE
FN:10929,_ZN5Catch9GroupInfoC2ERKNSt7__cxx1112basic_stringIcSt11char_traitsIcESaIcEEEmm
FN:10937,_ZN5Catch14AssertionStatsC2ERKNS_15AssertionResultERKSt6vectorINS_11MessageInfoESaIS5_EERKNS_6TotalsE
FN:10959,_ZN5Catch12SectionStatsC2ERKNS_11SectionInfoERKNS_6CountsEdb
FN:10971,_ZN5Catch13TestCaseStatsC2ERKNS_12TestCaseInfoERKNS_6TotalsERKNSt7__cxx1112basic_stringIcSt11char_traitsIcESaIcEEESE_b
FN:10985,_ZN5Catch14TestGroupStatsC2ERKNS_9GroupInfoERKNS_6TotalsEb
FN:10993,_ZN5Catch14TestGroupStatsC2ERKNS_9GroupInfoE
FN:11000,_ZN5Catch12TestRunStatsC2ERKNS_11TestRunInfoERKNS_6TotalsEb
FN:11010,_ZN5Catch18IStreamingReporter21fatalErrorEncounteredENS_9StringRefE
FN:11011,_ZNK5Catch18IStreamingReporter7isMultiEv
FN:11052,_ZN5Catch12LeakDetectorC2Ev
FN:11056,_ZN5Catch12LeakDetectorD2Ev
FN:11072,_ZN5Catch7TagInfoD2Ev
FN:11072,_ZN5Catch7TagInfoC2EOS0_
FN:11072,_ZN5Catch7TagInfoC2Ev
FN:11102,_ZN5Catch9listTestsERKNS_6ConfigE
FN:11136,_ZN5Catch18listTestsNamesOnlyERKNS_6ConfigE
FN:11153,_ZN5Catch7TagInfo3addERKNSt7__cxx1112basic_stringIcSt11char_traitsIcESaIcEEE
FN:11158,_ZNK5Catch7TagInfo3allB5cxx11Ev
FN:11174,_ZN5Catch8listTagsERKNS_6ConfigE
FN:11209,_ZN5Catch13listReportersEv
FN:11231,_ZN5Catch4listERKSt10shared_ptrINS_6ConfigEE
FN:11253,_ZNK5Catch8Matchers4Impl18MatcherUntypedBase8toStringB5cxx11Ev
FN:11275,_ZNK5Catch8Matchers9Exception23ExceptionMessageMatcher5matchERKSt9exception
FN:11279,_ZNK5Catch8Matchers9Exception23ExceptionMessageMatcher8describeB5cxx11Ev
FN:11284,_ZN5Catch8Matchers7MessageERKNSt7__cxx1112basic_stringIcSt11char_traitsIcESaIcEEE
FN:11333,_ZN5Catch12_GLOBAL__N_17convertEf
FN:11340,_ZN5Catch12_GLOBAL__N_17convertEd
FN:11348,_ZN5Catch12_GLOBAL__N_115almostEqualUlpsIfEEbT_S2_m
FN:11348,_ZN5Catch12_GLOBAL__N_115almostEqualUlpsIdEEbT_S2_m
FN:11398,_ZN5Catch12_GLOBAL__N_14stepIfEET_S2_S2_m
FN:11398,_ZN5Catch12_GLOBAL__N_14stepIdEET_S2_S2_m
FN:11411,_ZN5Catch12_GLOBAL__N_116marginComparisonEddd
FN:11416,_ZN5Catch12_GLOBAL__N_15writeIdEEvRSoT_
FN:11416,_ZN5Catch12_GLOBAL__N_15writeIfEEvRSoT_
FN:11432,_ZN5Catch8Matchers8Floating16WithinAbsMatcherC2Edd
FN:11440,_ZNK5Catch8Matchers8Floating16WithinAbsMatcher5matchERKd
FN:11444,_ZNK5Catch8Matchers8Floating16WithinAbsMatcher8describeB5cxx11Ev
FN:11448,_ZN5Catch8Matchers8Floating17WithinUlpsMatcherC2EdmNS1_17FloatingPointKindE
FN:11461,_ZNK5Catch8Matchers8Floating17WithinUlpsMatcher5matchERKd
FN:11476,_ZNK5Catch8Matchers8Floating17WithinUlpsMatcher8describeB5cxx11Ev
FN:11504,_ZN5Catch8Matchers8Floating16WithinRelMatcherC2Edd
FN:11511,_ZNK5Catch8Matchers8Floating16WithinRelMatcher5matchERKd
FN:11517,_ZNK5Catch8Matchers8Floating16WithinRelMatcher8describeB5cxx11Ev
FN:11525,_ZN5Catch8Matchers9WithinULPEdm
FN:11529,_ZN5Catch8Matchers9WithinULPEfm
FN:11533,_ZN5Catch8Matchers9WithinAbsEdd
FN:11537,_ZN5Catch8Matchers9WithinRelEdd
FN:11541,_ZN5Catch8Matchers9WithinRelEd
FN:11545,_ZN5Catch8Matchers9WithinRelEff
FN:11549,_ZN5Catch8Matchers9WithinRelEf
FN:11559,_ZN5Catch8Matchers7Generic6Detail19finalizeDescriptionERKNSt7__cxx1112basic_stringIcSt11char_traitsIcESaIcEEE
FN:11576,_ZN5Catch8Matchers9StdString11CasedStringC2ERKNSt7__cxx1112basic_stringIcSt11char_traitsIcESaIcEEENS_13CaseSensitive6ChoiceE
FN:11580,_ZNK5Catch8Matchers9StdString11CasedString12adjustStringERKNSt7__cxx1112basic_stringIcSt11char_traitsIcESaIcEEE
FN:11585,_ZNK5Catch8Matchers9StdString11CasedString21caseSensitivitySuffixB5cxx11Ev
FN:11591,_ZN5Catch8Matchers9StdString17StringMatcherBaseC2ERKNSt7__cxx1112basic_stringIcSt11char_traitsIcESaIcEEERKNS1_11CasedStringE
FN:11596,_ZNK5Catch8Matchers9StdString17StringMatcherBase8describeB5cxx11Ev
FN:11608,_ZN5Catch8Matchers9StdString13EqualsMatcherC2ERKNS1_11CasedStringE
FN:11610,_ZNK5Catch8Matchers9StdString13EqualsMatcher5matchERKNSt7__cxx1112basic_stringIcSt11char_traitsIcESaIcEEE
FN:11614,_ZN5Catch8Matchers9StdString15ContainsMatcherC2ERKNS1_11CasedStringE
FN:11616,_ZNK5Catch8Matchers9StdString15ContainsMatcher5matchERKNSt7__cxx1112basic_stringIcSt11char_traitsIcESaIcEEE
FN:11620,_ZN5Catch8Matchers9StdString17StartsWithMatcherC2ERKNS1_11CasedStringE
FN:11622,_ZNK5Catch8Matchers9StdString17StartsWithMatcher5matchERKNSt7__cxx1112basic_stringIcSt11char_traitsIcESaIcEEE
FN:11626,_ZN5Catch8Matchers9StdString15EndsWithMatcherC2ERKNS1_11CasedStringE
FN:11628,_ZNK5Catch8Matchers9StdString15EndsWithMatcher5matchERKNSt7__cxx1112basic_stringIcSt11char_traitsIcESaIcEEE
FN:11632,_ZN5Catch8Matchers9StdString12RegexMatcherC2ENSt7__cxx1112basic_stringIcSt11char_traitsIcESaIcEEENS_13CaseSensitive6ChoiceE
FN:11634,_ZNK5Catch8Matchers9StdString12RegexMatcher5matchERKNSt7__cxx1112basic_stringIcSt11char_traitsIcESaIcEEE
FN:11643,_ZNK5Catch8Matchers9StdString12RegexMatcher8describeB5cxx11Ev
FN:11649,_ZN5Catch8Matchers6EqualsERKNSt7__cxx1112basic_stringIcSt11char_traitsIcESaIcEEENS_13CaseSensitive6ChoiceE
FN:11652,_ZN5Catch8Matchers8ContainsERKNSt7__cxx1112basic_stringIcSt11char_traitsIcESaIcEEENS_13CaseSensitive6ChoiceE
FN:11655,_ZN5Catch8Matchers8EndsWithERKNSt7__cxx1112basic_stringIcSt11char_traitsIcESaIcEEENS_13CaseSensitive6ChoiceE
FN:11658,_ZN5Catch8Matchers10StartsWithERKNSt7__cxx1112basic_stringIcSt11char_traitsIcESaIcEEENS_13CaseSensitive6ChoiceE
FN:11662,_ZN5Catch8Matchers7MatchesERKNSt7__cxx1112basic_stringIcSt11char_traitsIcESaIcEEENS_13CaseSensitive6ChoiceE
FN:11683,_ZN5Catch11MessageInfoC2ERKNS_9StringRefERKNS_14SourceLineInfoENS_9ResultWas6OfTypeE
FN:11692,_ZNK5Catch11MessageInfoeqERKS0_
FN:11696,_ZNK5Catch11MessageInfoltERKS0_
FN:11705,_ZN5Catch14MessageBuilderC2ERKNS_9StringRefERKNS_14SourceLineInfoENS_9ResultWas6OfTypeE
FN:11712,_ZN5Catch13ScopedMessageC2ERKNS_14MessageBuilderE
FN:11719,_ZN5Catch13ScopedMessageC2EOS0_
FN:11725,_ZN5Catch13ScopedMessageD2Ev
FN:11731,_ZN5Catch8CapturerC2ENS_9StringRefERKNS_14SourceLineInfoENS_9ResultWas6OfTypeES1_
FN:11732,_ZZN5Catch8CapturerC4ENS_9StringRefERKNS_14SourceLineInfoENS_9ResultWas6OfTypeES1_ENKUlmmE_clEmm
FN:11741,_ZZN5Catch8CapturerC4ENS_9StringRefERKNS_14SourceLineInfoENS_9ResultWas6OfTypeES1_ENKUlmcE0_clEmc
FN:11788,_ZN5Catch8CapturerD2Ev
FN:11796,_ZN5Catch8Capturer12captureValueEmRKNSt7__cxx1112basic_stringIcSt11char_traitsIcESaIcEEE
FN:11827,_ZN5Catch16RedirectedStdOutD2Ev
FN:11838,_ZN5Catch16RedirectedStdErrD2Ev
FN:11933,_ZN5Catch16RedirectedStreamC2ERSoS1_
FN:11941,_ZN5Catch16RedirectedStreamD2Ev
FN:11945,_ZN5Catch16RedirectedStdOutC2Ev
FN:11946,_ZNK5Catch16RedirectedStdOut3strB5cxx11Ev
FN:11948,_ZN5Catch16RedirectedStdErrC2Ev
FN:11952,_ZNK5Catch16RedirectedStdErr3strB5cxx11Ev
FN:11954,_ZN5Catch17RedirectedStreamsC2ERNSt7__cxx1112basic_stringIcSt11char_traitsIcESaIcEEES7_
FN:11959,_ZN5Catch17RedirectedStreamsD2Ev
FN:12057,_ZN5Catch5isnanEf
FN:12060,_ZN5Catch5isnanEd
FN:12086,_ZN5Catch12_GLOBAL__N_112rotate_rightEjj
FN:12098,_ZN5Catch11SimplePcg32C2Ej
FN:12102,_ZN5Catch11SimplePcg324seedEj
FN:12109,_ZN5Catch11SimplePcg327discardEm
FN:12117,_ZN5Catch11SimplePcg32clEv
FN:12128,_ZN5CatcheqERKNS_11SimplePcg32ES2_
FN:12132,_ZN5CatchneERKNS_11SimplePcg32ES2_
FN:12161,_ZN5Catch12TestRegistryC2Ev
FN:12163,_ZN5Catch12TestRegistryD2Ev
FN:12163,_ZN5Catch12TestRegistryD0Ev
FN:12180,_ZN5Catch21TestInvokerAsFunctionD2Ev
FN:12180,_ZN5Catch21TestInvokerAsFunctionD0Ev
FN:12201,_ZN5Catch16ReporterRegistryD2Ev
FN:12201,_ZN5Catch16ReporterRegistryD0Ev
FN:12201,_ZN5Catch16ReporterRegistryC2Ev
FN:12230,_ZN5Catch8TagAliasD2Ev
FN:12230,_ZN5Catch8TagAliasC2EOS0_
FN:12244,_ZN5Catch16TagAliasRegistryC2Ev
FN:12265,_ZN5Catch24StartupExceptionRegistryC2Ev
FN:12265,_ZN5Catch24StartupExceptionRegistryD2Ev
FN:12280,_ZN5Catch10ISingletonC2Ev
FN:12288,_ZN5Catch9SingletonINS_13StringStreamsES1_S1_ED2Ev
FN:12288,_ZN5Catch9SingletonINS_12_GLOBAL__N_111RegistryHubENS_12IRegistryHubENS_19IMutableRegistryHubEED2Ev
FN:12288,_ZN5Catch9SingletonINS_12_GLOBAL__N_111RegistryHubENS_12IRegistryHubENS_19IMutableRegistryHubEED0Ev
FN:12288,_ZN5Catch9SingletonINS_13StringStreamsES1_S1_EC2Ev
FN:12288,_ZN5Catch9SingletonINS_13StringStreamsES1_S1_ED0Ev
FN:12288,_ZN5Catch9SingletonINS_12_GLOBAL__N_111RegistryHubENS_12IRegistryHubENS_19IMutableRegistryHubEEC2Ev
FN:12290,_ZN5Catch9SingletonINS_13StringStreamsES1_S1_E11getInternalEv
FN:12290,_ZN5Catch9SingletonINS_12_GLOBAL__N_111RegistryHubENS_12IRegistryHubENS_19IMutableRegistryHubEE11getInternalEv
FN:12300,_ZN5Catch9SingletonINS_12_GLOBAL__N_111RegistryHubENS_12IRegistryHubENS_19IMutableRegistryHubEE3getEv
FN:12303,_ZN5Catch9SingletonINS_13StringStreamsES1_S1_E10getMutableEv
FN:12303,_ZN5Catch9SingletonINS_12_GLOBAL__N_111RegistryHubENS_12IRegistryHubENS_19IMutableRegistryHubEE10getMutableEv
FN:12315,_ZN5Catch12_GLOBAL__N_111RegistryHubD0Ev
FN:12315,_ZN5Catch12_GLOBAL__N_111RegistryHubD2Ev
FN:12319,_ZN5Catch12_GLOBAL__N_111RegistryHubC2Ev
FN:12320,_ZNK5Catch12_GLOBAL__N_111RegistryHub19getReporterRegistryEv
FN:12323,_ZNK5Catch12_GLOBAL__N_111RegistryHub19getTestCaseRegistryEv
FN:12326,_ZNK5Catch12_GLOBAL__N_111RegistryHub30getExceptionTranslatorRegistryEv
FN:12329,_ZNK5Catch12_GLOBAL__N_111RegistryHub19getTagAliasRegistryEv
FN:12332,_ZNK5Catch12_GLOBAL__N_111RegistryHub27getStartupExceptionRegistryEv
FN:12337,_ZN5Catch12_GLOBAL__N_111RegistryHub16registerReporterERKNSt7__cxx1112basic_stringIcSt11char_traitsIcESaIcEEERKSt10shared_ptrINS_16IReporterFactoryEE
FN:12340,_ZN5Catch12_GLOBAL__N_111RegistryHub16registerListenerERKSt10shared_ptrINS_16IReporterFactoryEE
FN:12343,_ZN5Catch12_GLOBAL__N_111RegistryHub12registerTestERKNS_8TestCaseE
FN:12346,_ZN5Catch12_GLOBAL__N_111RegistryHub18registerTranslatorEPKNS_20IExceptionTranslatorE
FN:12349,_ZN5Catch12_GLOBAL__N_111RegistryHub16registerTagAliasERKNSt7__cxx1112basic_stringIcSt11char_traitsIcESaIcEEES9_RKNS_14SourceLineInfoE
FN:12352,_ZN5Catch12_GLOBAL__N_111RegistryHub24registerStartupExceptionEv
FN:12355,_ZN5Catch12_GLOBAL__N_111RegistryHub28getMutableEnumValuesRegistryEv
FN:12371,_ZN5Catch14getRegistryHubEv
FN:12374,_ZN5Catch21getMutableRegistryHubEv
FN:12377,_ZN5Catch7cleanUpEv
FN:12381,_ZN5Catch24translateActiveExceptionB5cxx11Ev
FN:12393,_ZNK5Catch16ReporterRegistry6createERKNSt7__cxx1112basic_stringIcSt11char_traitsIcESaIcEEERKSt10shared_ptrIKNS_7IConfigEE
FN:12400,_ZN5Catch16ReporterRegistry16registerReporterERKNSt7__cxx1112basic_stringIcSt11char_traitsIcESaIcEEERKSt10shared_ptrINS_16IReporterFactoryEE
FN:12403,_ZN5Catch16ReporterRegistry16registerListenerERKSt10shared_ptrINS_16IReporterFactoryEE
FN:12407,_ZNK5Catch16ReporterRegistry12getFactoriesB5cxx11Ev
FN:12410,_ZNK5Catch16ReporterRegistry12getListenersEv
FN:12420,_ZN5Catch4isOkENS_9ResultWas6OfTypeE
FN:12423,_ZN5Catch10isJustInfoEi
FN:12427,_ZN5CatchorENS_17ResultDisposition5FlagsES1_
FN:12431,_ZN5Catch23shouldContinueOnFailureEi
FN:12432,_ZN5Catch21shouldSuppressFailureEi
FN:12448,_ZN5Catch10Generators16GeneratorTrackerC2ERKNS_16TestCaseTracking15NameAndLocationERNS2_14TrackerContextEPNS2_8ITrackerE
FN:12453,_ZN5Catch10Generators16GeneratorTracker7acquireERNS_16TestCaseTracking14TrackerContextERKNS2_15NameAndLocationE
FN:12475,_ZNK5Catch10Generators16GeneratorTracker18isGeneratorTrackerEv
FN:12476,_ZNK5Catch10Generators16GeneratorTracker12hasGeneratorEv
FN:12479,_ZN5Catch10Generators16GeneratorTracker5closeEv
FN:12489,_ZNK5Catch10Generators16GeneratorTracker12getGeneratorEv
FN:12492,_ZN5Catch10Generators16GeneratorTracker12setGeneratorEOSt10unique_ptrINS0_20GeneratorUntypedBaseESt14default_deleteIS3_EE
FN:12496,_ZN5Catch10Generators16GeneratorTrackerD2Ev
FN:12496,_ZN5Catch10Generators16GeneratorTrackerD0Ev
FN:12499,_ZN5Catch10RunContextC2ERKSt10shared_ptrIKNS_7IConfigEEOSt10unique_ptrINS_18IStreamingReporterESt14default_deleteIS8_EE
FN:12513,_ZN5Catch10RunContextD2Ev
FN:12513,_ZN5Catch10RunContextD0Ev
FN:12517,_ZN5Catch10RunContext17testGroupStartingERKNSt7__cxx1112basic_stringIcSt11char_traitsIcESaIcEEEmm
FN:12521,_ZN5Catch10RunContext14testGroupEndedERKNSt7__cxx1112basic_stringIcSt11char_traitsIcESaIcEEERKNS_6TotalsEmm
FN:12525,_ZN5Catch10RunContext7runTestERKNS_8TestCaseE
FN:12565,_ZNK5Catch10RunContext6configEv
FN:12569,_ZNK5Catch10RunContext8reporterEv
FN:12573,_ZN5Catch10RunContext14assertionEndedERKNS_15AssertionResultE
FN:12599,_ZN5Catch10RunContext18resetAssertionInfoEv
FN:12604,_ZN5Catch10RunContext14sectionStartedERKNS_11SectionInfoERNS_6CountsE
FN:12618,_ZN5Catch10RunContext23acquireGeneratorTrackerERKNS_14SourceLineInfoE
FN:12626,_ZN5Catch10RunContext24testForMissingAssertionsERNS_6CountsE
FN:12638,_ZN5Catch10RunContext12sectionEndedERKNS_14SectionEndInfoE
FN:12652,_ZN5Catch10RunContext17sectionEndedEarlyERKNS_14SectionEndInfoE
FN:12677,_ZN5Catch10RunContext17pushScopedMessageERKNS_11MessageInfoE
FN:12681,_ZN5Catch10RunContext16popScopedMessageERKNS_11MessageInfoE
FN:12685,_ZN5Catch10RunContext22emplaceUnscopedMessageERKNS_14MessageBuilderE
FN:12689,_ZNK5Catch10RunContext18getCurrentTestNameB5cxx11Ev
FN:12695,_ZNK5Catch10RunContext13getLastResultEv
FN:12699,_ZN5Catch10RunContext22exceptionEarlyReportedEv
FN:12703,_ZN5Catch10RunContext25handleFatalErrorConditionENS_9StringRefE
FN:12741,_ZN5Catch10RunContext19lastAssertionPassedEv
FN:12745,_ZN5Catch10RunContext15assertionPassedEv
FN:12752,_ZNK5Catch10RunContext8abortingEv
FN:12756,_ZN5Catch10RunContext14runCurrentTestERNSt7__cxx1112basic_stringIcSt11char_traitsIcESaIcEEES7_
FN:12807,_ZN5Catch10RunContext20invokeActiveTestCaseEv
FN:12813,_ZN5Catch10RunContext24handleUnfinishedSectionsEv
FN:12824,_ZN5Catch10RunContext10handleExprERKNS_13AssertionInfoERKNS_20ITransientExpressionERNS_17AssertionReactionE
FN:12847,_ZN5Catch10RunContext10reportExprERKNS_13AssertionInfoENS_9ResultWas6OfTypeEPKNS_20ITransientExpressionEb
FN:12862,_ZN5Catch10RunContext13handleMessageERKNS_13AssertionInfoENS_9ResultWas6OfTypeERKNS_9StringRefERNS_17AssertionReactionE
FN:12879,_ZN5Catch10RunContext34handleUnexpectedExceptionNotThrownERKNS_13AssertionInfoERNS_17AssertionReactionE
FN:12886,_ZN5Catch10RunContext33handleUnexpectedInflightExceptionERKNS_13AssertionInfoERKNSt7__cxx1112basic_stringIcSt11char_traitsIcESaIcEEERNS_17AssertionReactionE
FN:12900,_ZN5Catch10RunContext16populateReactionERNS_17AssertionReactionE
FN:12905,_ZN5Catch10RunContext16handleIncompleteERKNS_13AssertionInfoE
FN:12915,_ZN5Catch10RunContext13handleNonExprERKNS_13AssertionInfoENS_9ResultWas6OfTypeERNS_17AssertionReactionE
FN:12930,_ZN5Catch16getResultCaptureEv
FN:12937,_ZN5Catch7seedRngERKNS_7IConfigE
FN:12944,_ZN5Catch7rngSeedEv
FN:12954,_ZN5Catch7SectionC2ERKNS_11SectionInfoE
FN:12961,_ZN5Catch7SectionD0Ev
FN:12961,_ZN5Catch7SectionD2Ev
FN:12972,_ZNK5Catch7SectioncvbEv
FN:12982,_ZN5Catch11SectionInfoC2ERKNS_14SourceLineInfoERKNSt7__cxx1112basic_stringIcSt11char_traitsIcESaIcEEE
FN:13016,_ZN5Catch7Session3runIcEEiiPKPKT_
FN:13084,_ZN5Catch12_GLOBAL__N_114createReporterERKNSt7__cxx1112basic_stringIcSt11char_traitsIcESaIcEEERKSt10shared_ptrIKNS_7IConfigEE
FN:13091,_ZN5Catch12_GLOBAL__N_112makeReporterERKSt10shared_ptrINS_6ConfigEE
FN:13111,_ZN5Catch12_GLOBAL__N_19TestGroupD2Ev
FN:13113,_ZN5Catch12_GLOBAL__N_19TestGroupC2ERKSt10shared_ptrINS_6ConfigEE
FN:13131,_ZN5Catch12_GLOBAL__N_19TestGroup7executeEv
FN:13167,_ZN5Catch12_GLOBAL__N_120applyFilenamesAsTagsERKNS_7IConfigE
FN:13191,_ZN5Catch7SessionC2Ev
FN:13222,_ZN5Catch7SessionD0Ev
FN:13222,_ZN5Catch7SessionD2Ev
FN:13226,_ZNK5Catch7Session8showHelpEv
FN:13232,_ZN5Catch7Session11libIdentifyEv
FN:13240,_ZN5Catch7Session16applyCommandLineEiPKPKc
FN:13289,_ZN5Catch7Session13useConfigDataERKNS_10ConfigDataE
FN:13294,_ZN5Catch7Session3runEv
FN:13307,_ZNK5Catch7Session3cliEv
FN:13310,_ZN5Catch7Session3cliERKNS_5clara6detail6ParserE
FN:13313,_ZN5Catch7Session10configDataEv
FN:13316,_ZN5Catch7Session6configEv
FN:13322,_ZN5Catch7Session11runInternalEv
FN:13370,_ZN5Catch12_GLOBAL__N_1L13getSingletonsEv
FN:13378,_ZN5Catch10ISingletonD2Ev
FN:13378,_ZN5Catch10ISingletonD0Ev
FN:13380,_ZN5Catch12addSingletonEPNS_10ISingletonE
FN:13383,_ZN5Catch17cleanupSingletonsEv
FN:13396,_ZN5Catch24StartupExceptionRegistry3addERKNSt15__exception_ptr13exception_ptrE
FN:13405,_ZNK5Catch24StartupExceptionRegistry13getExceptionsEv
FN:13431,_ZN5Catch6Detail12_GLOBAL__N_113StreamBufImplINS1_17OutputDebugWriterELm256EEC2Ev
FN:13435,_ZN5Catch6Detail12_GLOBAL__N_113StreamBufImplINS1_17OutputDebugWriterELm256EED0Ev
FN:13435,_ZN5Catch6Detail12_GLOBAL__N_113StreamBufImplINS1_17OutputDebugWriterELm256EED2Ev
FN:13440,_ZN5Catch6Detail12_GLOBAL__N_113StreamBufImplINS1_17OutputDebugWriterELm256EE8overflowEi
FN:13452,_ZN5Catch6Detail12_GLOBAL__N_113StreamBufImplINS1_17OutputDebugWriterELm256EE4syncEv
FN:13465,_ZN5Catch6Detail12_GLOBAL__N_117OutputDebugWriterclERKNSt7__cxx1112basic_stringIcSt11char_traitsIcESaIcEEE
FN:13475,_ZN5Catch6Detail12_GLOBAL__N_110FileStreamC2ENS_9StringRefE
FN:13479,_ZN5Catch6Detail12_GLOBAL__N_110FileStreamD2Ev
FN:13479,_ZN5Catch6Detail12_GLOBAL__N_110FileStreamD0Ev
FN:13481,_ZNK5Catch6Detail12_GLOBAL__N_110FileStream6streamEv
FN:13493,_ZN5Catch6Detail12_GLOBAL__N_110CoutStreamC2Ev
FN:13494,_ZN5Catch6Detail12_GLOBAL__N_110CoutStreamD0Ev
FN:13494,_ZN5Catch6Detail12_GLOBAL__N_110CoutStreamD2Ev
FN:13497,_ZNK5Catch6Detail12_GLOBAL__N_110CoutStream6streamEv
FN:13506,_ZN5Catch6Detail12_GLOBAL__N_114DebugOutStreamC2Ev
FN:13511,_ZN5Catch6Detail12_GLOBAL__N_114DebugOutStreamD2Ev
FN:13511,_ZN5Catch6Detail12_GLOBAL__N_114DebugOutStreamD0Ev
FN:13514,_ZNK5Catch6Detail12_GLOBAL__N_114DebugOutStream6streamEv
FN:13521,_ZN5Catch10makeStreamERKNS_9StringRefE
FN:13535,_ZN5Catch13StringStreamsD2Ev
FN:13535,_ZN5Catch13StringStreamsC2Ev
FN:13540,_ZN5Catch13StringStreams3addEv
FN:13552,_ZN5Catch13StringStreams7releaseEm
FN:13558,_ZN5Catch20ReusableStringStreamC2Ev
FN:13563,_ZN5Catch20ReusableStringStreamD0Ev
FN:13563,_ZN5Catch20ReusableStringStreamD2Ev
FN:13569,_ZNK5Catch20ReusableStringStream3strB5cxx11Ev
FN:13576,_ZN5Catch4coutEv
FN:13577,_ZN5Catch4cerrEv
FN:13578,_ZN5Catch4clogEv
FN:13593,_ZN5Catch12_GLOBAL__N_19toLowerChEc
FN:13598,_ZN5Catch10startsWithERKNSt7__cxx1112basic_stringIcSt11char_traitsIcESaIcEEES7_
FN:13601,_ZN5Catch10startsWithERKNSt7__cxx1112basic_stringIcSt11char_traitsIcESaIcEEEc
FN:13604,_ZN5Catch8endsWithERKNSt7__cxx1112basic_stringIcSt11char_traitsIcESaIcEEES7_
FN:13607,_ZN5Catch8endsWithERKNSt7__cxx1112basic_stringIcSt11char_traitsIcESaIcEEEc
FN:13610,_ZN5Catch8containsERKNSt7__cxx1112basic_stringIcSt11char_traitsIcESaIcEEES7_
FN:13613,_ZN5Catch14toLowerInPlaceERNSt7__cxx1112basic_stringIcSt11char_traitsIcESaIcEEE
FN:13616,_ZN5Catch7toLowerERKNSt7__cxx1112basic_stringIcSt11char_traitsIcESaIcEEE
FN:13621,_ZN5Catch4trimERKNSt7__cxx1112basic_stringIcSt11char_traitsIcESaIcEEE
FN:13629,_ZN5Catch4trimENS_9StringRefE
FN:13630,_ZZN5Catch4trimENS_9StringRefEENKUlcE_clEc
FN:13641,_ZN5Catch14replaceInPlaceERNSt7__cxx1112basic_stringIcSt11char_traitsIcESaIcEEERKS5_S8_
FN:13655,_ZN5Catch14splitStringRefENS_9StringRefEc
FN:13670,_ZN5Catch9pluraliseC2EmRKNSt7__cxx1112basic_stringIcSt11char_traitsIcESaIcEEE
FN:13675,_ZN5CatchlsERSoRKNS_9pluraliseE
FN:13692,_ZN5Catch9StringRefC2EPKc
FN:13696,_ZNK5Catch9StringRef5c_strEv
FN:13700,_ZNK5Catch9StringRef4dataEv
FN:13704,_ZNK5Catch9StringRef6substrEmm
FN:13711,_ZNK5Catch9StringRefeqERKS0_
FN:13716,_ZN5CatchlsERSoRKNS_9StringRefE
FN:13720,_ZN5CatchpLERNSt7__cxx1112basic_stringIcSt11char_traitsIcESaIcEEERKNS_9StringRefE
FN:13730,_ZN5Catch8TagAliasC2ERKNSt7__cxx1112basic_stringIcSt11char_traitsIcESaIcEEENS_14SourceLineInfoE
FN:13737,_ZN5Catch22RegistrarForTagAliasesC2EPKcS2_RKNS_14SourceLineInfoE
FN:13754,_ZN5Catch16TagAliasRegistryD0Ev
FN:13754,_ZN5Catch16TagAliasRegistryD2Ev
FN:13756,_ZNK5Catch16TagAliasRegistry4findERKNSt7__cxx1112basic_stringIcSt11char_traitsIcESaIcEEE
FN:13764,_ZNK5Catch16TagAliasRegistry13expandAliasesERKNSt7__cxx1112basic_stringIcSt11char_traitsIcESaIcEEE
FN:13777,_ZN5Catch16TagAliasRegistry3addERKNSt7__cxx1112basic_stringIcSt11char_traitsIcESaIcEEES8_RKNS_14SourceLineInfoE
FN:13787,_ZN5Catch17ITagAliasRegistryD2Ev
FN:13787,_ZN5Catch17ITagAliasRegistryD0Ev
FN:13789,_ZN5Catch17ITagAliasRegistry3getEv
FN:13805,_ZN5Catch12_GLOBAL__N_115parseSpecialTagERKNSt7__cxx1112basic_stringIcSt11char_traitsIcESaIcEEE
FN:13822,_ZN5Catch12_GLOBAL__N_113isReservedTagERKNSt7__cxx1112basic_stringIcSt11char_traitsIcESaIcEEE
FN:13825,_ZN5Catch12_GLOBAL__N_121enforceNotReservedTagERKNSt7__cxx1112basic_stringIcSt11char_traitsIcESaIcEEERKNS_14SourceLineInfoE
FN:13833,_ZN5Catch12makeTestCaseEPNS_12ITestInvokerERKNSt7__cxx1112basic_stringIcSt11char_traitsIcESaIcEEERKNS_11NameAndTagsERKNS_14SourceLineInfoE
FN:13881,_ZN5Catch7setTagsERNS_12TestCaseInfoESt6vectorINSt7__cxx1112basic_stringIcSt11char_traitsIcESaIcEEESaIS8_EE
FN:13894,_ZN5Catch12TestCaseInfoC2ERKNSt7__cxx1112basic_stringIcSt11char_traitsIcESaIcEEES8_S8_RKSt6vectorIS6_SaIS6_EERKNS_14SourceLineInfoE
FN:13908,_ZNK5Catch12TestCaseInfo8isHiddenEv
FN:13911,_ZNK5Catch12TestCaseInfo6throwsEv
FN:13914,_ZNK5Catch12TestCaseInfo8okToFailEv
FN:13917,_ZNK5Catch12TestCaseInfo14expectedToFailEv
FN:13921,_ZNK5Catch12TestCaseInfo12tagsAsStringB5cxx11Ev
FN:13938,_ZN5Catch8TestCaseC2EPNS_12ITestInvokerEONS_12TestCaseInfoE
FN:13940,_ZNK5Catch8TestCase8withNameERKNSt7__cxx1112basic_stringIcSt11char_traitsIcESaIcEEE
FN:13946,_ZNK5Catch8TestCase6invokeEv
FN:13950,_ZNK5Catch8TestCaseeqERKS0_
FN:13956,_ZNK5Catch8TestCaseltERKS0_
FN:13960,_ZNK5Catch8TestCase15getTestCaseInfoEv
FN:13973,_ZN5Catch9sortTestsERKNS_7IConfigERKSt6vectorINS_8TestCaseESaIS4_EE
FN:13992,_ZN5Catch11isThrowSafeERKNS_8TestCaseERKNS_7IConfigE
FN:13996,_ZN5Catch9matchTestERKNS_8TestCaseERKNS_8TestSpecERKNS_7IConfigE
FN:14000,_ZN5Catch27enforceNoDuplicateTestCasesERKSt6vectorINS_8TestCaseESaIS1_EE
FN:14011,_ZN5Catch11filterTestsERKSt6vectorINS_8TestCaseESaIS1_EERKNS_8TestSpecERKNS_7IConfigE
FN:14022,_ZN5Catch21getAllTestCasesSortedERKNS_7IConfigE
FN:14026,_ZN5Catch12TestRegistry12registerTestERKNS_8TestCaseE
FN:14036,_ZNK5Catch12TestRegistry11getAllTestsEv
FN:14039,_ZNK5Catch12TestRegistry17getAllTestsSortedERKNS_7IConfigE
FN:14051,_ZN5Catch21TestInvokerAsFunctionC2EPFvvE
FN:14053,_ZNK5Catch21TestInvokerAsFunction6invokeEv
FN:14057,_ZN5Catch16extractClassNameB5cxx11ERKNS_9StringRefE
FN:14088,_ZN5Catch16TestCaseTracking15NameAndLocationC2ERKNSt7__cxx1112basic_stringIcSt11char_traitsIcESaIcEEERKNS_14SourceLineInfoE
FN:14095,_ZN5Catch16TestCaseTracking14TrackerContext8startRunEv
FN:14102,_ZN5Catch16TestCaseTracking14TrackerContext6endRunEv
FN:14108,_ZN5Catch16TestCaseTracking14TrackerContext10startCycleEv
FN:14112,_ZN5Catch16TestCaseTracking14TrackerContext13completeCycleEv
FN:14116,_ZNK5Catch16TestCaseTracking14TrackerContext14completedCycleEv
FN:14119,_ZN5Catch16TestCaseTracking14TrackerContext14currentTrackerEv
FN:14122,_ZN5Catch16TestCaseTracking14TrackerContext17setCurrentTrackerEPNS0_8ITrackerE
FN:14126,_ZN5Catch16TestCaseTracking11TrackerBaseC2ERKNS0_15NameAndLocationERNS0_14TrackerContextEPNS0_8ITrackerE
FN:14132,_ZNK5Catch16TestCaseTracking11TrackerBase15nameAndLocationEv
FN:14135,_ZNK5Catch16TestCaseTracking11TrackerBase10isCompleteEv
FN:14138,_ZNK5Catch16TestCaseTracking11TrackerBase23isSuccessfullyCompletedEv
FN:14141,_ZNK5Catch16TestCaseTracking11TrackerBase6isOpenEv
FN:14144,_ZNK5Catch16TestCaseTracking11TrackerBase11hasChildrenEv
FN:14148,_ZN5Catch16TestCaseTracking11TrackerBase8addChildERKSt10shared_ptrINS0_8ITrackerEE
FN:14152,_ZN5Catch16TestCaseTracking11TrackerBase9findChildERKNS0_15NameAndLocationE
FN:14154,_ZZN5Catch16TestCaseTracking11TrackerBase9findChildERKNS0_15NameAndLocationEENKUlRKSt10shared_ptrINS0_8ITrackerEEE_clES9_
FN:14163,_ZN5Catch16TestCaseTracking11TrackerBase6parentEv
FN:14168,_ZN5Catch16TestCaseTracking11TrackerBase9openChildEv
FN:14176,_ZNK5Catch16TestCaseTracking11TrackerBase16isSectionTrackerEv
FN:14177,_ZNK5Catch16TestCaseTracking11TrackerBase18isGeneratorTrackerEv
FN:14179,_ZN5Catch16TestCaseTracking11TrackerBase4openEv
FN:14186,_ZN5Catch16TestCaseTracking11TrackerBase5closeEv
FN:14200,_ZZN5Catch16TestCaseTracking11TrackerBase5closeEvENKUlRKSt10shared_ptrINS0_8ITrackerEEE_clES6_
FN:14215,_ZN5Catch16TestCaseTracking11TrackerBase4failEv
FN:14222,_ZN5Catch16TestCaseTracking11TrackerBase23markAsNeedingAnotherRunEv
FN:14226,_ZN5Catch16TestCaseTracking11TrackerBase12moveToParentEv
FN:14230,_ZN5Catch16TestCaseTracking11TrackerBase10moveToThisEv
FN:14234,_ZN5Catch16TestCaseTracking14SectionTrackerC2ERKNS0_15NameAndLocationERNS0_14TrackerContextEPNS0_8ITrackerE
FN:14247,_ZNK5Catch16TestCaseTracking14SectionTracker10isCompleteEv
FN:14257,_ZNK5Catch16TestCaseTracking14SectionTracker16isSectionTrackerEv
FN:14259,_ZN5Catch16TestCaseTracking14SectionTracker7acquireERNS0_14TrackerContextERKNS0_15NameAndLocationE
FN:14277,_ZN5Catch16TestCaseTracking14SectionTracker7tryOpenEv
FN:14282,_ZN5Catch16TestCaseTracking14SectionTracker17addInitialFiltersERKSt6vectorINSt7__cxx1112basic_stringIcSt11char_traitsIcESaIcEEESaIS8_EE
FN:14290,_ZN5Catch16TestCaseTracking14SectionTracker14addNextFiltersERKSt6vectorINSt7__cxx1112basic_stringIcSt11char_traitsIcESaIcEEESaIS8_EE
FN:14311,_ZN5Catch15makeTestInvokerEPFvvE
FN:14315,_ZN5Catch11NameAndTagsC2ERKNS_9StringRefES3_
FN:14317,_ZN5Catch7AutoRegC2EPNS_12ITestInvokerERKNS_14SourceLineInfoERKNS_9StringRefERKNS_11NameAndTagsE
FN:14344,_ZN5Catch8TestSpec7PatternC2ERKNSt7__cxx1112basic_stringIcSt11char_traitsIcESaIcEEE
FN:14350,_ZNK5Catch8TestSpec7Pattern4nameB5cxx11Ev
FN:14354,_ZN5Catch8TestSpec11NamePatternC2ERKNSt7__cxx1112basic_stringIcSt11char_traitsIcESaIcEEES9_
FN:14359,_ZNK5Catch8TestSpec11NamePattern7matchesERKNS_12TestCaseInfoE
FN:14363,_ZN5Catch8TestSpec10TagPatternC2ERKNSt7__cxx1112basic_stringIcSt11char_traitsIcESaIcEEES9_
FN:14368,_ZNK5Catch8TestSpec10TagPattern7matchesERKNS_12TestCaseInfoE
FN:14374,_ZN5Catch8TestSpec15ExcludedPatternC2ERKSt10shared_ptrINS0_7PatternEE
FN:14379,_ZNK5Catch8TestSpec15ExcludedPattern7matchesERKNS_12TestCaseInfoE
FN:14383,_ZNK5Catch8TestSpec6Filter7matchesERKNS_12TestCaseInfoE
FN:14384,_ZZNK5Catch8TestSpec6Filter7matchesERKNS_12TestCaseInfoEENKUlRKSt10shared_ptrINS0_7PatternEEE_clES9_
FN:14387,_ZNK5Catch8TestSpec6Filter4nameB5cxx11Ev
FN:14394,_ZNK5Catch8TestSpec10hasFiltersEv
FN:14398,_ZNK5Catch8TestSpec7matchesERKNS_12TestCaseInfoE
FN:14399,_ZZNK5Catch8TestSpec7matchesERKNS_12TestCaseInfoEENKUlRKNS0_6FilterEE_clES6_
FN:14402,_ZNK5Catch8TestSpec15matchesByFilterERKSt6vectorINS_8TestCaseESaIS2_EERKNS_7IConfigE
FN:14405,_ZZNK5Catch8TestSpec15matchesByFilterERKSt6vectorINS_8TestCaseESaIS2_EERKNS_7IConfigEENKUlRKNS0_6FilterEE_clESC_
FN:14415,_ZNK5Catch8TestSpec14getInvalidArgsB5cxx11Ev
FN:14425,_ZN5Catch14TestSpecParserC2ERKNS_17ITagAliasRegistryE
FN:14427,_ZN5Catch14TestSpecParser5parseERKNSt7__cxx1112basic_stringIcSt11char_traitsIcESaIcEEE
FN:14445,_ZN5Catch14TestSpecParser8testSpecEv
FN:14449,_ZN5Catch14TestSpecParser9visitCharEc
FN:14487,_ZN5Catch14TestSpecParser15processNoneCharEc
FN:14505,_ZN5Catch14TestSpecParser15processNameCharEc
FN:14514,_ZN5Catch14TestSpecParser16processOtherCharEc
FN:14521,_ZN5Catch14TestSpecParser12startNewModeENS0_4ModeE
FN:14524,_ZN5Catch14TestSpecParser7endModeEv
FN:14539,_ZN5Catch14TestSpecParser6escapeEv
FN:14544,_ZNK5Catch14TestSpecParser13isControlCharEc
FN:14561,_ZN5Catch14TestSpecParser9addFilterEv
FN:14568,_ZN5Catch14TestSpecParser12saveLastModeEv
FN:14572,_ZN5Catch14TestSpecParser20revertBackToLastModeEv
FN:14576,_ZN5Catch14TestSpecParser8separateEv
FN:14590,_ZN5Catch14TestSpecParser17preprocessPatternB5cxx11Ev
FN:14605,_ZN5Catch14TestSpecParser14addNamePatternEv
FN:14619,_ZN5Catch14TestSpecParser13addTagPatternEv
FN:14646,_ZN5Catch13parseTestSpecERKNSt7__cxx1112basic_stringIcSt11char_traitsIcESaIcEEE
FN:14660,_ZN5Catch31getCurrentNanosecondsSinceEpochEv
FN:14665,_ZN5Catch12_GLOBAL__N_123estimateClockResolutionEv
FN:14695,_ZN5Catch27getEstimatedClockResolutionEv
FN:14700,_ZN5Catch5Timer5startEv
FN:14703,_ZNK5Catch5Timer21getElapsedNanosecondsEv
FN:14706,_ZNK5Catch5Timer22getElapsedMicrosecondsEv
FN:14709,_ZNK5Catch5Timer22getElapsedMillisecondsEv
FN:14712,_ZNK5Catch5Timer17getElapsedSecondsEv
FN:14746,_ZN5Catch6Detail12_GLOBAL__N_110Endianness5whichEv
FN:14756,_ZN5Catch6Detail17rawMemoryToStringB5cxx11EPKvm
FN:14774,_ZN5Catch10fpToStringIdEENSt7__cxx1112basic_stringIcSt11char_traitsIcESaIcEEET_i
FN:14774,_ZN5Catch10fpToStringIfEENSt7__cxx1112basic_stringIcSt11char_traitsIcESaIcEEET_i
FN:14799,_ZN5Catch11StringMakerINSt7__cxx1112basic_stringIcSt11char_traitsIcESaIcEEEvE7convertERKS6_
FN:14828,_ZN5Catch11StringMakerIPKcvE7convertB5cxx11ES2_
FN:14835,_ZN5Catch11StringMakerIPcvE7convertB5cxx11ES1_
FN:14844,_ZN5Catch11StringMakerINSt7__cxx1112basic_stringIwSt11char_traitsIwESaIwEEEvE7convertERKS6_
FN:14859,_ZN5Catch11StringMakerIPKwvE7convertB5cxx11ES2_
FN:14866,_ZN5Catch11StringMakerIPwvE7convertB5cxx11ES1_
FN:14882,_ZN5Catch11StringMakerIivE7convertB5cxx11Ei
FN:14885,_ZN5Catch11StringMakerIlvE7convertB5cxx11El
FN:14888,_ZN5Catch11StringMakerIxvE7convertB5cxx11Ex
FN:14897,_ZN5Catch11StringMakerIjvE7convertB5cxx11Ej
FN:14900,_ZN5Catch11StringMakerImvE7convertB5cxx11Em
FN:14903,_ZN5Catch11StringMakerIyvE7convertB5cxx11Ey
FN:14912,_ZN5Catch11StringMakerIbvE7convertB5cxx11Eb
FN:14916,_ZN5Catch11StringMakerIavE7convertB5cxx11Ea
FN:14933,_ZN5Catch11StringMakerIcvE7convertB5cxx11Ec
FN:14936,_ZN5Catch11StringMakerIhvE7convertB5cxx11Eh
FN:14940,_ZN5Catch11StringMakerIDnvE7convertB5cxx11EDn
FN:14946,_ZN5Catch11StringMakerIfvE7convertB5cxx11Ef
FN:14952,_ZN5Catch11StringMakerIdvE7convertB5cxx11Ed
FN:14956,_ZN5Catch12ratio_stringISt5ratioILl1ELl1000000000000000000EEE6symbolB5cxx11Ev
FN:14957,_ZN5Catch12ratio_stringISt5ratioILl1ELl1000000000000000EEE6symbolB5cxx11Ev
FN:14958,_ZN5Catch12ratio_stringISt5ratioILl1ELl1000000000000EEE6symbolB5cxx11Ev
FN:14959,_ZN5Catch12ratio_stringISt5ratioILl1ELl1000000000EEE6symbolB5cxx11Ev
FN:14960,_ZN5Catch12ratio_stringISt5ratioILl1ELl1000000EEE6symbolB5cxx11Ev
FN:14961,_ZN5Catch12ratio_stringISt5ratioILl1ELl1000EEE6symbolB5cxx11Ev
FN:14974,_ZNK5Catch6CountsmiERKS0_
FN:14982,_ZN5Catch6CountspLERKS0_
FN:14989,_ZNK5Catch6Counts5totalEv
FN:14992,_ZNK5Catch6Counts9allPassedEv
FN:14995,_ZNK5Catch6Counts5allOkEv
FN:14999,_ZNK5Catch6TotalsmiERKS0_
FN:15006,_ZN5Catch6TotalspLERKS0_
FN:15012,_ZNK5Catch6Totals5deltaERKS0_
FN:15030,_ZN5Catch19uncaught_exceptionsEv
FN:15045,_ZN5Catch7VersionC2EjjjPKcj
FN:15058,_ZN5CatchlsERSoRKNS_7VersionE
FN:15070,_ZN5Catch14libraryVersionEv
FN:15081,_ZN5Catch15WildcardPatternC2ERKNSt7__cxx1112basic_stringIcSt11char_traitsIcESaIcEEENS_13CaseSensitive6ChoiceE
FN:15096,_ZNK5Catch15WildcardPattern7matchesERKNSt7__cxx1112basic_stringIcSt11char_traitsIcESaIcEEE
FN:15111,_ZNK5Catch15WildcardPattern15normaliseStringERKNSt7__cxx1112basic_stringIcSt11char_traitsIcESaIcEEE
FN:15127,_ZN5Catch12_GLOBAL__N_113trailingBytesEh
FN:15140,_ZN5Catch12_GLOBAL__N_111headerValueEh
FN:15153,_ZN5Catch12_GLOBAL__N_113hexEscapeCharERSoh
FN:15161,_ZN5Catch12_GLOBAL__N_113shouldNewlineENS_13XmlFormattingE
FN:15165,_ZN5Catch12_GLOBAL__N_112shouldIndentENS_13XmlFormattingE
FN:15171,_ZN5CatchorENS_13XmlFormattingES0_
FN:15178,_ZN5CatchanENS_13XmlFormattingES0_
FN:15185,_ZN5Catch9XmlEncodeC2ERKNSt7__cxx1112basic_stringIcSt11char_traitsIcESaIcEEENS0_7ForWhatE
FN:15190,_ZNK5Catch9XmlEncode8encodeToERSo
FN:15284,_ZN5CatchlsERSoRKNS_9XmlEncodeE
FN:15289,_ZN5Catch9XmlWriter13ScopedElementC2EPS0_NS_13XmlFormattingE
FN:15294,_ZN5Catch9XmlWriter13ScopedElementC2EOS1_
FN:15301,_ZN5Catch9XmlWriter13ScopedElementaSEOS1_
FN:15312,_ZN5Catch9XmlWriter13ScopedElementD2Ev
FN:15318,_ZN5Catch9XmlWriter13ScopedElement9writeTextERKNSt7__cxx1112basic_stringIcSt11char_traitsIcESaIcEEENS_13XmlFormattingE
FN:15323,_ZN5Catch9XmlWriterC2ERSo
FN:15328,_ZN5Catch9XmlWriterD2Ev
FN:15335,_ZN5Catch9XmlWriter12startElementERKNSt7__cxx1112basic_stringIcSt11char_traitsIcESaIcEEENS_13XmlFormattingE
FN:15349,_ZN5Catch9XmlWriter13scopedElementERKNSt7__cxx1112basic_stringIcSt11char_traitsIcESaIcEEENS_13XmlFormattingE
FN:15355,_ZN5Catch9XmlWriter10endElementENS_13XmlFormattingE
FN:15374,_ZN5Catch9XmlWriter14writeAttributeERKNSt7__cxx1112basic_stringIcSt11char_traitsIcESaIcEEES8_
FN:15380,_ZN5Catch9XmlWriter14writeAttributeERKNSt7__cxx1112basic_stringIcSt11char_traitsIcESaIcEEEb
FN:15385,_ZN5Catch9XmlWriter9writeTextERKNSt7__cxx1112basic_stringIcSt11char_traitsIcESaIcEEENS_13XmlFormattingE
FN:15398,_ZN5Catch9XmlWriter12writeCommentERKNSt7__cxx1112basic_stringIcSt11char_traitsIcESaIcEEENS_13XmlFormattingE
FN:15408,_ZN5Catch9XmlWriter18writeStylesheetRefERKNSt7__cxx1112basic_stringIcSt11char_traitsIcESaIcEEE
FN:15412,_ZN5Catch9XmlWriter14writeBlankLineEv
FN:15418,_ZN5Catch9XmlWriter15ensureTagClosedEv
FN:15426,_ZN5Catch9XmlWriter15applyFormattingENS_13XmlFormattingE
FN:15430,_ZN5Catch9XmlWriter16writeDeclarationEv
FN:15434,_ZN5Catch9XmlWriter18newlineIfNecessaryEv
FN:15451,_ZN5Catch25prepareExpandedExpressionERNS_15AssertionResultE
FN:15457,_ZN5Catch20getFormattedDurationB5cxx11Ed
FN:15475,_ZN5Catch16serializeFiltersERKSt6vectorINSt7__cxx1112basic_stringIcSt11char_traitsIcESaIcEEESaIS6_EE
FN:15490,_ZN5Catch21TestEventListenerBaseC2ERKNS_14ReporterConfigE
FN:15493,_ZN5Catch21TestEventListenerBase23getSupportedVerbositiesEv
FN:15497,_ZN5Catch21TestEventListenerBase17assertionStartingERKNS_13AssertionInfoE
FN:15499,_ZN5Catch21TestEventListenerBase14assertionEndedERKNS_14AssertionStatsE
FN:15513,_ZN12_GLOBAL__N_112failedStringEv
FN:15514,_ZN12_GLOBAL__N_112passedStringEv
FN:15518,_ZN12_GLOBAL__N_19dimColourEv
FN:15520,_ZN12_GLOBAL__N_19bothOrAllEm
FN:15535,_ZN5Catch12_GLOBAL__N_111printTotalsERSoRKNS_6TotalsE
FN:15568,_ZN5Catch12_GLOBAL__N_116AssertionPrinterD2Ev
FN:15572,_ZN5Catch12_GLOBAL__N_116AssertionPrinterC2ERSoRKNS_14AssertionStatsEb
FN:15579,_ZN5Catch12_GLOBAL__N_116AssertionPrinter5printEv
FN:15648,_ZNK5Catch12_GLOBAL__N_116AssertionPrinter15printSourceInfoEv
FN:15653,_ZNK5Catch12_GLOBAL__N_116AssertionPrinter15printResultTypeENS_6Colour4CodeERKNSt7__cxx1112basic_stringIcSt11char_traitsIcESaIcEEE
FN:15663,_ZNK5Catch12_GLOBAL__N_116AssertionPrinter10printIssueERKNSt7__cxx1112basic_stringIcSt11char_traitsIcESaIcEEE
FN:15667,_ZN5Catch12_GLOBAL__N_116AssertionPrinter18printExpressionWasEv
FN:15678,_ZNK5Catch12_GLOBAL__N_116AssertionPrinter23printOriginalExpressionEv
FN:15684,_ZNK5Catch12_GLOBAL__N_116AssertionPrinter28printReconstructedExpressionEv
FN:15694,_ZN5Catch12_GLOBAL__N_116AssertionPrinter12printMessageEv
FN:15701,_ZN5Catch12_GLOBAL__N_116AssertionPrinter22printRemainingMessagesENS_6Colour4CodeE
FN:15737,_ZN5Catch15CompactReporter14getDescriptionB5cxx11Ev
FN:15741,_ZNK5Catch15CompactReporter14getPreferencesEv
FN:15745,_ZN5Catch15CompactReporter19noMatchingTestCasesERKNSt7__cxx1112basic_stringIcSt11char_traitsIcESaIcEEE
FN:15749,_ZN5Catch15CompactReporter17assertionStartingERKNS_13AssertionInfoE
FN:15751,_ZN5Catch15CompactReporter14assertionEndedERKNS_14AssertionStatsE
FN:15770,_ZN5Catch15CompactReporter12sectionEndedERKNS_12SectionStatsE
FN:15776,_ZN5Catch15CompactReporter12testRunEndedERKNS_12TestRunStatsE
FN:15782,_ZN5Catch15CompactReporterD2Ev
FN:15782,_ZN5Catch15CompactReporterD0Ev
FN:15810,_ZN5Catch12_GLOBAL__N_123ConsoleAssertionPrinterD2Ev
FN:15814,_ZN5Catch12_GLOBAL__N_123ConsoleAssertionPrinterC2ERSoRKNS_14AssertionStatsEb
FN:15888,_ZNK5Catch12_GLOBAL__N_123ConsoleAssertionPrinter5printEv
FN:15901,_ZNK5Catch12_GLOBAL__N_123ConsoleAssertionPrinter15printResultTypeEv
FN:15907,_ZNK5Catch12_GLOBAL__N_123ConsoleAssertionPrinter23printOriginalExpressionEv
FN:15915,_ZNK5Catch12_GLOBAL__N_123ConsoleAssertionPrinter28printReconstructedExpressionEv
FN:15922,_ZNK5Catch12_GLOBAL__N_123ConsoleAssertionPrinter12printMessageEv
FN:15931,_ZNK5Catch12_GLOBAL__N_123ConsoleAssertionPrinter15printSourceInfoEv
FN:15947,_ZN5Catch12_GLOBAL__N_19makeRatioEmm
FN:15952,_ZN5Catch12_GLOBAL__N_17findMaxERmS1_S1_
FN:15961,_ZN5Catch12_GLOBAL__N_110ColumnInfoD2Ev
FN:15961,_ZN5Catch12_GLOBAL__N_110ColumnInfoC2ERKS1_
FN:16047,_ZN5Catch12TablePrinterD2Ev
FN:16055,_ZN5Catch12TablePrinterC2ERSoSt6vectorINS_12_GLOBAL__N_110ColumnInfoESaIS4_EE
FN:16079,_ZN5Catch12TablePrinter5closeEv
FN:16115,_ZN5CatchlsERNS_12TablePrinterENS_12_GLOBAL__N_18RowBreakE
FN:16124,_ZN5Catch15ConsoleReporterC2ERKNS_14ReporterConfigE
FN:16127,_ZZN5Catch15ConsoleReporterC4ERKNS_14ReporterConfigEENKUlvE_clEv
FN:16149,_ZN5Catch15ConsoleReporter14getDescriptionB5cxx11Ev
FN:16153,_ZN5Catch15ConsoleReporter19noMatchingTestCasesERKNSt7__cxx1112basic_stringIcSt11char_traitsIcESaIcEEE
FN:16157,_ZN5Catch15ConsoleReporter22reportInvalidArgumentsERKNSt7__cxx1112basic_stringIcSt11char_traitsIcESaIcEEE
FN:16161,_ZN5Catch15ConsoleReporter17assertionStartingERKNS_13AssertionInfoE
FN:16163,_ZN5Catch15ConsoleReporter14assertionEndedERKNS_14AssertionStatsE
FN:16180,_ZN5Catch15ConsoleReporter15sectionStartingERKNS_11SectionInfoE
FN:16185,_ZN5Catch15ConsoleReporter12sectionEndedERKNS_12SectionStatsE
FN:16253,_ZN5Catch15ConsoleReporter13testCaseEndedERKNS_13TestCaseStatsE
FN:16258,_ZN5Catch15ConsoleReporter14testGroupEndedERKNS_14TestGroupStatsE
FN:16267,_ZN5Catch15ConsoleReporter12testRunEndedERKNS_12TestRunStatsE
FN:16273,_ZN5Catch15ConsoleReporter15testRunStartingERKNS_11TestRunInfoE
FN:16278,_ZN5Catch15ConsoleReporter9lazyPrintEv
FN:16284,_ZN5Catch15ConsoleReporter37lazyPrintWithoutClosingBenchmarkTableEv
FN:16296,_ZN5Catch15ConsoleReporter16lazyPrintRunInfoEv
FN:16308,_ZN5Catch15ConsoleReporter18lazyPrintGroupInfoEv
FN:16314,_ZN5Catch15ConsoleReporter29printTestCaseAndSectionHeaderEv
FN:16336,_ZN5Catch15ConsoleReporter17printClosedHeaderERKNSt7__cxx1112basic_stringIcSt11char_traitsIcESaIcEEE
FN:16340,_ZN5Catch15ConsoleReporter15printOpenHeaderERKNSt7__cxx1112basic_stringIcSt11char_traitsIcESaIcEEE
FN:16350,_ZN5Catch15ConsoleReporter17printHeaderStringERKNSt7__cxx1112basic_stringIcSt11char_traitsIcESaIcEEEm
FN:16359,_ZN5Catch13SummaryColumnC2ERKS0_
FN:16359,_ZN5Catch13SummaryColumnD2Ev
FN:16359,_ZN5Catch13SummaryColumnC2EOS0_
FN:16361,_ZN5Catch13SummaryColumnC2ENSt7__cxx1112basic_stringIcSt11char_traitsIcESaIcEEENS_6Colour4CodeE
FN:16364,_ZN5Catch13SummaryColumn6addRowEm
FN:16384,_ZN5Catch15ConsoleReporter11printTotalsERKNS_6TotalsE
FN:16413,_ZN5Catch15ConsoleReporter15printSummaryRowERKNSt7__cxx1112basic_stringIcSt11char_traitsIcESaIcEEERKSt6vectorINS_13SummaryColumnESaISA_EEm
FN:16431,_ZN5Catch15ConsoleReporter18printTotalsDividerERKNS_6TotalsE
FN:16452,_ZN5Catch15ConsoleReporter19printSummaryDividerEv
FN:16456,_ZN5Catch15ConsoleReporter16printTestFiltersEv
FN:16483,_ZN5Catch12_GLOBAL__N_119getCurrentTimestampEv
FN:16509,_ZN5Catch12_GLOBAL__N_111fileNameTagERKSt6vectorINSt7__cxx1112basic_stringIcSt11char_traitsIcESaIcEEESaIS7_EE
FN:16512,_ZZN5Catch12_GLOBAL__N_111fileNameTagERKSt6vectorINSt7__cxx1112basic_stringIcSt11char_traitsIcESaIcEEESaIS7_EEENKUlRKS7_E_clESD_
FN:16519,_ZN5Catch13JunitReporterC2ERKNS_14ReporterConfigE
FN:16527,_ZN5Catch13JunitReporterD0Ev
FN:16527,_ZN5Catch13JunitReporterD2Ev
FN:16529,_ZN5Catch13JunitReporter14getDescriptionB5cxx11Ev
FN:16533,_ZN5Catch13JunitReporter19noMatchingTestCasesERKNSt7__cxx1112basic_stringIcSt11char_traitsIcESaIcEEE
FN:16535,_ZN5Catch13JunitReporter15testRunStartingERKNS_11TestRunInfoE
FN:16540,_ZN5Catch13JunitReporter17testGroupStartingERKNS_9GroupInfoE
FN:16548,_ZN5Catch13JunitReporter16testCaseStartingERKNS_12TestCaseInfoE
FN:16552,_ZN5Catch13JunitReporter14assertionEndedERKNS_14AssertionStatsE
FN:16558,_ZN5Catch13JunitReporter13testCaseEndedERKNS_13TestCaseStatsE
FN:16564,_ZN5Catch13JunitReporter14testGroupEndedERKNS_14TestGroupStatsE
FN:16570,_ZN5Catch13JunitReporter22testRunEndedCumulativeEv
FN:16574,_ZN5Catch13JunitReporter10writeGroupERKNS_22CumulativeReporterBaseIS0_E4NodeINS_14TestGroupStatsENS3_INS_13TestCaseStatsENS2_11SectionNodeEEEEEd
FN:16612,_ZN5Catch13JunitReporter13writeTestCaseERKNS_22CumulativeReporterBaseIS0_E4NodeINS_13TestCaseStatsENS2_11SectionNodeEEE
FN:16634,_ZN5Catch13JunitReporter12writeSectionERKNSt7__cxx1112basic_stringIcSt11char_traitsIcESaIcEEES8_RKNS_22CumulativeReporterBaseIS0_E11SectionNodeE
FN:16669,_ZN5Catch13JunitReporter15writeAssertionsERKNS_22CumulativeReporterBaseIS0_E11SectionNodeE
FN:16674,_ZN5Catch13JunitReporter14writeAssertionERKNS_14AssertionStatsE
FN:16746,_ZN5Catch17ListeningReporterC2Ev
FN:16751,_ZN5Catch17ListeningReporter11addListenerEOSt10unique_ptrINS_18IStreamingReporterESt14default_deleteIS2_EE
FN:16755,_ZN5Catch17ListeningReporter11addReporterEOSt10unique_ptrINS_18IStreamingReporterESt14default_deleteIS2_EE
FN:16761,_ZNK5Catch17ListeningReporter14getPreferencesEv
FN:16765,_ZN5Catch17ListeningReporter23getSupportedVerbositiesEv
FN:16769,_ZN5Catch17ListeningReporter19noMatchingTestCasesERKNSt7__cxx1112basic_stringIcSt11char_traitsIcESaIcEEE
FN:16776,_ZN5Catch17ListeningReporter22reportInvalidArgumentsERKNSt7__cxx1112basic_stringIcSt11char_traitsIcESaIcEEE
FN:16811,_ZN5Catch17ListeningReporter15testRunStartingERKNS_11TestRunInfoE
FN:16818,_ZN5Catch17ListeningReporter17testGroupStartingERKNS_9GroupInfoE
FN:16825,_ZN5Catch17ListeningReporter16testCaseStartingERKNS_12TestCaseInfoE
FN:16832,_ZN5Catch17ListeningReporter15sectionStartingERKNS_11SectionInfoE
FN:16839,_ZN5Catch17ListeningReporter17assertionStartingERKNS_13AssertionInfoE
FN:16847,_ZN5Catch17ListeningReporter14assertionEndedERKNS_14AssertionStatsE
FN:16854,_ZN5Catch17ListeningReporter12sectionEndedERKNS_12SectionStatsE
FN:16861,_ZN5Catch17ListeningReporter13testCaseEndedERKNS_13TestCaseStatsE
FN:16868,_ZN5Catch17ListeningReporter14testGroupEndedERKNS_14TestGroupStatsE
FN:16875,_ZN5Catch17ListeningReporter12testRunEndedERKNS_12TestRunStatsE
FN:16882,_ZN5Catch17ListeningReporter8skipTestERKNS_12TestCaseInfoE
FN:16889,_ZNK5Catch17ListeningReporter7isMultiEv
FN:16905,_ZN5Catch11XmlReporterC2ERKNS_14ReporterConfigE
FN:16915,_ZN5Catch11XmlReporter14getDescriptionB5cxx11Ev
FN:16919,_ZNK5Catch11XmlReporter16getStylesheetRefB5cxx11Ev
FN:16923,_ZN5Catch11XmlReporter15writeSourceInfoERKNS_14SourceLineInfoE
FN:16929,_ZN5Catch11XmlReporter19noMatchingTestCasesERKNSt7__cxx1112basic_stringIcSt11char_traitsIcESaIcEEE
FN:16933,_ZN5Catch11XmlReporter15testRunStartingERKNS_11TestRunInfoE
FN:16948,_ZN5Catch11XmlReporter17testGroupStartingERKNS_9GroupInfoE
FN:16954,_ZN5Catch11XmlReporter16testCaseStartingERKNS_12TestCaseInfoE
FN:16968,_ZN5Catch11XmlReporter15sectionStartingERKNS_11SectionInfoE
FN:16978,_ZN5Catch11XmlReporter17assertionStartingERKNS_13AssertionInfoE
FN:16980,_ZN5Catch11XmlReporter14assertionEndedERKNS_14AssertionStatsE
FN:17054,_ZN5Catch11XmlReporter12sectionEndedERKNS_12SectionStatsE
FN:17069,_ZN5Catch11XmlReporter13testCaseEndedERKNS_13TestCaseStatsE
FN:17085,_ZN5Catch11XmlReporter14testGroupEndedERKNS_14TestGroupStatsE
FN:17095,_ZN5Catch11XmlReporter12testRunEndedERKNS_12TestRunStatsE
FN:17179,main
FN:17609,_GLOBAL__sub_I__ZN5Catch6Detail6ApproxC2Ed
FN:17609,_Z41__static_initialization_and_destruction_0ii
FNDA:0,_ZN5Catch11NonCopyableD0Ev
FNDA:5943,_ZN5Catch11NonCopyableD2Ev
FNDA:5943,_ZN5Catch11NonCopyableC2Ev
FNDA:6058,_ZN5Catch14SourceLineInfoC2EPKcm
FNDA:364,_ZN5Catch12ITestInvokerC2Ev
FNDA:0,_ZN5Catch12ITestInvokerD0Ev
FNDA:364,_ZN5Catch12ITestInvokerD2Ev
FNDA:49,_ZN5Catch17ITestCaseRegistryC2Ev
FNDA:0,_ZN5Catch17ITestCaseRegistryD0Ev
FNDA:49,_ZN5Catch17ITestCaseRegistryD2Ev
FNDA:3762,_ZN5Catch9StringRefC2Ev
FNDA:14320,_ZN5Catch9StringRefC2EPKcm
FNDA:43,_ZN5Catch9StringRefC2ERKNSt7__cxx1112basic_stringIcSt11char_traitsIcESaIcEEE
FNDA:728,_ZNK5Catch9StringRefcvNSt7__cxx1112basic_stringIcSt11char_traitsIcESaIcEEEEv
FNDA:0,_ZNK5Catch9StringRefixEm
FNDA:72,_ZNK5Catch9StringRef5emptyEv
FNDA:61,_ZNK5Catch9StringRef4sizeEv
FNDA:0,_ZNK5Catch9StringRef16isNullTerminatedEv
FNDA:364,_ZNK5Catch9StringRef5beginEv
FNDA:364,_ZNK5Catch9StringRef3endEv
FNDA:3398,_ZN5Catchli3_srEPKcm
FNDA:0,_ZN5Catch7AutoRegD0Ev
FNDA:364,_ZN5Catch7AutoRegD2Ev
FNDA:3424,_ZN5Catch11isFalseTestEi
FNDA:43,_ZN5Catch7IStreamC2Ev
FNDA:0,_ZN5Catch7IStreamD0Ev
FNDA:43,_ZN5Catch7IStreamD2Ev
FNDA:0,_ZN5Catch20ReusableStringStreamlsIA8_cEERS0_RKT_
FNDA:485,_ZN5Catch20ReusableStringStreamlsIPKcEERS0_RKT_
FNDA:0,_ZN5Catch20ReusableStringStreamlsIA1_cEERS0_RKT_
FNDA:0,_ZN5Catch20ReusableStringStreamlsIfEERS0_RKT_
FNDA:0,_ZN5Catch20ReusableStringStreamlsISt13_SetprecisionEERS0_RKT_
FNDA:0,_ZN5Catch20ReusableStringStreamlsIA4_cEERS0_RKT_
FNDA:0,_ZN5Catch20ReusableStringStreamlsINS_5clara8TextFlow6ColumnEEERS0_RKT_
FNDA:0,_ZN5Catch20ReusableStringStreamlsIA7_cEERS0_RKT_
FNDA:0,_ZN5Catch20ReusableStringStreamlsIA47_cEERS0_RKT_
FNDA:0,_ZN5Catch20ReusableStringStreamlsIyEERS0_RKT_
FNDA:36,_ZN5Catch20ReusableStringStreamlsIxEERS0_RKT_
FNDA:0,_ZN5Catch20ReusableStringStreamlsIjEERS0_RKT_
FNDA:12,_ZN5Catch20ReusableStringStreamlsIFRSt8ios_baseS3_EEERS0_RKT_
FNDA:0,_ZN5Catch20ReusableStringStreamlsISt8_SetfillIcEEERS0_RKT_
FNDA:0,_ZN5Catch20ReusableStringStreamlsINS_16TestCaseTracking11TrackerBase10CycleStateEEERS0_RKT_
FNDA:0,_ZN5Catch20ReusableStringStreamlsIA18_cEERS0_RKT_
FNDA:0,_ZN5Catch20ReusableStringStreamlsIA21_cEERS0_RKT_
FNDA:0,_ZN5Catch20ReusableStringStreamlsIA15_cEERS0_RKT_
FNDA:0,_ZN5Catch20ReusableStringStreamlsIA22_cEERS0_RKT_
FNDA:0,_ZN5Catch20ReusableStringStreamlsIA66_cEERS0_RKT_
FNDA:0,_ZN5Catch20ReusableStringStreamlsIA19_cEERS0_RKT_
FNDA:0,_ZN5Catch20ReusableStringStreamlsIA12_cEERS0_RKT_
FNDA:0,_ZN5Catch20ReusableStringStreamlsIA20_cEERS0_RKT_
FNDA:0,_ZN5Catch20ReusableStringStreamlsIA60_cEERS0_RKT_
FNDA:10,_ZN5Catch20ReusableStringStreamlsINS_9StringRefEEERS0_RKT_
FNDA:0,_ZN5Catch20ReusableStringStreamlsIA23_cEERS0_RKT_
FNDA:0,_ZN5Catch20ReusableStringStreamlsIA53_cEERS0_RKT_
FNDA:0,_ZN5Catch20ReusableStringStreamlsIA2_cEERS0_RKT_
FNDA:0,_ZN5Catch20ReusableStringStreamlsIA36_cEERS0_RKT_
FNDA:0,_ZN5Catch20ReusableStringStreamlsIA27_cEERS0_RKT_
FNDA:0,_ZN5Catch20ReusableStringStreamlsIA44_cEERS0_RKT_
FNDA:0,_ZN5Catch20ReusableStringStreamlsIA16_cEERS0_RKT_
FNDA:12,_ZN5Catch20ReusableStringStreamlsIA5_cEERS0_RKT_
FNDA:0,_ZN5Catch20ReusableStringStreamlsIA59_cEERS0_RKT_
FNDA:0,_ZN5Catch20ReusableStringStreamlsIA57_cEERS0_RKT_
FNDA:0,_ZN5Catch20ReusableStringStreamlsIA32_cEERS0_RKT_
FNDA:0,_ZN5Catch20ReusableStringStreamlsIA17_cEERS0_RKT_
FNDA:1679,_ZN5Catch20ReusableStringStreamlsImEERS0_RKT_
FNDA:0,_ZN5Catch20ReusableStringStreamlsISt5_SetwEERS0_RKT_
FNDA:0,_ZN5Catch20ReusableStringStreamlsIA13_cEERS0_RKT_
FNDA:103,_ZN5Catch20ReusableStringStreamlsINS_14SourceLineInfoEEERS0_RKT_
FNDA:13,_ZN5Catch20ReusableStringStreamlsINS_14LazyExpressionEEERS0_RKT_
FNDA:0,_ZN5Catch20ReusableStringStreamlsIA37_cEERS0_RKT_
FNDA:0,_ZN5Catch20ReusableStringStreamlsIA26_cEERS0_RKT_
FNDA:0,_ZN5Catch20ReusableStringStreamlsIA40_cEERS0_RKT_
FNDA:12,_ZN5Catch20ReusableStringStreamlsIcEERS0_RKT_
FNDA:475,_ZN5Catch20ReusableStringStreamlsIdEERS0_RKT_
FNDA:0,_ZN5Catch20ReusableStringStreamlsIA25_cEERS0_RKT_
FNDA:0,_ZN5Catch20ReusableStringStreamlsIA3_cEERS0_RKT_
FNDA:8,_ZN5Catch20ReusableStringStreamlsINSt7__cxx1112basic_stringIcSt11char_traitsIcESaIcEEEEERS0_RKT_
FNDA:0,_ZN5Catch20ReusableStringStreamlsIA9_cEERS0_RKT_
FNDA:1374,_ZN5Catch20ReusableStringStream3getEv
FNDA:0,_ZN5Catch6Detail8EnumInfoC2Ev
FNDA:49,_ZN5Catch26IMutableEnumValuesRegistryC2Ev
FNDA:103,_ZN5Catch11StringMakerINS_14SourceLineInfoEvE7convertIS1_EENSt9enable_ifIXsrNS_6Detail18IsStreamInsertableIT_EE5valueENSt7__cxx1112basic_stringIcSt11char_traitsIcESaIcEEEE4typeERKS7_
FNDA:0,_ZN5Catch6Detail9stringifyIcEENSt7__cxx1112basic_stringIcSt11char_traitsIcESaIcEEERKT_
FNDA:0,_ZN5Catch6Detail9stringifyIaEENSt7__cxx1112basic_stringIcSt11char_traitsIcESaIcEEERKT_
FNDA:0,_ZN5Catch6Detail9stringifyIjEENSt7__cxx1112basic_stringIcSt11char_traitsIcESaIcEEERKT_
FNDA:0,_ZN5Catch6Detail9stringifyIyEENSt7__cxx1112basic_stringIcSt11char_traitsIcESaIcEEERKT_
FNDA:24,_ZN5Catch6Detail9stringifyIxEENSt7__cxx1112basic_stringIcSt11char_traitsIcESaIcEEERKT_
FNDA:0,_ZN5Catch6Detail9stringifyINSt7__cxx1112basic_stringIwSt11char_traitsIwESaIwEEEEENS3_IcS4_IcESaIcEEERKT_
FNDA:0,_ZN5Catch6Detail9stringifyINSt7__cxx1112basic_stringIcSt11char_traitsIcESaIcEEEEES7_RKT_
FNDA:103,_ZN5Catch6Detail9stringifyINS_14SourceLineInfoEEENSt7__cxx1112basic_stringIcSt11char_traitsIcESaIcEEERKT_
FNDA:0,_ZN5Catch6Detail9stringifyIdEENSt7__cxx1112basic_stringIcSt11char_traitsIcESaIcEEERKT_
FNDA:0,_ZN5Catch20ITransientExpressionD0Ev
FNDA:3398,_ZN5Catch20ITransientExpressionD2Ev
FNDA:0,_ZNK5Catch20ITransientExpression18isBinaryExpressionEv
FNDA:3398,_ZNK5Catch20ITransientExpression9getResultEv
FNDA:3398,_ZN5Catch20ITransientExpressionC2Ebb
FNDA:29,_ZN5Catch14IResultCaptureC2Ev
FNDA:0,_ZN5Catch14IResultCaptureD0Ev
FNDA:29,_ZN5Catch14IResultCaptureD2Ev
FNDA:3398,_ZN5Catch17AssertionReactionC2Ev
FNDA:0,_ZN5Catch11MessageInfoC2EOS0_
FNDA:0,_ZN5Catch11MessageInfoaSEOS0_
FNDA:0,_ZN5Catch11MessageInfoC2ERKS0_
FNDA:0,_ZN5Catch11MessageInfoD2Ev
FNDA:0,_ZN5Catch13MessageStreamC2Ev
FNDA:0,_ZN5Catch13MessageStreamD2Ev
FNDA:0,_ZN5Catch14MessageBuilderD2Ev
FNDA:0,_ZN5Catch14MessageBuilderlsINSt7__cxx1112basic_stringIcSt11char_traitsIcESaIcEEEEERS0_RKT_
FNDA:1738,_ZN5Catch6CountsC2Ev
FNDA:29,_ZN5Catch6TotalsC2Ev
FNDA:0,_ZN5Catch11SectionInfoaSERKS0_
FNDA:21,_ZN5Catch11SectionInfoC2EOS0_
FNDA:4072,_ZN5Catch11SectionInfoC2ERKS0_
FNDA:6339,_ZN5Catch11SectionInfoD2Ev
FNDA:0,_ZN5Catch14SectionEndInfoC2EOS0_
FNDA:0,_ZN5Catch14SectionEndInfoC2ERKS0_
FNDA:420,_ZN5Catch14SectionEndInfoD2Ev
FNDA:1705,_ZN5Catch5TimerC2Ev
FNDA:49,_ZN5Catch12IRegistryHubC2Ev
FNDA:0,_ZN5Catch12IRegistryHubD0Ev
FNDA:49,_ZN5Catch12IRegistryHubD2Ev
FNDA:49,_ZN5Catch19IMutableRegistryHubC2Ev
FNDA:0,_ZN5Catch19IMutableRegistryHubD0Ev
FNDA:49,_ZN5Catch19IMutableRegistryHubD2Ev
FNDA:0,_ZN5Catch20IExceptionTranslatorD0Ev
FNDA:0,_ZN5Catch20IExceptionTranslatorD2Ev
FNDA:49,_ZN5Catch28IExceptionTranslatorRegistryC2Ev
FNDA:0,_ZN5Catch28IExceptionTranslatorRegistryD0Ev
FNDA:49,_ZN5Catch28IExceptionTranslatorRegistryD2Ev
FNDA:0,_ZN5Catch6Detail6ApproxC2IyvEERKT_
FNDA:0,_ZN5Catch6Detail6ApproxC2IevEERKT_
FNDA:0,_ZN5Catch6Detail6ApproxC2IivEERKT_
FNDA:16,_ZN5Catch9pluraliseD2Ev
FNDA:0,_ZN5Catch8Matchers4Impl18MatcherUntypedBaseD0Ev
FNDA:0,_ZN5Catch8Matchers4Impl18MatcherUntypedBaseD2Ev
FNDA:0,_ZN5Catch8Matchers4Impl18MatcherUntypedBaseC2Ev
FNDA:0,_ZN5Catch8Matchers4Impl13MatcherMethodINSt7__cxx1112basic_stringIcSt11char_traitsIcESaIcEEEEC2Ev
FNDA:0,_ZN5Catch8Matchers4Impl13MatcherMethodIdEC2Ev
FNDA:0,_ZN5Catch8Matchers4Impl13MatcherMethodISt9exceptionEC2Ev
FNDA:0,_ZN5Catch8Matchers4Impl11MatcherBaseINSt7__cxx1112basic_stringIcSt11char_traitsIcESaIcEEEED0Ev
FNDA:0,_ZN5Catch8Matchers4Impl11MatcherBaseINSt7__cxx1112basic_stringIcSt11char_traitsIcESaIcEEEED2Ev
FNDA:0,_ZN5Catch8Matchers4Impl11MatcherBaseINSt7__cxx1112basic_stringIcSt11char_traitsIcESaIcEEEEC2Ev
FNDA:0,_ZN5Catch8Matchers4Impl11MatcherBaseIdED0Ev
FNDA:0,_ZN5Catch8Matchers4Impl11MatcherBaseIdED2Ev
FNDA:0,_ZN5Catch8Matchers4Impl11MatcherBaseIdEC2Ev
FNDA:0,_ZN5Catch8Matchers4Impl11MatcherBaseISt9exceptionED0Ev
FNDA:0,_ZN5Catch8Matchers4Impl11MatcherBaseISt9exceptionED2Ev
FNDA:0,_ZN5Catch8Matchers4Impl11MatcherBaseISt9exceptionEC2Ev
FNDA:0,_ZN5Catch8Matchers9Exception23ExceptionMessageMatcherD0Ev
FNDA:0,_ZN5Catch8Matchers9Exception23ExceptionMessageMatcherD2Ev
FNDA:0,_ZN5Catch8Matchers9Exception23ExceptionMessageMatcherC2ERKNSt7__cxx1112basic_stringIcSt11char_traitsIcESaIcEEE
FNDA:0,_ZN5Catch8Matchers8Floating16WithinAbsMatcherD0Ev
FNDA:0,_ZN5Catch8Matchers8Floating16WithinAbsMatcherD2Ev
FNDA:0,_ZN5Catch8Matchers8Floating17WithinUlpsMatcherD0Ev
FNDA:0,_ZN5Catch8Matchers8Floating17WithinUlpsMatcherD2Ev
FNDA:0,_ZN5Catch8Matchers8Floating16WithinRelMatcherD0Ev
FNDA:0,_ZN5Catch8Matchers8Floating16WithinRelMatcherD2Ev
FNDA:0,_ZN5Catch8Matchers9StdString11CasedStringD2Ev
FNDA:0,_ZN5Catch8Matchers9StdString11CasedStringC2ERKS2_
FNDA:0,_ZN5Catch8Matchers9StdString17StringMatcherBaseD0Ev
FNDA:0,_ZN5Catch8Matchers9StdString17StringMatcherBaseD2Ev
FNDA:0,_ZN5Catch8Matchers9StdString13EqualsMatcherD0Ev
FNDA:0,_ZN5Catch8Matchers9StdString13EqualsMatcherD2Ev
FNDA:0,_ZN5Catch8Matchers9StdString15ContainsMatcherD0Ev
FNDA:0,_ZN5Catch8Matchers9StdString15ContainsMatcherD2Ev
FNDA:0,_ZN5Catch8Matchers9StdString17StartsWithMatcherD0Ev
FNDA:0,_ZN5Catch8Matchers9StdString17StartsWithMatcherD2Ev
FNDA:0,_ZN5Catch8Matchers9StdString15EndsWithMatcherD0Ev
FNDA:0,_ZN5Catch8Matchers9StdString15EndsWithMatcherD2Ev
FNDA:0,_ZN5Catch8Matchers9StdString12RegexMatcherD0Ev
FNDA:0,_ZN5Catch8Matchers9StdString12RegexMatcherD2Ev
FNDA:0,_ZN5Catch9MatchExprINSt7__cxx1112basic_stringIcSt11char_traitsIcESaIcEEERKNS_8Matchers4Impl11MatcherBaseIS6_EEED0Ev
FNDA:0,_ZN5Catch9MatchExprINSt7__cxx1112basic_stringIcSt11char_traitsIcESaIcEEERKNS_8Matchers4Impl11MatcherBaseIS6_EEED2Ev
FNDA:0,_ZN5Catch9MatchExprINSt7__cxx1112basic_stringIcSt11char_traitsIcESaIcEEERKNS_8Matchers4Impl11MatcherBaseIS6_EEEC2ERKS6_SC_RKNS_9StringRefE
FNDA:0,_ZNK5Catch9MatchExprINSt7__cxx1112basic_stringIcSt11char_traitsIcESaIcEEERKNS_8Matchers4Impl11MatcherBaseIS6_EEE29streamReconstructedExpressionERSo
FNDA:21,_ZN5Catch17IGeneratorTrackerC2Ev
FNDA:0,_ZN5Catch15throw_exceptionISt13runtime_errorEEvRKT_
FNDA:0,_ZN5Catch15throw_exceptionISt12domain_errorEEvRKT_
FNDA:0,_ZN5Catch15throw_exceptionISt11logic_errorEEvRKT_
FNDA:0,_ZN5Catch18GeneratorExceptionD0Ev
FNDA:0,_ZN5Catch18GeneratorExceptionD2Ev
FNDA:0,_ZN5Catch8IContextD0Ev
FNDA:43,_ZN5Catch8IContextD2Ev
FNDA:43,_ZN5Catch8IContextC2Ev
FNDA:0,_ZN5Catch15IMutableContextD0Ev
FNDA:43,_ZN5Catch15IMutableContextD2Ev
FNDA:43,_ZN5Catch15IMutableContextC2Ev
FNDA:6124,_ZN5Catch24getCurrentMutableContextEv
FNDA:6052,_ZN5Catch17getCurrentContextEv
FNDA:29,_ZN5Catch6OptionINS_12TestCaseInfoEEC2Ev
FNDA:29,_ZN5Catch6OptionINS_9GroupInfoEEC2Ev
FNDA:29,_ZN5Catch6OptionINS_11TestRunInfoEEC2Ev
FNDA:29,_ZN5Catch6OptionINS_15AssertionResultEEC2Ev
FNDA:43,_ZN5Catch6OptionImEC2Ev
FNDA:29,_ZN5Catch6OptionINS_12TestCaseInfoEED2Ev
FNDA:29,_ZN5Catch6OptionINS_9GroupInfoEED2Ev
FNDA:29,_ZN5Catch6OptionINS_11TestRunInfoEED2Ev
FNDA:29,_ZN5Catch6OptionINS_15AssertionResultEED2Ev
FNDA:43,_ZN5Catch6OptionImED2Ev
FNDA:167,_ZN5Catch6OptionINS_12TestCaseInfoEEaSERKS1_
FNDA:29,_ZN5Catch6OptionINS_9GroupInfoEEaSERKS1_
FNDA:29,_ZN5Catch6OptionINS_11TestRunInfoEEaSERKS1_
FNDA:2751,_ZN5Catch6OptionINS_15AssertionResultEEaSERKS1_
FNDA:14,_ZN5Catch6OptionImEaSERKm
FNDA:392,_ZN5Catch6OptionINS_12TestCaseInfoEE5resetEv
FNDA:116,_ZN5Catch6OptionINS_9GroupInfoEE5resetEv
FNDA:87,_ZN5Catch6OptionINS_11TestRunInfoEE5resetEv
FNDA:2780,_ZN5Catch6OptionINS_15AssertionResultEE5resetEv
FNDA:57,_ZN5Catch6OptionImE5resetEv
FNDA:14,_ZN5Catch6OptionImEdeEv
FNDA:0,_ZNK5Catch6OptionINS_15AssertionResultEEdeEv
FNDA:3,_ZN5Catch6OptionINS_12TestCaseInfoEEptEv
FNDA:6,_ZN5Catch6OptionINS_9GroupInfoEEptEv
FNDA:3,_ZN5Catch6OptionINS_11TestRunInfoEEptEv
FNDA:14,_ZNK5Catch6OptionImE7valueOrERKm
FNDA:43,_ZNK5Catch6OptionImE4someEv
FNDA:43,_ZNK5Catch6OptionImEcvbEv
FNDA:0,_ZN5Catch7IConfigD0Ev
FNDA:43,_ZN5Catch7IConfigD2Ev
FNDA:43,_ZN5Catch7IConfigC2Ev
FNDA:0,_ZN5Catch11SimplePcg32C2Ev
FNDA:0,_ZN5Catch12TestCaseInfoaSEOS0_
FNDA:707,_ZN5Catch12TestCaseInfoC2EOS0_
FNDA:2508,_ZN5Catch12TestCaseInfoD2Ev
FNDA:1437,_ZN5Catch12TestCaseInfoC2ERKS0_
FNDA:0,_ZN5Catch8TestCaseaSEOS0_
FNDA:1103,_ZN5Catch8TestCaseC2ERKS0_
FNDA:343,_ZN5Catch8TestCaseC2EOS0_
FNDA:1810,_ZN5Catch8TestCaseD2Ev
FNDA:29,_ZN5Catch7IRunnerC2Ev
FNDA:0,_ZN5Catch7IRunnerD0Ev
FNDA:29,_ZN5Catch7IRunnerD2Ev
FNDA:0,_ZN5Catch15WildcardPatternD0Ev
FNDA:22,_ZN5Catch15WildcardPatternD2Ev
FNDA:57,_ZN5Catch8TestSpecC2ERKS0_
FNDA:43,_ZN5Catch8TestSpecaSEOS0_
FNDA:143,_ZN5Catch8TestSpecD2Ev
FNDA:86,_ZN5Catch8TestSpecC2Ev
FNDA:0,_ZN5Catch8TestSpec7PatternD0Ev
FNDA:36,_ZN5Catch8TestSpec7PatternD2Ev
FNDA:0,_ZN5Catch8TestSpec11NamePatternD0Ev
FNDA:22,_ZN5Catch8TestSpec11NamePatternD2Ev
FNDA:0,_ZN5Catch8TestSpec10TagPatternD0Ev
FNDA:14,_ZN5Catch8TestSpec10TagPatternD2Ev
FNDA:0,_ZN5Catch8TestSpec15ExcludedPatternD0Ev
FNDA:0,_ZN5Catch8TestSpec15ExcludedPatternD2Ev
FNDA:14,_ZN5Catch8TestSpec6FilterC2EOS1_
FNDA:100,_ZN5Catch8TestSpec6FilterC2ERKS1_
FNDA:36,_ZN5Catch8TestSpec6FilteraSEOS1_
FNDA:79,_ZN5Catch8TestSpec6FilterC2Ev
FNDA:193,_ZN5Catch8TestSpec6FilterD2Ev
FNDA:8,_ZN5Catch8TestSpec11FilterMatchC2Ev
FNDA:8,_ZN5Catch8TestSpec11FilterMatchaSEOS1_
FNDA:16,_ZN5Catch8TestSpec11FilterMatchD2Ev
FNDA:49,_ZN5Catch17ITagAliasRegistryC2Ev
FNDA:43,_ZN5Catch14TestSpecParserD2Ev
FNDA:0,_ZN5Catch14TestSpecParser16addCharToPatternEc
FNDA:0,_ZN5Catch10ConfigDataaSERKS0_
FNDA:49,_ZN5Catch10ConfigDataC2Ev
FNDA:92,_ZN5Catch10ConfigDataD2Ev
FNDA:43,_ZN5Catch10ConfigDataC2ERKS0_
FNDA:0,_ZN5Catch6ConfigD0Ev
FNDA:43,_ZN5Catch6ConfigD2Ev
FNDA:11004,_ZN5Catch19AssertionResultDataD2Ev
FNDA:8253,_ZN5Catch19AssertionResultDataC2ERKS0_
FNDA:8253,_ZN5Catch15AssertionResultD2Ev
FNDA:5502,_ZN5Catch15AssertionResultC2ERKS0_
FNDA:29,_ZN5Catch14ReporterConfigD2Ev
FNDA:29,_ZN5Catch19ReporterPreferencesC2Ev
FNDA:29,_ZN5Catch8LazyStatINS_12TestCaseInfoEEC2Ev
FNDA:29,_ZN5Catch8LazyStatINS_9GroupInfoEEC2Ev
FNDA:29,_ZN5Catch8LazyStatINS_11TestRunInfoEEC2Ev
FNDA:29,_ZN5Catch8LazyStatINS_12TestCaseInfoEED2Ev
FNDA:29,_ZN5Catch8LazyStatINS_9GroupInfoEED2Ev
FNDA:29,_ZN5Catch8LazyStatINS_11TestRunInfoEED2Ev
FNDA:167,_ZN5Catch8LazyStatINS_12TestCaseInfoEEaSERKS1_
FNDA:29,_ZN5Catch8LazyStatINS_9GroupInfoEEaSERKS1_
FNDA:29,_ZN5Catch8LazyStatINS_11TestRunInfoEEaSERKS1_
FNDA:29,_ZN5Catch8LazyStatINS_11TestRunInfoEE5resetEv
FNDA:58,_ZN5Catch8LazyStatINS_9GroupInfoEE5resetEv
FNDA:196,_ZN5Catch8LazyStatINS_12TestCaseInfoEE5resetEv
FNDA:87,_ZN5Catch11TestRunInfoD2Ev
FNDA:58,_ZN5Catch11TestRunInfoC2ERKS0_
FNDA:116,_ZN5Catch9GroupInfoD2Ev
FNDA:58,_ZN5Catch9GroupInfoC2ERKS0_
FNDA:0,_ZN5Catch14AssertionStatsD0Ev
FNDA:2751,_ZN5Catch14AssertionStatsD2Ev
FNDA:0,_ZN5Catch14AssertionStatsC2ERKS0_
FNDA:0,_ZN5Catch12SectionStatsaSERKS0_
FNDA:0,_ZN5Catch12SectionStatsD0Ev
FNDA:986,_ZN5Catch12SectionStatsD2Ev
FNDA:0,_ZN5Catch12SectionStatsC2ERKS0_
FNDA:0,_ZN5Catch13TestCaseStatsD0Ev
FNDA:167,_ZN5Catch13TestCaseStatsD2Ev
FNDA:0,_ZN5Catch13TestCaseStatsC2ERKS0_
FNDA:0,_ZN5Catch14TestGroupStatsD0Ev
FNDA:29,_ZN5Catch14TestGroupStatsD2Ev
FNDA:0,_ZN5Catch14TestGroupStatsC2ERKS0_
FNDA:0,_ZN5Catch12TestRunStatsD0Ev
FNDA:29,_ZN5Catch12TestRunStatsD2Ev
FNDA:0,_ZN5Catch12TestRunStatsC2ERKS0_
FNDA:29,_ZN5Catch18IStreamingReporterC2Ev
FNDA:0,_ZN5Catch18IStreamingReporterD0Ev
FNDA:29,_ZN5Catch18IStreamingReporterD2Ev
FNDA:0,_ZN5Catch18IStreamingReporter22reportInvalidArgumentsERKNSt7__cxx1112basic_stringIcSt11char_traitsIcESaIcEEE
FNDA:196,_ZN5Catch16IReporterFactoryC2Ev
FNDA:0,_ZN5Catch16IReporterFactoryD0Ev
FNDA:196,_ZN5Catch16IReporterFactoryD2Ev
FNDA:49,_ZN5Catch17IReporterRegistryC2Ev
FNDA:0,_ZN5Catch17IReporterRegistryD0Ev
FNDA:49,_ZN5Catch17IReporterRegistryD2Ev
FNDA:0,_ZN5Catch21StreamingReporterBaseINS_15CompactReporterEEC2ERKNS_14ReporterConfigE
FNDA:25,_ZN5Catch21StreamingReporterBaseINS_11XmlReporterEEC2ERKNS_14ReporterConfigE
FNDA:4,_ZN5Catch21StreamingReporterBaseINS_15ConsoleReporterEEC2ERKNS_14ReporterConfigE
FNDA:0,_ZN5Catch21StreamingReporterBaseINS_21TestEventListenerBaseEEC2ERKNS_14ReporterConfigE
FNDA:0,_ZNK5Catch21StreamingReporterBaseINS_15CompactReporterEE14getPreferencesEv
FNDA:0,_ZNK5Catch21StreamingReporterBaseINS_21TestEventListenerBaseEE14getPreferencesEv
FNDA:112,_ZNK5Catch21StreamingReporterBaseINS_15ConsoleReporterEE14getPreferencesEv
FNDA:483,_ZNK5Catch21StreamingReporterBaseINS_11XmlReporterEE14getPreferencesEv
FNDA:0,_ZN5Catch21StreamingReporterBaseINS_15CompactReporterEE23getSupportedVerbositiesEv
FNDA:25,_ZN5Catch21StreamingReporterBaseINS_11XmlReporterEE23getSupportedVerbositiesEv
FNDA:4,_ZN5Catch21StreamingReporterBaseINS_15ConsoleReporterEE23getSupportedVerbositiesEv
FNDA:0,_ZN5Catch21StreamingReporterBaseINS_11XmlReporterEED0Ev
FNDA:25,_ZN5Catch21StreamingReporterBaseINS_11XmlReporterEED2Ev
FNDA:0,_ZN5Catch21StreamingReporterBaseINS_15ConsoleReporterEED0Ev
FNDA:4,_ZN5Catch21StreamingReporterBaseINS_15ConsoleReporterEED2Ev
FNDA:0,_ZN5Catch21StreamingReporterBaseINS_15CompactReporterEED0Ev
FNDA:0,_ZN5Catch21StreamingReporterBaseINS_15CompactReporterEED2Ev
FNDA:0,_ZN5Catch21StreamingReporterBaseINS_21TestEventListenerBaseEED0Ev
FNDA:0,_ZN5Catch21StreamingReporterBaseINS_21TestEventListenerBaseEED2Ev
FNDA:0,_ZN5Catch21StreamingReporterBaseINS_15CompactReporterEE19noMatchingTestCasesERKNSt7__cxx1112basic_stringIcSt11char_traitsIcESaIcEEE
FNDA:0,_ZN5Catch21StreamingReporterBaseINS_15ConsoleReporterEE19noMatchingTestCasesERKNSt7__cxx1112basic_stringIcSt11char_traitsIcESaIcEEE
FNDA:0,_ZN5Catch21StreamingReporterBaseINS_21TestEventListenerBaseEE19noMatchingTestCasesERKNSt7__cxx1112basic_stringIcSt11char_traitsIcESaIcEEE
FNDA:0,_ZN5Catch21StreamingReporterBaseINS_11XmlReporterEE19noMatchingTestCasesERKNSt7__cxx1112basic_stringIcSt11char_traitsIcESaIcEEE
FNDA:0,_ZN5Catch21StreamingReporterBaseINS_15ConsoleReporterEE22reportInvalidArgumentsERKNSt7__cxx1112basic_stringIcSt11char_traitsIcESaIcEEE
FNDA:0,_ZN5Catch21StreamingReporterBaseINS_21TestEventListenerBaseEE22reportInvalidArgumentsERKNSt7__cxx1112basic_stringIcSt11char_traitsIcESaIcEEE
FNDA:0,_ZN5Catch21StreamingReporterBaseINS_15CompactReporterEE22reportInvalidArgumentsERKNSt7__cxx1112basic_stringIcSt11char_traitsIcESaIcEEE
FNDA:0,_ZN5Catch21StreamingReporterBaseINS_11XmlReporterEE22reportInvalidArgumentsERKNSt7__cxx1112basic_stringIcSt11char_traitsIcESaIcEEE
FNDA:0,_ZN5Catch21StreamingReporterBaseINS_21TestEventListenerBaseEE15testRunStartingERKNS_11TestRunInfoE
FNDA:0,_ZN5Catch21StreamingReporterBaseINS_15CompactReporterEE15testRunStartingERKNS_11TestRunInfoE
FNDA:25,_ZN5Catch21StreamingReporterBaseINS_11XmlReporterEE15testRunStartingERKNS_11TestRunInfoE
FNDA:4,_ZN5Catch21StreamingReporterBaseINS_15ConsoleReporterEE15testRunStartingERKNS_11TestRunInfoE
FNDA:0,_ZN5Catch21StreamingReporterBaseINS_21TestEventListenerBaseEE17testGroupStartingERKNS_9GroupInfoE
FNDA:0,_ZN5Catch21StreamingReporterBaseINS_15CompactReporterEE17testGroupStartingERKNS_9GroupInfoE
FNDA:4,_ZN5Catch21StreamingReporterBaseINS_15ConsoleReporterEE17testGroupStartingERKNS_9GroupInfoE
FNDA:25,_ZN5Catch21StreamingReporterBaseINS_11XmlReporterEE17testGroupStartingERKNS_9GroupInfoE
FNDA:0,_ZN5Catch21StreamingReporterBaseINS_21TestEventListenerBaseEE16testCaseStartingERKNS_12TestCaseInfoE
FNDA:0,_ZN5Catch21StreamingReporterBaseINS_15CompactReporterEE16testCaseStartingERKNS_12TestCaseInfoE
FNDA:32,_ZN5Catch21StreamingReporterBaseINS_15ConsoleReporterEE16testCaseStartingERKNS_12TestCaseInfoE
FNDA:135,_ZN5Catch21StreamingReporterBaseINS_11XmlReporterEE16testCaseStartingERKNS_12TestCaseInfoE
FNDA:0,_ZN5Catch21StreamingReporterBaseINS_21TestEventListenerBaseEE15sectionStartingERKNS_11SectionInfoE
FNDA:0,_ZN5Catch21StreamingReporterBaseINS_15CompactReporterEE15sectionStartingERKNS_11SectionInfoE
FNDA:798,_ZN5Catch21StreamingReporterBaseINS_11XmlReporterEE15sectionStartingERKNS_11SectionInfoE
FNDA:188,_ZN5Catch21StreamingReporterBaseINS_15ConsoleReporterEE15sectionStartingERKNS_11SectionInfoE
FNDA:0,_ZN5Catch21StreamingReporterBaseINS_15CompactReporterEE12sectionEndedERKNS_12SectionStatsE
FNDA:0,_ZN5Catch21StreamingReporterBaseINS_21TestEventListenerBaseEE12sectionEndedERKNS_12SectionStatsE
FNDA:798,_ZN5Catch21StreamingReporterBaseINS_11XmlReporterEE12sectionEndedERKNS_12SectionStatsE
FNDA:188,_ZN5Catch21StreamingReporterBaseINS_15ConsoleReporterEE12sectionEndedERKNS_12SectionStatsE
FNDA:0,_ZN5Catch21StreamingReporterBaseINS_21TestEventListenerBaseEE13testCaseEndedERKNS_13TestCaseStatsE
FNDA:0,_ZN5Catch21StreamingReporterBaseINS_15CompactReporterEE13testCaseEndedERKNS_13TestCaseStatsE
FNDA:135,_ZN5Catch21StreamingReporterBaseINS_11XmlReporterEE13testCaseEndedERKNS_13TestCaseStatsE
FNDA:32,_ZN5Catch21StreamingReporterBaseINS_15ConsoleReporterEE13testCaseEndedERKNS_13TestCaseStatsE
FNDA:0,_ZN5Catch21StreamingReporterBaseINS_21TestEventListenerBaseEE14testGroupEndedERKNS_14TestGroupStatsE
FNDA:0,_ZN5Catch21StreamingReporterBaseINS_15CompactReporterEE14testGroupEndedERKNS_14TestGroupStatsE
FNDA:25,_ZN5Catch21StreamingReporterBaseINS_11XmlReporterEE14testGroupEndedERKNS_14TestGroupStatsE
FNDA:4,_ZN5Catch21StreamingReporterBaseINS_15ConsoleReporterEE14testGroupEndedERKNS_14TestGroupStatsE
FNDA:0,_ZN5Catch21StreamingReporterBaseINS_21TestEventListenerBaseEE12testRunEndedERKNS_12TestRunStatsE
FNDA:25,_ZN5Catch21StreamingReporterBaseINS_11XmlReporterEE12testRunEndedERKNS_12TestRunStatsE
FNDA:4,_ZN5Catch21StreamingReporterBaseINS_15ConsoleReporterEE12testRunEndedERKNS_12TestRunStatsE
FNDA:0,_ZN5Catch21StreamingReporterBaseINS_15CompactReporterEE12testRunEndedERKNS_12TestRunStatsE
FNDA:0,_ZN5Catch21StreamingReporterBaseINS_21TestEventListenerBaseEE8skipTestERKNS_12TestCaseInfoE
FNDA:0,_ZN5Catch21StreamingReporterBaseINS_15CompactReporterEE8skipTestERKNS_12TestCaseInfoE
FNDA:0,_ZN5Catch21StreamingReporterBaseINS_15ConsoleReporterEE8skipTestERKNS_12TestCaseInfoE
FNDA:0,_ZN5Catch21StreamingReporterBaseINS_11XmlReporterEE8skipTestERKNS_12TestCaseInfoE
FNDA:0,_ZN5Catch22CumulativeReporterBaseINS_13JunitReporterEE4NodeINS_12TestRunStatsENS3_INS_14TestGroupStatsENS3_INS_13TestCaseStatsENS2_11SectionNodeEEEEEEC2ERKS4_
FNDA:0,_ZN5Catch22CumulativeReporterBaseINS_13JunitReporterEE4NodeINS_14TestGroupStatsENS3_INS_13TestCaseStatsENS2_11SectionNodeEEEEC2ERKS4_
FNDA:0,_ZN5Catch22CumulativeReporterBaseINS_13JunitReporterEE4NodeINS_13TestCaseStatsENS2_11SectionNodeEEC2ERKS4_
FNDA:0,_ZN5Catch22CumulativeReporterBaseINS_13JunitReporterEE4NodeINS_12TestRunStatsENS3_INS_14TestGroupStatsENS3_INS_13TestCaseStatsENS2_11SectionNodeEEEEEED0Ev
FNDA:0,_ZN5Catch22CumulativeReporterBaseINS_13JunitReporterEE4NodeINS_12TestRunStatsENS3_INS_14TestGroupStatsENS3_INS_13TestCaseStatsENS2_11SectionNodeEEEEEED2Ev
FNDA:0,_ZN5Catch22CumulativeReporterBaseINS_13JunitReporterEE4NodeINS_14TestGroupStatsENS3_INS_13TestCaseStatsENS2_11SectionNodeEEEED0Ev
FNDA:0,_ZN5Catch22CumulativeReporterBaseINS_13JunitReporterEE4NodeINS_14TestGroupStatsENS3_INS_13TestCaseStatsENS2_11SectionNodeEEEED2Ev
FNDA:0,_ZN5Catch22CumulativeReporterBaseINS_13JunitReporterEE4NodeINS_13TestCaseStatsENS2_11SectionNodeEED0Ev
FNDA:0,_ZN5Catch22CumulativeReporterBaseINS_13JunitReporterEE4NodeINS_13TestCaseStatsENS2_11SectionNodeEED2Ev
FNDA:0,_ZN5Catch22CumulativeReporterBaseINS_13JunitReporterEE11SectionNodeC2ERKNS_12SectionStatsE
FNDA:0,_ZN5Catch22CumulativeReporterBaseINS_13JunitReporterEE11SectionNodeD0Ev
FNDA:0,_ZN5Catch22CumulativeReporterBaseINS_13JunitReporterEE11SectionNodeD2Ev
FNDA:0,_ZN5Catch22CumulativeReporterBaseINS_13JunitReporterEE13BySectionInfoC2ERKNS_11SectionInfoE
FNDA:0,_ZN5Catch22CumulativeReporterBaseINS_13JunitReporterEE13BySectionInfoC2ERKS3_
FNDA:0,_ZNK5Catch22CumulativeReporterBaseINS_13JunitReporterEE13BySectionInfoclERKSt10shared_ptrINS2_11SectionNodeEE
FNDA:0,_ZN5Catch22CumulativeReporterBaseINS_13JunitReporterEEC2ERKNS_14ReporterConfigE
FNDA:0,_ZN5Catch22CumulativeReporterBaseINS_13JunitReporterEED0Ev
FNDA:0,_ZN5Catch22CumulativeReporterBaseINS_13JunitReporterEED2Ev
FNDA:0,_ZNK5Catch22CumulativeReporterBaseINS_13JunitReporterEE14getPreferencesEv
FNDA:0,_ZN5Catch22CumulativeReporterBaseINS_13JunitReporterEE23getSupportedVerbositiesEv
FNDA:0,_ZN5Catch22CumulativeReporterBaseINS_13JunitReporterEE15testRunStartingERKNS_11TestRunInfoE
FNDA:0,_ZN5Catch22CumulativeReporterBaseINS_13JunitReporterEE17testGroupStartingERKNS_9GroupInfoE
FNDA:0,_ZN5Catch22CumulativeReporterBaseINS_13JunitReporterEE16testCaseStartingERKNS_12TestCaseInfoE
FNDA:0,_ZN5Catch22CumulativeReporterBaseINS_13JunitReporterEE15sectionStartingERKNS_11SectionInfoE
FNDA:0,_ZN5Catch22CumulativeReporterBaseINS_13JunitReporterEE17assertionStartingERKNS_13AssertionInfoE
FNDA:0,_ZN5Catch22CumulativeReporterBaseINS_13JunitReporterEE14assertionEndedERKNS_14AssertionStatsE
FNDA:0,_ZN5Catch22CumulativeReporterBaseINS_13JunitReporterEE12sectionEndedERKNS_12SectionStatsE
FNDA:0,_ZN5Catch22CumulativeReporterBaseINS_13JunitReporterEE13testCaseEndedERKNS_13TestCaseStatsE
FNDA:0,_ZN5Catch22CumulativeReporterBaseINS_13JunitReporterEE14testGroupEndedERKNS_14TestGroupStatsE
FNDA:0,_ZN5Catch22CumulativeReporterBaseINS_13JunitReporterEE12testRunEndedERKNS_12TestRunStatsE
FNDA:0,_ZN5Catch22CumulativeReporterBaseINS_13JunitReporterEE8skipTestERKNS_12TestCaseInfoE
FNDA:3,_ZN5Catch14getLineOfCharsILc46EEEPKcv
FNDA:3,_ZN5Catch14getLineOfCharsILc126EEEPKcv
FNDA:6,_ZN5Catch14getLineOfCharsILc45EEEPKcv
FNDA:0,_ZN5Catch21TestEventListenerBaseD0Ev
FNDA:0,_ZN5Catch21TestEventListenerBaseD2Ev
FNDA:0,_ZN5Catch17ReporterRegistrarINS_15CompactReporterEE15ReporterFactoryD0Ev
FNDA:49,_ZN5Catch17ReporterRegistrarINS_15CompactReporterEE15ReporterFactoryD2Ev
FNDA:0,_ZN5Catch17ReporterRegistrarINS_15ConsoleReporterEE15ReporterFactoryD0Ev
FNDA:49,_ZN5Catch17ReporterRegistrarINS_15ConsoleReporterEE15ReporterFactoryD2Ev
FNDA:0,_ZN5Catch17ReporterRegistrarINS_13JunitReporterEE15ReporterFactoryD0Ev
FNDA:49,_ZN5Catch17ReporterRegistrarINS_13JunitReporterEE15ReporterFactoryD2Ev
FNDA:0,_ZN5Catch17ReporterRegistrarINS_11XmlReporterEE15ReporterFactoryD0Ev
FNDA:49,_ZN5Catch17ReporterRegistrarINS_11XmlReporterEE15ReporterFactoryD2Ev
FNDA:49,_ZN5Catch17ReporterRegistrarINS_11XmlReporterEE15ReporterFactoryC2Ev
FNDA:49,_ZN5Catch17ReporterRegistrarINS_13JunitReporterEE15ReporterFactoryC2Ev
FNDA:49,_ZN5Catch17ReporterRegistrarINS_15ConsoleReporterEE15ReporterFactoryC2Ev
FNDA:49,_ZN5Catch17ReporterRegistrarINS_15CompactReporterEE15ReporterFactoryC2Ev
FNDA:0,_ZNK5Catch17ReporterRegistrarINS_15CompactReporterEE15ReporterFactory6createERKNS_14ReporterConfigE
FNDA:4,_ZNK5Catch17ReporterRegistrarINS_15ConsoleReporterEE15ReporterFactory6createERKNS_14ReporterConfigE
FNDA:0,_ZNK5Catch17ReporterRegistrarINS_13JunitReporterEE15ReporterFactory6createERKNS_14ReporterConfigE
FNDA:25,_ZNK5Catch17ReporterRegistrarINS_11XmlReporterEE15ReporterFactory6createERKNS_14ReporterConfigE
FNDA:0,_ZNK5Catch17ReporterRegistrarINS_15CompactReporterEE15ReporterFactory14getDescriptionB5cxx11Ev
FNDA:0,_ZNK5Catch17ReporterRegistrarINS_15ConsoleReporterEE15ReporterFactory14getDescriptionB5cxx11Ev
FNDA:0,_ZNK5Catch17ReporterRegistrarINS_13JunitReporterEE15ReporterFactory14getDescriptionB5cxx11Ev
FNDA:0,_ZNK5Catch17ReporterRegistrarINS_11XmlReporterEE15ReporterFactory14getDescriptionB5cxx11Ev
FNDA:49,_ZN5Catch17ReporterRegistrarINS_11XmlReporterEEC2ERKNSt7__cxx1112basic_stringIcSt11char_traitsIcESaIcEEE
FNDA:49,_ZN5Catch17ReporterRegistrarINS_13JunitReporterEEC2ERKNSt7__cxx1112basic_stringIcSt11char_traitsIcESaIcEEE
FNDA:49,_ZN5Catch17ReporterRegistrarINS_15ConsoleReporterEEC2ERKNSt7__cxx1112basic_stringIcSt11char_traitsIcESaIcEEE
FNDA:49,_ZN5Catch17ReporterRegistrarINS_15CompactReporterEEC2ERKNSt7__cxx1112basic_stringIcSt11char_traitsIcESaIcEEE
FNDA:0,_ZN5Catch15CompactReporterCI2NS_21StreamingReporterBaseIS0_EEERKNS_14ReporterConfigE
FNDA:4,_ZN5Catch15ConsoleReporterD0Ev
FNDA:4,_ZN5Catch15ConsoleReporterD2Ev
FNDA:3313,_ZN5Catch9XmlEncodeD2Ev
FNDA:135,_ZN5Catch9XmlWriter13ScopedElement14writeAttributeIbEERS1_RKNSt7__cxx1112basic_stringIcSt11char_traitsIcESaIcEEERKT_
FNDA:475,_ZN5Catch9XmlWriter13ScopedElement14writeAttributeIdEERS1_RKNSt7__cxx1112basic_stringIcSt11char_traitsIcESaIcEEERKT_
FNDA:1170,_ZN5Catch9XmlWriter13ScopedElement14writeAttributeImEERS1_RKNSt7__cxx1112basic_stringIcSt11char_traitsIcESaIcEEERKT_
FNDA:0,_ZN5Catch9XmlWriter13ScopedElement14writeAttributeIjEERS1_RKNSt7__cxx1112basic_stringIcSt11char_traitsIcESaIcEEERKT_
FNDA:0,_ZN5Catch9XmlWriter13ScopedElement14writeAttributeIA12_cEERS1_RKNSt7__cxx1112basic_stringIcSt11char_traitsIcESaIcEEERKT_
FNDA:0,_ZN5Catch9XmlWriter13ScopedElement14writeAttributeINSt7__cxx1112basic_stringIcSt11char_traitsIcESaIcEEEEERS1_RKS8_RKT_
FNDA:0,_ZN5Catch9XmlWriter13ScopedElement14writeAttributeIA8_cEERS1_RKNSt7__cxx1112basic_stringIcSt11char_traitsIcESaIcEEERKT_
FNDA:0,_ZN5Catch9XmlWriter14writeAttributeIA12_cEERS0_RKNSt7__cxx1112basic_stringIcSt11char_traitsIcESaIcEEERKT_
FNDA:0,_ZN5Catch9XmlWriter14writeAttributeIA8_cEERS0_RKNSt7__cxx1112basic_stringIcSt11char_traitsIcESaIcEEERKT_
FNDA:485,_ZN5Catch9XmlWriter14writeAttributeIPKcEERS0_RKNSt7__cxx1112basic_stringIcSt11char_traitsIcESaIcEEERKT_
FNDA:10,_ZN5Catch9XmlWriter14writeAttributeINS_9StringRefEEERS0_RKNSt7__cxx1112basic_stringIcSt11char_traitsIcESaIcEEERKT_
FNDA:0,_ZN5Catch9XmlWriter14writeAttributeIA5_cEERS0_RKNSt7__cxx1112basic_stringIcSt11char_traitsIcESaIcEEERKT_
FNDA:475,_ZN5Catch9XmlWriter14writeAttributeIdEERS0_RKNSt7__cxx1112basic_stringIcSt11char_traitsIcESaIcEEERKT_
FNDA:0,_ZN5Catch9XmlWriter14writeAttributeIA1_cEERS0_RKNSt7__cxx1112basic_stringIcSt11char_traitsIcESaIcEEERKT_
FNDA:0,_ZN5Catch9XmlWriter14writeAttributeIA4_cEERS0_RKNSt7__cxx1112basic_stringIcSt11char_traitsIcESaIcEEERKT_
FNDA:1655,_ZN5Catch9XmlWriter14writeAttributeImEERS0_RKNSt7__cxx1112basic_stringIcSt11char_traitsIcESaIcEEERKT_
FNDA:0,_ZN5Catch9XmlWriter14writeAttributeIjEERS0_RKNSt7__cxx1112basic_stringIcSt11char_traitsIcESaIcEEERKT_
FNDA:25,_ZN5Catch11XmlReporterD0Ev
FNDA:25,_ZN5Catch11XmlReporterD2Ev
FNDA:775,_ZN5Catch16TestCaseTracking15NameAndLocationC2ERKS1_
FNDA:3608,_ZN5Catch16TestCaseTracking15NameAndLocationD2Ev
FNDA:775,_ZN5Catch16TestCaseTracking8ITrackerC2Ev
FNDA:0,_ZN5Catch16TestCaseTracking8ITrackerD0Ev
FNDA:775,_ZN5Catch16TestCaseTracking8ITrackerD2Ev
FNDA:29,_ZN5Catch16TestCaseTracking14TrackerContextD2Ev
FNDA:29,_ZN5Catch16TestCaseTracking14TrackerContextC2Ev
FNDA:0,_ZN5Catch16TestCaseTracking11TrackerBaseD0Ev
FNDA:775,_ZN5Catch16TestCaseTracking11TrackerBaseD2Ev
FNDA:0,_ZN5Catch16TestCaseTracking14SectionTrackerD0Ev
FNDA:754,_ZN5Catch16TestCaseTracking14SectionTrackerD2Ev
FNDA:0,_ZN12_GLOBAL__N_116marginComparisonEddd
FNDA:0,_ZN5Catch6Detail6ApproxC2Ed
FNDA:0,_ZN5Catch6Detail6Approx6customEv
FNDA:0,_ZNK5Catch6Detail6ApproxngEv
FNDA:0,_ZNK5Catch6Detail6Approx8toStringB5cxx11Ev
FNDA:0,_ZNK5Catch6Detail6Approx22equalityComparisonImplEd
FNDA:0,_ZN5Catch6Detail6Approx9setMarginEd
FNDA:0,_ZN5Catch6Detail6Approx10setEpsilonEd
FNDA:0,_ZN5Catch8literalsli2_aEe
FNDA:0,_ZN5Catch8literalsli2_aEy
FNDA:0,_ZN5Catch11StringMakerINS_6Detail6ApproxEvE7convertB5cxx11ERKS2_
FNDA:13,_ZN5Catch12_GLOBAL__N_1lsERSoRKNS_20ITransientExpressionE
FNDA:2751,_ZN5Catch14LazyExpressionC2Eb
FNDA:11004,_ZN5Catch14LazyExpressionC2ERKS0_
FNDA:26,_ZNK5Catch14LazyExpressioncvbEv
FNDA:13,_ZN5CatchlsERSoRKNS_14LazyExpressionE
FNDA:3398,_ZN5Catch16AssertionHandlerC2ERKNS_9StringRefERKNS_14SourceLineInfoES1_NS_17ResultDisposition5FlagsE
FNDA:3398,_ZN5Catch16AssertionHandler10handleExprERKNS_20ITransientExpressionE
FNDA:0,_ZN5Catch16AssertionHandler13handleMessageENS_9ResultWas6OfTypeERKNS_9StringRefE
FNDA:0,_ZNK5Catch16AssertionHandler11allowThrowsEv
FNDA:3398,_ZN5Catch16AssertionHandler8completeEv
FNDA:0,_ZZN5Catch16AssertionHandler8completeEvENKUlvE_clEv
FNDA:3398,_ZN5Catch16AssertionHandler12setCompletedEv
FNDA:0,_ZN5Catch16AssertionHandler33handleUnexpectedInflightExceptionEv
FNDA:0,_ZN5Catch16AssertionHandler31handleExceptionThrownAsExpectedEv
FNDA:0,_ZN5Catch16AssertionHandler34handleExceptionNotThrownAsExpectedEv
FNDA:0,_ZN5Catch16AssertionHandler34handleUnexpectedExceptionNotThrownEv
FNDA:0,_ZN5Catch16AssertionHandler25handleThrowingCallSkippedEv
FNDA:0,_ZN5Catch24handleExceptionMatchExprERNS_16AssertionHandlerERKNSt7__cxx1112basic_stringIcSt11char_traitsIcESaIcEEERKNS_9StringRefE
FNDA:2751,_ZN5Catch19AssertionResultDataC2ENS_9ResultWas6OfTypeERKNS_14LazyExpressionE
FNDA:16,_ZNK5Catch19AssertionResultData21reconstructExpressionB5cxx11Ev
FNDA:2751,_ZN5Catch15AssertionResultC2ERKNS_13AssertionInfoERKNS_19AssertionResultDataE
FNDA:10,_ZNK5Catch15AssertionResult9succeededEv
FNDA:2767,_ZNK5Catch15AssertionResult4isOkEv
FNDA:10991,_ZNK5Catch15AssertionResult13getResultTypeEv
FNDA:26,_ZNK5Catch15AssertionResult13hasExpressionEv
FNDA:2751,_ZNK5Catch15AssertionResult10hasMessageEv
FNDA:13,_ZNK5Catch15AssertionResult13getExpressionB5cxx11Ev
FNDA:3,_ZNK5Catch15AssertionResult20getExpressionInMacroB5cxx11Ev
FNDA:3,_ZNK5Catch15AssertionResult21hasExpandedExpressionEv
FNDA:16,_ZNK5Catch15AssertionResult21getExpandedExpressionB5cxx11Ev
FNDA:3,_ZNK5Catch15AssertionResult10getMessageB5cxx11Ev
FNDA:13,_ZNK5Catch15AssertionResult13getSourceInfoEv
FNDA:10,_ZNK5Catch15AssertionResult16getTestMacroNameEv
FNDA:0,_ZN5Catch24handleExceptionMatchExprERNS_16AssertionHandlerERKNS_8Matchers4Impl11MatcherBaseINSt7__cxx1112basic_stringIcSt11char_traitsIcESaIcEEEEERKNS_9StringRefE
FNDA:792,_ZN5Catch5clara8TextFlow12isWhitespaceEc
FNDA:384,_ZN5Catch5clara8TextFlow17isBreakableBeforeEc
FNDA:372,_ZN5Catch5clara8TextFlow16isBreakableAfterEc
FNDA:522,_ZN5Catch5clara8TextFlow6ColumnC2EOS2_
FNDA:870,_ZN5Catch5clara8TextFlow6ColumnC2ERKS2_
FNDA:2332,_ZN5Catch5clara8TextFlow6ColumnD2Ev
FNDA:2452,_ZN5Catch5clara8TextFlow6Column8iteratorC2ERKS2_m
FNDA:57552,_ZNK5Catch5clara8TextFlow6Column8iterator4lineB5cxx11Ev
FNDA:456,_ZNK5Catch5clara8TextFlow6Column8iterator10isBoundaryEm
FNDA:1024,_ZN5Catch5clara8TextFlow6Column8iterator10calcLengthEv
FNDA:1874,_ZNK5Catch5clara8TextFlow6Column8iterator6indentEv
FNDA:850,_ZNK5Catch5clara8TextFlow6Column8iterator18addIndentAndSuffixERKNSt7__cxx1112basic_stringIcSt11char_traitsIcESaIcEEE
FNDA:940,_ZN5Catch5clara8TextFlow6Column8iteratorC2ERKS2_
FNDA:850,_ZNK5Catch5clara8TextFlow6Column8iteratordeB5cxx11Ev
FNDA:850,_ZN5Catch5clara8TextFlow6Column8iteratorppEv
FNDA:3266,_ZNK5Catch5clara8TextFlow6Column8iteratoreqERKS3_
FNDA:2348,_ZNK5Catch5clara8TextFlow6Column8iteratorneERKS3_
FNDA:940,_ZN5Catch5clara8TextFlow6ColumnC2ERKNSt7__cxx1112basic_stringIcSt11char_traitsIcESaIcEEE
FNDA:522,_ZN5Catch5clara8TextFlow6Column5widthEm
FNDA:592,_ZN5Catch5clara8TextFlow6Column6indentEm
FNDA:106,_ZN5Catch5clara8TextFlow6Column13initialIndentEm
FNDA:756,_ZNK5Catch5clara8TextFlow6Column5widthEv
FNDA:940,_ZNK5Catch5clara8TextFlow6Column5beginEv
FNDA:2452,_ZNK5Catch5clara8TextFlow6Column3endEv
FNDA:418,_ZN5Catch5clara8TextFlowlsERSoRKNS1_6ColumnE
FNDA:174,_ZN5Catch5clara8TextFlow6SpacerD2Ev
FNDA:174,_ZN5Catch5clara8TextFlow6SpacerC2Em
FNDA:174,_ZN5Catch5clara8TextFlow7ColumnsC2Ev
FNDA:348,_ZN5Catch5clara8TextFlow7ColumnsD2Ev
FNDA:174,_ZN5Catch5clara8TextFlow7ColumnsC2ERKS2_
FNDA:348,_ZN5Catch5clara8TextFlow7Columns8iteratorD2Ev
FNDA:174,_ZN5Catch5clara8TextFlow7Columns8iteratorC2ERKS2_NS3_6EndTagE
FNDA:174,_ZN5Catch5clara8TextFlow7Columns8iteratorC2ERKS2_
FNDA:426,_ZNK5Catch5clara8TextFlow7Columns8iteratorneERKS3_
FNDA:252,_ZNK5Catch5clara8TextFlow7Columns8iteratordeB5cxx11Ev
FNDA:252,_ZN5Catch5clara8TextFlow7Columns8iteratorppEv
FNDA:174,_ZNK5Catch5clara8TextFlow7Columns5beginEv
FNDA:174,_ZNK5Catch5clara8TextFlow7Columns3endEv
FNDA:522,_ZN5Catch5clara8TextFlow7ColumnspLERKNS1_6ColumnE
FNDA:174,_ZN5Catch5clara8TextFlow7ColumnsplERKNS1_6ColumnE
FNDA:174,_ZN5Catch5clara8TextFlowlsERSoRKNS1_7ColumnsE
FNDA:174,_ZN5Catch5clara8TextFlow6ColumnplERKS2_
FNDA:49,_ZN5Catch5clara6detail4ArgsD2Ev
FNDA:49,_ZN5Catch5clara6detail4ArgsC2EiPKPKc
FNDA:49,_ZNK5Catch5clara6detail4Args7exeNameB5cxx11Ev
FNDA:0,_ZN5Catch5clara6detail5TokenaSEOS2_
FNDA:0,_ZN5Catch5clara6detail5TokenC2Ev
FNDA:198,_ZN5Catch5clara6detail5TokenC2EOS2_
FNDA:10279,_ZN5Catch5clara6detail5TokenC2ERKS2_
FNDA:10675,_ZN5Catch5clara6detail5TokenD2Ev
FNDA:198,_ZN5Catch5clara6detail11isOptPrefixEc
FNDA:9260,_ZN5Catch5clara6detail11TokenStreamC2ERKS2_
FNDA:9309,_ZN5Catch5clara6detail11TokenStreamD2Ev
FNDA:241,_ZN5Catch5clara6detail11TokenStream10loadBufferEv
FNDA:49,_ZN5Catch5clara6detail11TokenStreamC2ERKNS1_4ArgsE
FNDA:49,_ZN5Catch5clara6detail11TokenStreamC2EN9__gnu_cxx17__normal_iteratorIPKNSt7__cxx1112basic_stringIcSt11char_traitsIcESaIcEEESt6vectorISA_SaISA_EEEESG_
FNDA:2009,_ZNK5Catch5clara6detail11TokenStreamcvbEv
FNDA:1230,_ZNK5Catch5clara6detail11TokenStreamdeEv
FNDA:1790,_ZNK5Catch5clara6detail11TokenStreamptEv
FNDA:192,_ZN5Catch5clara6detail11TokenStreamppEv
FNDA:1790,_ZN5Catch5clara6detail10ResultBaseaSERKS2_
FNDA:49,_ZN5Catch5clara6detail10ResultBaseC2ERKS2_
FNDA:3876,_ZN5Catch5clara6detail10ResultBaseC2ENS2_4TypeE
FNDA:0,_ZN5Catch5clara6detail10ResultBaseD0Ev
FNDA:3925,_ZN5Catch5clara6detail10ResultBaseD2Ev
FNDA:3863,_ZNK5Catch5clara6detail15ResultValueBaseINS1_10ParseStateEE5valueEv
FNDA:104,_ZNK5Catch5clara6detail15ResultValueBaseINS1_15ParseResultTypeEE5valueEv
FNDA:0,_ZN5Catch5clara6detail15ResultValueBaseINS1_15ParseResultTypeEEC2ENS1_10ResultBase4TypeE
FNDA:0,_ZN5Catch5clara6detail15ResultValueBaseINS1_10ParseStateEEC2ENS1_10ResultBase4TypeE
FNDA:49,_ZN5Catch5clara6detail15ResultValueBaseINS1_10ParseStateEEC2ERKS4_
FNDA:0,_ZN5Catch5clara6detail15ResultValueBaseINS1_15ParseResultTypeEEC2ERKS4_
FNDA:1839,_ZN5Catch5clara6detail15ResultValueBaseINS1_10ParseStateEEC2ENS1_10ResultBase4TypeERKS3_
FNDA:247,_ZN5Catch5clara6detail15ResultValueBaseINS1_15ParseResultTypeEEC2ENS1_10ResultBase4TypeERKS3_
FNDA:1790,_ZN5Catch5clara6detail15ResultValueBaseINS1_10ParseStateEEaSERKS4_
FNDA:0,_ZN5Catch5clara6detail15ResultValueBaseINS1_10ParseStateEED0Ev
FNDA:1888,_ZN5Catch5clara6detail15ResultValueBaseINS1_10ParseStateEED2Ev
FNDA:0,_ZN5Catch5clara6detail15ResultValueBaseINS1_15ParseResultTypeEED0Ev
FNDA:247,_ZN5Catch5clara6detail15ResultValueBaseINS1_15ParseResultTypeEED2Ev
FNDA:0,_ZN5Catch5clara6detail15ResultValueBaseIvED0Ev
FNDA:1790,_ZN5Catch5clara6detail15ResultValueBaseIvED2Ev
FNDA:0,_ZN5Catch5clara6detail15ResultValueBaseIvEC2EOS3_
FNDA:1790,_ZN5Catch5clara6detail15ResultValueBaseIvECI2NS1_10ResultBaseEENS4_4TypeE
FNDA:0,_ZN5Catch5clara6detail11BasicResultINS1_15ParseResultTypeEEC2ERKS4_
FNDA:0,_ZN5Catch5clara6detail11BasicResultINS1_15ParseResultTypeEED0Ev
FNDA:247,_ZN5Catch5clara6detail11BasicResultINS1_15ParseResultTypeEED2Ev
FNDA:0,_ZN5Catch5clara6detail11BasicResultIvED0Ev
FNDA:1790,_ZN5Catch5clara6detail11BasicResultIvED2Ev
FNDA:0,_ZN5Catch5clara6detail11BasicResultINS1_10ParseStateEED0Ev
FNDA:1888,_ZN5Catch5clara6detail11BasicResultINS1_10ParseStateEED2Ev
FNDA:1790,_ZN5Catch5clara6detail11BasicResultINS1_10ParseStateEEaSEOS4_
FNDA:49,_ZN5Catch5clara6detail11BasicResultINS1_10ParseStateEEC2EOS4_
FNDA:0,_ZN5Catch5clara6detail11BasicResultIvEC2EOS3_
FNDA:0,_ZN5Catch5clara6detail11BasicResultINS1_10ParseStateEEC2INS1_15ParseResultTypeEEERKNS2_IT_EE
FNDA:0,_ZN5Catch5clara6detail11BasicResultINS1_10ParseStateEEC2IvEERKNS2_IT_EE
FNDA:1839,_ZN5Catch5clara6detail11BasicResultINS1_10ParseStateEE2okIS3_EES4_RKT_
FNDA:247,_ZN5Catch5clara6detail11BasicResultINS1_15ParseResultTypeEE2okIS3_EES4_RKT_
FNDA:1790,_ZN5Catch5clara6detail11BasicResultIvE2okEv
FNDA:0,_ZN5Catch5clara6detail11BasicResultIvE10logicErrorERKNSt7__cxx1112basic_stringIcSt11char_traitsIcESaIcEEE
FNDA:0,_ZN5Catch5clara6detail11BasicResultINS1_10ParseStateEE12runtimeErrorERKNSt7__cxx1112basic_stringIcSt11char_traitsIcESaIcEEE
FNDA:0,_ZN5Catch5clara6detail11BasicResultINS1_15ParseResultTypeEE12runtimeErrorERKNSt7__cxx1112basic_stringIcSt11char_traitsIcESaIcEEE
FNDA:1839,_ZNK5Catch5clara6detail11BasicResultINS1_10ParseStateEEcvbEv
FNDA:220,_ZNK5Catch5clara6detail11BasicResultINS1_15ParseResultTypeEEcvbEv
FNDA:1790,_ZNK5Catch5clara6detail11BasicResultIvEcvbEv
FNDA:0,_ZNK5Catch5clara6detail11BasicResultINS1_15ParseResultTypeEE4typeEv
FNDA:0,_ZNK5Catch5clara6detail11BasicResultINS1_10ParseStateEE4typeEv
FNDA:0,_ZNK5Catch5clara6detail11BasicResultIvE4typeEv
FNDA:0,_ZNK5Catch5clara6detail11BasicResultINS1_15ParseResultTypeEE12errorMessageB5cxx11Ev
FNDA:0,_ZNK5Catch5clara6detail11BasicResultIvE12errorMessageB5cxx11Ev
FNDA:0,_ZNK5Catch5clara6detail11BasicResultINS1_10ParseStateEE12errorMessageB5cxx11Ev
FNDA:104,_ZNK5Catch5clara6detail11BasicResultINS1_15ParseResultTypeEE9enforceOkEv
FNDA:0,_ZNK5Catch5clara6detail11BasicResultIvE9enforceOkEv
FNDA:3863,_ZNK5Catch5clara6detail11BasicResultINS1_10ParseStateEE9enforceOkEv
FNDA:0,_ZN5Catch5clara6detail11BasicResultIvEC2ENS1_10ResultBase4TypeERKNSt7__cxx1112basic_stringIcSt11char_traitsIcESaIcEEE
FNDA:0,_ZN5Catch5clara6detail11BasicResultINS1_10ParseStateEEC2ENS1_10ResultBase4TypeERKNSt7__cxx1112basic_stringIcSt11char_traitsIcESaIcEEE
FNDA:0,_ZN5Catch5clara6detail11BasicResultINS1_15ParseResultTypeEEC2ENS1_10ResultBase4TypeERKNSt7__cxx1112basic_stringIcSt11char_traitsIcESaIcEEE
FNDA:1839,_ZN5Catch5clara6detail11BasicResultINS1_10ParseStateEECI2NS1_15ResultValueBaseIS3_EEENS1_10ResultBase4TypeERKS3_
FNDA:1790,_ZN5Catch5clara6detail11BasicResultIvECI2NS1_10ResultBaseEENS4_4TypeE
FNDA:247,_ZN5Catch5clara6detail11BasicResultINS1_15ParseResultTypeEECI2NS1_15ResultValueBaseIS3_EEENS1_10ResultBase4TypeERKS3_
FNDA:3678,_ZN5Catch5clara6detail10ParseStateC2ERKS2_
FNDA:5517,_ZN5Catch5clara6detail10ParseStateD2Ev
FNDA:1839,_ZN5Catch5clara6detail10ParseStateC2ENS1_15ParseResultTypeERKNS1_11TokenStreamE
FNDA:1910,_ZNK5Catch5clara6detail10ParseState4typeEv
FNDA:1953,_ZNK5Catch5clara6detail10ParseState15remainingTokensEv
FNDA:186,_ZN5Catch5clara6detail11HelpColumnsC2EOS2_
FNDA:0,_ZN5Catch5clara6detail11HelpColumnsaSERKS2_
FNDA:0,_ZN5Catch5clara6detail11HelpColumnsaSEOS2_
FNDA:348,_ZN5Catch5clara6detail11HelpColumnsC2ERKS2_
FNDA:708,_ZN5Catch5clara6detail11HelpColumnsD2Ev
FNDA:0,_ZN5Catch5clara6detail11convertIntoIiEENS1_11BasicResultINS1_15ParseResultTypeEEERKNSt7__cxx1112basic_stringIcSt11char_traitsIcESaIcEEERT_
FNDA:0,_ZN5Catch5clara6detail11convertIntoIdEENS1_11BasicResultINS1_15ParseResultTypeEEERKNSt7__cxx1112basic_stringIcSt11char_traitsIcESaIcEEERT_
FNDA:0,_ZN5Catch5clara6detail11convertIntoIjEENS1_11BasicResultINS1_15ParseResultTypeEEERKNSt7__cxx1112basic_stringIcSt11char_traitsIcESaIcEEERT_
FNDA:124,_ZN5Catch5clara6detail11convertIntoERKNSt7__cxx1112basic_stringIcSt11char_traitsIcESaIcEEERS7_
FNDA:25,_ZN5Catch5clara6detail11convertIntoERKNSt7__cxx1112basic_stringIcSt11char_traitsIcESaIcEEERb
FNDA:0,_ZZN5Catch5clara6detail11convertIntoERKNSt7__cxx1112basic_stringIcSt11char_traitsIcESaIcEEERbENUlcE_4_FUNEc
FNDA:75,_ZZN5Catch5clara6detail11convertIntoERKNSt7__cxx1112basic_stringIcSt11char_traitsIcESaIcEEERbENKUlcE_clEc
FNDA:1519,_ZN5Catch5clara6detail8BoundRefC2Ev
FNDA:0,_ZN5Catch5clara6detail8BoundRefD0Ev
FNDA:1519,_ZN5Catch5clara6detail8BoundRefD2Ev
FNDA:3542,_ZNK5Catch5clara6detail8BoundRef11isContainerEv
FNDA:100,_ZNK5Catch5clara6detail8BoundRef6isFlagEv
FNDA:0,_ZN5Catch5clara6detail17BoundValueRefBaseD0Ev
FNDA:882,_ZN5Catch5clara6detail17BoundValueRefBaseD2Ev
FNDA:882,_ZN5Catch5clara6detail17BoundValueRefBaseC2Ev
FNDA:0,_ZN5Catch5clara6detail16BoundFlagRefBaseD0Ev
FNDA:637,_ZN5Catch5clara6detail16BoundFlagRefBaseD2Ev
FNDA:637,_ZN5Catch5clara6detail16BoundFlagRefBaseC2Ev
FNDA:20,_ZNK5Catch5clara6detail16BoundFlagRefBase6isFlagEv
FNDA:0,_ZN5Catch5clara6detail13BoundValueRefINSt7__cxx1112basic_stringIcSt11char_traitsIcESaIcEEEED0Ev
FNDA:147,_ZN5Catch5clara6detail13BoundValueRefINSt7__cxx1112basic_stringIcSt11char_traitsIcESaIcEEEED2Ev
FNDA:0,_ZN5Catch5clara6detail13BoundValueRefIjED0Ev
FNDA:98,_ZN5Catch5clara6detail13BoundValueRefIjED2Ev
FNDA:0,_ZN5Catch5clara6detail13BoundValueRefIdED0Ev
FNDA:49,_ZN5Catch5clara6detail13BoundValueRefIdED2Ev
FNDA:49,_ZN5Catch5clara6detail13BoundValueRefIdEC2ERd
FNDA:98,_ZN5Catch5clara6detail13BoundValueRefIjEC2ERj
FNDA:147,_ZN5Catch5clara6detail13BoundValueRefINSt7__cxx1112basic_stringIcSt11char_traitsIcESaIcEEEEC2ERS8_
FNDA:49,_ZN5Catch5clara6detail13BoundValueRefINSt7__cxx1112basic_stringIcSt11char_traitsIcESaIcEEEE8setValueERKS8_
FNDA:0,_ZN5Catch5clara6detail13BoundValueRefIjE8setValueERKNSt7__cxx1112basic_stringIcSt11char_traitsIcESaIcEEE
FNDA:0,_ZN5Catch5clara6detail13BoundValueRefIdE8setValueERKNSt7__cxx1112basic_stringIcSt11char_traitsIcESaIcEEE
FNDA:0,_ZN5Catch5clara6detail13BoundValueRefISt6vectorINSt7__cxx1112basic_stringIcSt11char_traitsIcESaIcEEESaIS9_EEED0Ev
FNDA:98,_ZN5Catch5clara6detail13BoundValueRefISt6vectorINSt7__cxx1112basic_stringIcSt11char_traitsIcESaIcEEESaIS9_EEED2Ev
FNDA:98,_ZN5Catch5clara6detail13BoundValueRefISt6vectorINSt7__cxx1112basic_stringIcSt11char_traitsIcESaIcEEESaIS9_EEEC2ERSB_
FNDA:78,_ZNK5Catch5clara6detail13BoundValueRefISt6vectorINSt7__cxx1112basic_stringIcSt11char_traitsIcESaIcEEESaIS9_EEE11isContainerEv
FNDA:22,_ZN5Catch5clara6detail13BoundValueRefISt6vectorINSt7__cxx1112basic_stringIcSt11char_traitsIcESaIcEEESaIS9_EEE8setValueERKS9_
FNDA:0,_ZN5Catch5clara6detail12BoundFlagRefD0Ev
FNDA:539,_ZN5Catch5clara6detail12BoundFlagRefD2Ev
FNDA:539,_ZN5Catch5clara6detail12BoundFlagRefC2ERb
FNDA:14,_ZN5Catch5clara6detail12BoundFlagRef7setFlagEb
FNDA:25,_ZN5Catch5clara6detail13LambdaInvokerINS1_11BasicResultINS1_15ParseResultTypeEEEE6invokeIZNS_21makeCommandLineParserERNS_10ConfigDataEEUlRKNSt7__cxx1112basic_stringIcSt11char_traitsIcESaIcEEEE6_SF_EES5_RKT_RKT0_
FNDA:0,_ZN5Catch5clara6detail13LambdaInvokerINS1_11BasicResultINS1_15ParseResultTypeEEEE6invokeIZNS_21makeCommandLineParserERNS_10ConfigDataEEUlRKNSt7__cxx1112basic_stringIcSt11char_traitsIcESaIcEEEE_SF_EES5_RKT_RKT0_
FNDA:0,_ZN5Catch5clara6detail13LambdaInvokerINS1_11BasicResultINS1_15ParseResultTypeEEEE6invokeIZNS_21makeCommandLineParserERNS_10ConfigDataEEUlRKNSt7__cxx1112basic_stringIcSt11char_traitsIcESaIcEEEE0_SF_EES5_RKT_RKT0_
FNDA:14,_ZN5Catch5clara6detail13LambdaInvokerINS1_11BasicResultINS1_15ParseResultTypeEEEE6invokeIZNS_21makeCommandLineParserERNS_10ConfigDataEEUlRKNSt7__cxx1112basic_stringIcSt11char_traitsIcESaIcEEEE5_SF_EES5_RKT_RKT0_
FNDA:0,_ZN5Catch5clara6detail13LambdaInvokerINS1_11BasicResultINS1_15ParseResultTypeEEEE6invokeIZNS_21makeCommandLineParserERNS_10ConfigDataEEUlRKNSt7__cxx1112basic_stringIcSt11char_traitsIcESaIcEEEE1_SF_EES5_RKT_RKT0_
FNDA:0,_ZN5Catch5clara6detail13LambdaInvokerINS1_11BasicResultINS1_15ParseResultTypeEEEE6invokeIZNS_21makeCommandLineParserERNS_10ConfigDataEEUlRKNSt7__cxx1112basic_stringIcSt11char_traitsIcESaIcEEEE2_SF_EES5_RKT_RKT0_
FNDA:14,_ZN5Catch5clara6detail13LambdaInvokerINS1_11BasicResultINS1_15ParseResultTypeEEEE6invokeIZNS_21makeCommandLineParserERNS_10ConfigDataEEUlRKNSt7__cxx1112basic_stringIcSt11char_traitsIcESaIcEEEE3_SF_EES5_RKT_RKT0_
FNDA:0,_ZN5Catch5clara6detail13LambdaInvokerINS1_11BasicResultINS1_15ParseResultTypeEEEE6invokeIZNS_21makeCommandLineParserERNS_10ConfigDataEEUlRKNSt7__cxx1112basic_stringIcSt11char_traitsIcESaIcEEEE4_SF_EES5_RKT_RKT0_
FNDA:6,_ZN5Catch5clara6detail13LambdaInvokerINS1_11BasicResultINS1_15ParseResultTypeEEEE6invokeIZNS1_4HelpC4ERbEUlbE_bEES5_RKT_RKT0_
FNDA:0,_ZN5Catch5clara6detail13LambdaInvokerIvE6invokeIZNS_21makeCommandLineParserERNS_10ConfigDataEEUliE8_iEENS1_11BasicResultINS1_15ParseResultTypeEEERKT_RKT0_
FNDA:25,_ZN5Catch5clara6detail13LambdaInvokerIvE6invokeIZNS_21makeCommandLineParserERNS_10ConfigDataEEUlbE9_bEENS1_11BasicResultINS1_15ParseResultTypeEEERKT_RKT0_
FNDA:0,_ZN5Catch5clara6detail13LambdaInvokerIvE6invokeIZNS_21makeCommandLineParserERNS_10ConfigDataEEUlbE7_bEENS1_11BasicResultINS1_15ParseResultTypeEEERKT_RKT0_
FNDA:25,_ZN5Catch5clara6detail12invokeLambdaINSt7__cxx1112basic_stringIcSt11char_traitsIcESaIcEEEZNS_21makeCommandLineParserERNS_10ConfigDataEEUlRKS8_E6_EENS1_11BasicResultINS1_15ParseResultTypeEEERKT0_SC_
FNDA:0,_ZN5Catch5clara6detail12invokeLambdaIiZNS_21makeCommandLineParserERNS_10ConfigDataEEUliE8_EENS1_11BasicResultINS1_15ParseResultTypeEEERKT0_RKNSt7__cxx1112basic_stringIcSt11char_traitsIcESaIcEEE
FNDA:0,_ZN5Catch5clara6detail12invokeLambdaINSt7__cxx1112basic_stringIcSt11char_traitsIcESaIcEEEZNS_21makeCommandLineParserERNS_10ConfigDataEEUlRKS8_E_EENS1_11BasicResultINS1_15ParseResultTypeEEERKT0_SC_
FNDA:25,_ZN5Catch5clara6detail12invokeLambdaIbZNS_21makeCommandLineParserERNS_10ConfigDataEEUlbE9_EENS1_11BasicResultINS1_15ParseResultTypeEEERKT0_RKNSt7__cxx1112basic_stringIcSt11char_traitsIcESaIcEEE
FNDA:0,_ZN5Catch5clara6detail12invokeLambdaINSt7__cxx1112basic_stringIcSt11char_traitsIcESaIcEEEZNS_21makeCommandLineParserERNS_10ConfigDataEEUlRKS8_E0_EENS1_11BasicResultINS1_15ParseResultTypeEEERKT0_SC_
FNDA:14,_ZN5Catch5clara6detail12invokeLambdaINSt7__cxx1112basic_stringIcSt11char_traitsIcESaIcEEEZNS_21makeCommandLineParserERNS_10ConfigDataEEUlRKS8_E5_EENS1_11BasicResultINS1_15ParseResultTypeEEERKT0_SC_
FNDA:0,_ZN5Catch5clara6detail12invokeLambdaINSt7__cxx1112basic_stringIcSt11char_traitsIcESaIcEEEZNS_21makeCommandLineParserERNS_10ConfigDataEEUlRKS8_E1_EENS1_11BasicResultINS1_15ParseResultTypeEEERKT0_SC_
FNDA:0,_ZN5Catch5clara6detail12invokeLambdaINSt7__cxx1112basic_stringIcSt11char_traitsIcESaIcEEEZNS_21makeCommandLineParserERNS_10ConfigDataEEUlRKS8_E2_EENS1_11BasicResultINS1_15ParseResultTypeEEERKT0_SC_
FNDA:14,_ZN5Catch5clara6detail12invokeLambdaINSt7__cxx1112basic_stringIcSt11char_traitsIcESaIcEEEZNS_21makeCommandLineParserERNS_10ConfigDataEEUlRKS8_E3_EENS1_11BasicResultINS1_15ParseResultTypeEEERKT0_SC_
FNDA:0,_ZN5Catch5clara6detail12invokeLambdaINSt7__cxx1112basic_stringIcSt11char_traitsIcESaIcEEEZNS_21makeCommandLineParserERNS_10ConfigDataEEUlRKS8_E4_EENS1_11BasicResultINS1_15ParseResultTypeEEERKT0_SC_
FNDA:0,_ZN5Catch5clara6detail11BoundLambdaIZNS_21makeCommandLineParserERNS_10ConfigDataEEUlRKNSt7__cxx1112basic_stringIcSt11char_traitsIcESaIcEEEE6_ED0Ev
FNDA:49,_ZN5Catch5clara6detail11BoundLambdaIZNS_21makeCommandLineParserERNS_10ConfigDataEEUlRKNSt7__cxx1112basic_stringIcSt11char_traitsIcESaIcEEEE6_ED2Ev
FNDA:0,_ZN5Catch5clara6detail11BoundLambdaIZNS_21makeCommandLineParserERNS_10ConfigDataEEUliE8_ED0Ev
FNDA:49,_ZN5Catch5clara6detail11BoundLambdaIZNS_21makeCommandLineParserERNS_10ConfigDataEEUliE8_ED2Ev
FNDA:0,_ZN5Catch5clara6detail11BoundLambdaIZNS_21makeCommandLineParserERNS_10ConfigDataEEUlRKNSt7__cxx1112basic_stringIcSt11char_traitsIcESaIcEEEE_ED0Ev
FNDA:49,_ZN5Catch5clara6detail11BoundLambdaIZNS_21makeCommandLineParserERNS_10ConfigDataEEUlRKNSt7__cxx1112basic_stringIcSt11char_traitsIcESaIcEEEE_ED2Ev
FNDA:0,_ZN5Catch5clara6detail11BoundLambdaIZNS_21makeCommandLineParserERNS_10ConfigDataEEUlbE9_ED0Ev
FNDA:49,_ZN5Catch5clara6detail11BoundLambdaIZNS_21makeCommandLineParserERNS_10ConfigDataEEUlbE9_ED2Ev
FNDA:0,_ZN5Catch5clara6detail11BoundLambdaIZNS_21makeCommandLineParserERNS_10ConfigDataEEUlRKNSt7__cxx1112basic_stringIcSt11char_traitsIcESaIcEEEE0_ED0Ev
FNDA:49,_ZN5Catch5clara6detail11BoundLambdaIZNS_21makeCommandLineParserERNS_10ConfigDataEEUlRKNSt7__cxx1112basic_stringIcSt11char_traitsIcESaIcEEEE0_ED2Ev
FNDA:0,_ZN5Catch5clara6detail11BoundLambdaIZNS_21makeCommandLineParserERNS_10ConfigDataEEUlRKNSt7__cxx1112basic_stringIcSt11char_traitsIcESaIcEEEE5_ED0Ev
FNDA:49,_ZN5Catch5clara6detail11BoundLambdaIZNS_21makeCommandLineParserERNS_10ConfigDataEEUlRKNSt7__cxx1112basic_stringIcSt11char_traitsIcESaIcEEEE5_ED2Ev
FNDA:0,_ZN5Catch5clara6detail11BoundLambdaIZNS_21makeCommandLineParserERNS_10ConfigDataEEUlRKNSt7__cxx1112basic_stringIcSt11char_traitsIcESaIcEEEE1_ED0Ev
FNDA:49,_ZN5Catch5clara6detail11BoundLambdaIZNS_21makeCommandLineParserERNS_10ConfigDataEEUlRKNSt7__cxx1112basic_stringIcSt11char_traitsIcESaIcEEEE1_ED2Ev
FNDA:0,_ZN5Catch5clara6detail11BoundLambdaIZNS_21makeCommandLineParserERNS_10ConfigDataEEUlRKNSt7__cxx1112basic_stringIcSt11char_traitsIcESaIcEEEE2_ED0Ev
FNDA:49,_ZN5Catch5clara6detail11BoundLambdaIZNS_21makeCommandLineParserERNS_10ConfigDataEEUlRKNSt7__cxx1112basic_stringIcSt11char_traitsIcESaIcEEEE2_ED2Ev
FNDA:0,_ZN5Catch5clara6detail11BoundLambdaIZNS_21makeCommandLineParserERNS_10ConfigDataEEUlRKNSt7__cxx1112basic_stringIcSt11char_traitsIcESaIcEEEE3_ED0Ev
FNDA:49,_ZN5Catch5clara6detail11BoundLambdaIZNS_21makeCommandLineParserERNS_10ConfigDataEEUlRKNSt7__cxx1112basic_stringIcSt11char_traitsIcESaIcEEEE3_ED2Ev
FNDA:0,_ZN5Catch5clara6detail11BoundLambdaIZNS_21makeCommandLineParserERNS_10ConfigDataEEUlRKNSt7__cxx1112basic_stringIcSt11char_traitsIcESaIcEEEE4_ED0Ev
FNDA:49,_ZN5Catch5clara6detail11BoundLambdaIZNS_21makeCommandLineParserERNS_10ConfigDataEEUlRKNSt7__cxx1112basic_stringIcSt11char_traitsIcESaIcEEEE4_ED2Ev
FNDA:49,_ZN5Catch5clara6detail11BoundLambdaIZNS_21makeCommandLineParserERNS_10ConfigDataEEUlRKNSt7__cxx1112basic_stringIcSt11char_traitsIcESaIcEEEE4_EC2ERKSD_
FNDA:49,_ZN5Catch5clara6detail11BoundLambdaIZNS_21makeCommandLineParserERNS_10ConfigDataEEUlRKNSt7__cxx1112basic_stringIcSt11char_traitsIcESaIcEEEE3_EC2ERKSD_
FNDA:49,_ZN5Catch5clara6detail11BoundLambdaIZNS_21makeCommandLineParserERNS_10ConfigDataEEUlRKNSt7__cxx1112basic_stringIcSt11char_traitsIcESaIcEEEE2_EC2ERKSD_
FNDA:49,_ZN5Catch5clara6detail11BoundLambdaIZNS_21makeCommandLineParserERNS_10ConfigDataEEUlRKNSt7__cxx1112basic_stringIcSt11char_traitsIcESaIcEEEE1_EC2ERKSD_
FNDA:49,_ZN5Catch5clara6detail11BoundLambdaIZNS_21makeCommandLineParserERNS_10ConfigDataEEUlRKNSt7__cxx1112basic_stringIcSt11char_traitsIcESaIcEEEE5_EC2ERKSD_
FNDA:49,_ZN5Catch5clara6detail11BoundLambdaIZNS_21makeCommandLineParserERNS_10ConfigDataEEUlRKNSt7__cxx1112basic_stringIcSt11char_traitsIcESaIcEEEE0_EC2ERKSD_
FNDA:49,_ZN5Catch5clara6detail11BoundLambdaIZNS_21makeCommandLineParserERNS_10ConfigDataEEUlbE9_EC2ERKS5_
FNDA:49,_ZN5Catch5clara6detail11BoundLambdaIZNS_21makeCommandLineParserERNS_10ConfigDataEEUlRKNSt7__cxx1112basic_stringIcSt11char_traitsIcESaIcEEEE_EC2ERKSD_
FNDA:49,_ZN5Catch5clara6detail11BoundLambdaIZNS_21makeCommandLineParserERNS_10ConfigDataEEUliE8_EC2ERKS5_
FNDA:49,_ZN5Catch5clara6detail11BoundLambdaIZNS_21makeCommandLineParserERNS_10ConfigDataEEUlRKNSt7__cxx1112basic_stringIcSt11char_traitsIcESaIcEEEE6_EC2ERKSD_
FNDA:25,_ZN5Catch5clara6detail11BoundLambdaIZNS_21makeCommandLineParserERNS_10ConfigDataEEUlRKNSt7__cxx1112basic_stringIcSt11char_traitsIcESaIcEEEE6_E8setValueESC_
FNDA:0,_ZN5Catch5clara6detail11BoundLambdaIZNS_21makeCommandLineParserERNS_10ConfigDataEEUliE8_E8setValueERKNSt7__cxx1112basic_stringIcSt11char_traitsIcESaIcEEE
FNDA:0,_ZN5Catch5clara6detail11BoundLambdaIZNS_21makeCommandLineParserERNS_10ConfigDataEEUlRKNSt7__cxx1112basic_stringIcSt11char_traitsIcESaIcEEEE_E8setValueESC_
FNDA:25,_ZN5Catch5clara6detail11BoundLambdaIZNS_21makeCommandLineParserERNS_10ConfigDataEEUlbE9_E8setValueERKNSt7__cxx1112basic_stringIcSt11char_traitsIcESaIcEEE
FNDA:0,_ZN5Catch5clara6detail11BoundLambdaIZNS_21makeCommandLineParserERNS_10ConfigDataEEUlRKNSt7__cxx1112basic_stringIcSt11char_traitsIcESaIcEEEE0_E8setValueESC_
FNDA:14,_ZN5Catch5clara6detail11BoundLambdaIZNS_21makeCommandLineParserERNS_10ConfigDataEEUlRKNSt7__cxx1112basic_stringIcSt11char_traitsIcESaIcEEEE5_E8setValueESC_
FNDA:0,_ZN5Catch5clara6detail11BoundLambdaIZNS_21makeCommandLineParserERNS_10ConfigDataEEUlRKNSt7__cxx1112basic_stringIcSt11char_traitsIcESaIcEEEE1_E8setValueESC_
FNDA:0,_ZN5Catch5clara6detail11BoundLambdaIZNS_21makeCommandLineParserERNS_10ConfigDataEEUlRKNSt7__cxx1112basic_stringIcSt11char_traitsIcESaIcEEEE2_E8setValueESC_
FNDA:14,_ZN5Catch5clara6detail11BoundLambdaIZNS_21makeCommandLineParserERNS_10ConfigDataEEUlRKNSt7__cxx1112basic_stringIcSt11char_traitsIcESaIcEEEE3_E8setValueESC_
FNDA:0,_ZN5Catch5clara6detail11BoundLambdaIZNS_21makeCommandLineParserERNS_10ConfigDataEEUlRKNSt7__cxx1112basic_stringIcSt11char_traitsIcESaIcEEEE4_E8setValueESC_
FNDA:0,_ZN5Catch5clara6detail15BoundFlagLambdaIZNS1_4HelpC4ERbEUlbE_ED0Ev
FNDA:49,_ZN5Catch5clara6detail15BoundFlagLambdaIZNS1_4HelpC4ERbEUlbE_ED2Ev
FNDA:0,_ZN5Catch5clara6detail15BoundFlagLambdaIZNS_21makeCommandLineParserERNS_10ConfigDataEEUlbE7_ED0Ev
FNDA:49,_ZN5Catch5clara6detail15BoundFlagLambdaIZNS_21makeCommandLineParserERNS_10ConfigDataEEUlbE7_ED2Ev
FNDA:49,_ZN5Catch5clara6detail15BoundFlagLambdaIZNS_21makeCommandLineParserERNS_10ConfigDataEEUlbE7_EC2ERKS5_
FNDA:49,_ZN5Catch5clara6detail15BoundFlagLambdaIZNS1_4HelpC4ERbEUlbE_EC2ERKS5_
FNDA:6,_ZN5Catch5clara6detail15BoundFlagLambdaIZNS1_4HelpC4ERbEUlbE_E7setFlagEb
FNDA:0,_ZN5Catch5clara6detail15BoundFlagLambdaIZNS_21makeCommandLineParserERNS_10ConfigDataEEUlbE7_E7setFlagEb
FNDA:71540,_ZN5Catch5clara6detail10ParserBaseC2ERKS2_
FNDA:147,_ZN5Catch5clara6detail10ParserBaseaSERKS2_
FNDA:1715,_ZN5Catch5clara6detail10ParserBaseC2Ev
FNDA:0,_ZN5Catch5clara6detail10ParserBaseD0Ev
FNDA:73255,_ZN5Catch5clara6detail10ParserBaseD2Ev
FNDA:1790,_ZNK5Catch5clara6detail10ParserBase8validateEv
FNDA:0,_ZNK5Catch5clara6detail10ParserBase11cardinalityEv
FNDA:49,_ZNK5Catch5clara6detail10ParserBase5parseERKNS1_4ArgsE
FNDA:19894,_ZN5Catch5clara6detail20ComposableParserImplINS1_3OptEEC2EOS4_
FNDA:0,_ZN5Catch5clara6detail20ComposableParserImplINS1_3ArgEEC2EOS4_
FNDA:0,_ZN5Catch5clara6detail20ComposableParserImplINS1_3ArgEEaSERKS4_
FNDA:0,_ZN5Catch5clara6detail20ComposableParserImplINS1_3OptEEaSERKS4_
FNDA:45472,_ZN5Catch5clara6detail20ComposableParserImplINS1_3OptEEC2ERKS4_
FNDA:98,_ZN5Catch5clara6detail20ComposableParserImplINS1_3ArgEEC2ERKS4_
FNDA:49,_ZN5Catch5clara6detail20ComposableParserImplINS1_3ArgEEC2Ev
FNDA:3038,_ZN5Catch5clara6detail20ComposableParserImplINS1_7ExeNameEEC2ERKS4_
FNDA:1421,_ZN5Catch5clara6detail20ComposableParserImplINS1_3OptEEC2Ev
FNDA:49,_ZN5Catch5clara6detail20ComposableParserImplINS1_7ExeNameEEaSEOS4_
FNDA:0,_ZN5Catch5clara6detail20ComposableParserImplINS1_3ArgEED0Ev
FNDA:147,_ZN5Catch5clara6detail20ComposableParserImplINS1_3ArgEED2Ev
FNDA:49,_ZN5Catch5clara6detail20ComposableParserImplINS1_7ExeNameEEaSERKS4_
FNDA:0,_ZN5Catch5clara6detail20ComposableParserImplINS1_3OptEED0Ev
FNDA:66787,_ZN5Catch5clara6detail20ComposableParserImplINS1_3OptEED2Ev
FNDA:0,_ZN5Catch5clara6detail20ComposableParserImplINS1_7ExeNameEED0Ev
FNDA:3185,_ZN5Catch5clara6detail20ComposableParserImplINS1_7ExeNameEED2Ev
FNDA:147,_ZN5Catch5clara6detail20ComposableParserImplINS1_7ExeNameEEC2Ev
FNDA:19894,_ZN5Catch5clara6detail13ParserRefImplINS1_3OptEEC2EOS4_
FNDA:0,_ZN5Catch5clara6detail13ParserRefImplINS1_3ArgEEC2EOS4_
FNDA:0,_ZN5Catch5clara6detail13ParserRefImplINS1_3ArgEEaSERKS4_
FNDA:0,_ZN5Catch5clara6detail13ParserRefImplINS1_3OptEEaSERKS4_
FNDA:45472,_ZN5Catch5clara6detail13ParserRefImplINS1_3OptEEC2ERKS4_
FNDA:98,_ZN5Catch5clara6detail13ParserRefImplINS1_3ArgEEC2ERKS4_
FNDA:0,_ZN5Catch5clara6detail13ParserRefImplINS1_3ArgEED0Ev
FNDA:147,_ZN5Catch5clara6detail13ParserRefImplINS1_3ArgEED2Ev
FNDA:0,_ZN5Catch5clara6detail13ParserRefImplINS1_3OptEED0Ev
FNDA:66787,_ZN5Catch5clara6detail13ParserRefImplINS1_3OptEED2Ev
FNDA:637,_ZN5Catch5clara6detail13ParserRefImplINS1_3OptEEC2ERKSt10shared_ptrINS1_8BoundRefEE
FNDA:49,_ZN5Catch5clara6detail13ParserRefImplINS1_3OptEEC2IdEERT_RKNSt7__cxx1112basic_stringIcSt11char_traitsIcESaIcEEE
FNDA:98,_ZN5Catch5clara6detail13ParserRefImplINS1_3OptEEC2IjEERT_RKNSt7__cxx1112basic_stringIcSt11char_traitsIcESaIcEEE
FNDA:49,_ZN5Catch5clara6detail13ParserRefImplINS1_3OptEEC2ISt6vectorINSt7__cxx1112basic_stringIcSt11char_traitsIcESaIcEEESaISC_EEEERT_RKSC_
FNDA:98,_ZN5Catch5clara6detail13ParserRefImplINS1_3OptEEC2INSt7__cxx1112basic_stringIcSt11char_traitsIcESaIcEEEEERT_RKSB_
FNDA:49,_ZN5Catch5clara6detail13ParserRefImplINS1_3ArgEEC2ISt6vectorINSt7__cxx1112basic_stringIcSt11char_traitsIcESaIcEEESaISC_EEEERT_RKSC_
FNDA:49,_ZN5Catch5clara6detail13ParserRefImplINS1_3OptEEC2IZNS_21makeCommandLineParserERNS_10ConfigDataEEUlRKNSt7__cxx1112basic_stringIcSt11char_traitsIcESaIcEEEE4_EERKT_SF_
FNDA:49,_ZN5Catch5clara6detail13ParserRefImplINS1_3OptEEC2IZNS_21makeCommandLineParserERNS_10ConfigDataEEUlRKNSt7__cxx1112basic_stringIcSt11char_traitsIcESaIcEEEE3_EERKT_SF_
FNDA:49,_ZN5Catch5clara6detail13ParserRefImplINS1_3OptEEC2IZNS_21makeCommandLineParserERNS_10ConfigDataEEUlRKNSt7__cxx1112basic_stringIcSt11char_traitsIcESaIcEEEE2_EERKT_SF_
FNDA:49,_ZN5Catch5clara6detail13ParserRefImplINS1_3OptEEC2IZNS_21makeCommandLineParserERNS_10ConfigDataEEUlRKNSt7__cxx1112basic_stringIcSt11char_traitsIcESaIcEEEE1_EERKT_SF_
FNDA:49,_ZN5Catch5clara6detail13ParserRefImplINS1_3OptEEC2IZNS_21makeCommandLineParserERNS_10ConfigDataEEUlRKNSt7__cxx1112basic_stringIcSt11char_traitsIcESaIcEEEE5_EERKT_SF_
FNDA:49,_ZN5Catch5clara6detail13ParserRefImplINS1_3OptEEC2IZNS_21makeCommandLineParserERNS_10ConfigDataEEUlRKNSt7__cxx1112basic_stringIcSt11char_traitsIcESaIcEEEE0_EERKT_SF_
FNDA:49,_ZN5Catch5clara6detail13ParserRefImplINS1_3OptEEC2IZNS_21makeCommandLineParserERNS_10ConfigDataEEUlbE9_EERKT_RKNSt7__cxx1112basic_stringIcSt11char_traitsIcESaIcEEE
FNDA:49,_ZN5Catch5clara6detail13ParserRefImplINS1_3OptEEC2IZNS_21makeCommandLineParserERNS_10ConfigDataEEUlRKNSt7__cxx1112basic_stringIcSt11char_traitsIcESaIcEEEE_EERKT_SF_
FNDA:49,_ZN5Catch5clara6detail13ParserRefImplINS1_3OptEEC2IZNS_21makeCommandLineParserERNS_10ConfigDataEEUliE8_EERKT_RKNSt7__cxx1112basic_stringIcSt11char_traitsIcESaIcEEE
FNDA:49,_ZN5Catch5clara6detail13ParserRefImplINS1_3OptEEC2IZNS_21makeCommandLineParserERNS_10ConfigDataEEUlRKNSt7__cxx1112basic_stringIcSt11char_traitsIcESaIcEEEE6_EERKT_SF_
FNDA:49,_ZN5Catch5clara6detail13ParserRefImplINS1_3ArgEEclERKNSt7__cxx1112basic_stringIcSt11char_traitsIcESaIcEEE
FNDA:1421,_ZN5Catch5clara6detail13ParserRefImplINS1_3OptEEclERKNSt7__cxx1112basic_stringIcSt11char_traitsIcESaIcEEE
FNDA:49,_ZN5Catch5clara6detail13ParserRefImplINS1_3OptEE8optionalEv
FNDA:6,_ZNK5Catch5clara6detail13ParserRefImplINS1_3ArgEE10isOptionalEv
FNDA:3592,_ZNK5Catch5clara6detail13ParserRefImplINS1_3OptEE11cardinalityEv
FNDA:28,_ZNK5Catch5clara6detail13ParserRefImplINS1_3ArgEE11cardinalityEv
FNDA:6,_ZNK5Catch5clara6detail13ParserRefImplINS1_3ArgEE4hintB5cxx11Ev
FNDA:0,_ZN5Catch5clara6detail7ExeNameD0Ev
FNDA:3185,_ZN5Catch5clara6detail7ExeNameD2Ev
FNDA:3038,_ZN5Catch5clara6detail7ExeNameC2ERKS2_
FNDA:49,_ZN5Catch5clara6detail7ExeNameaSEOS2_
FNDA:49,_ZN5Catch5clara6detail7ExeNameaSERKS2_
FNDA:147,_ZN5Catch5clara6detail7ExeNameC2Ev
FNDA:49,_ZN5Catch5clara6detail7ExeNameC2ERNSt7__cxx1112basic_stringIcSt11char_traitsIcESaIcEEE
FNDA:0,_ZNK5Catch5clara6detail7ExeName5parseERKNSt7__cxx1112basic_stringIcSt11char_traitsIcESaIcEEERKNS1_11TokenStreamE
FNDA:12,_ZNK5Catch5clara6detail7ExeName4nameB5cxx11Ev
FNDA:49,_ZN5Catch5clara6detail7ExeName3setERKNSt7__cxx1112basic_stringIcSt11char_traitsIcESaIcEEE
FNDA:0,_ZN5Catch5clara6detail3ArgD0Ev
FNDA:147,_ZN5Catch5clara6detail3ArgD2Ev
FNDA:0,_ZN5Catch5clara6detail3ArgC2EOS2_
FNDA:0,_ZN5Catch5clara6detail3ArgaSERKS2_
FNDA:98,_ZN5Catch5clara6detail3ArgC2ERKS2_
FNDA:49,_ZN5Catch5clara6detail3ArgCI2NS1_13ParserRefImplIS2_EEISt6vectorINSt7__cxx1112basic_stringIcSt11char_traitsIcESaIcEEESaISC_EEEERT_RKSC_
FNDA:22,_ZNK5Catch5clara6detail3Arg5parseERKNSt7__cxx1112basic_stringIcSt11char_traitsIcESaIcEEERKNS1_11TokenStreamE
FNDA:3418,_ZN5Catch5clara6detail12normaliseOptERKNSt7__cxx1112basic_stringIcSt11char_traitsIcESaIcEEE
FNDA:19894,_ZN5Catch5clara6detail3OptC2EOS2_
FNDA:0,_ZN5Catch5clara6detail3OptaSERKS2_
FNDA:45472,_ZN5Catch5clara6detail3OptC2ERKS2_
FNDA:0,_ZN5Catch5clara6detail3OptD0Ev
FNDA:66787,_ZN5Catch5clara6detail3OptD2Ev
FNDA:49,_ZN5Catch5clara6detail3OptC2IZNS_21makeCommandLineParserERNS_10ConfigDataEEUlbE7_EERKT_
FNDA:49,_ZN5Catch5clara6detail3OptC2IZNS1_4HelpC4ERbEUlbE_EERKT_
FNDA:539,_ZN5Catch5clara6detail3OptC2ERb
FNDA:49,_ZN5Catch5clara6detail3OptC2IZNS_21makeCommandLineParserERNS_10ConfigDataEEUlRKNSt7__cxx1112basic_stringIcSt11char_traitsIcESaIcEEEE4_EERKT_SD_
FNDA:49,_ZN5Catch5clara6detail3OptC2IZNS_21makeCommandLineParserERNS_10ConfigDataEEUlRKNSt7__cxx1112basic_stringIcSt11char_traitsIcESaIcEEEE3_EERKT_SD_
FNDA:49,_ZN5Catch5clara6detail3OptC2IZNS_21makeCommandLineParserERNS_10ConfigDataEEUlRKNSt7__cxx1112basic_stringIcSt11char_traitsIcESaIcEEEE2_EERKT_SD_
FNDA:49,_ZN5Catch5clara6detail3OptC2IZNS_21makeCommandLineParserERNS_10ConfigDataEEUlRKNSt7__cxx1112basic_stringIcSt11char_traitsIcESaIcEEEE1_EERKT_SD_
FNDA:49,_ZN5Catch5clara6detail3OptC2IZNS_21makeCommandLineParserERNS_10ConfigDataEEUlRKNSt7__cxx1112basic_stringIcSt11char_traitsIcESaIcEEEE5_EERKT_SD_
FNDA:49,_ZN5Catch5clara6detail3OptC2IZNS_21makeCommandLineParserERNS_10ConfigDataEEUlRKNSt7__cxx1112basic_stringIcSt11char_traitsIcESaIcEEEE0_EERKT_SD_
FNDA:49,_ZN5Catch5clara6detail3OptC2IZNS_21makeCommandLineParserERNS_10ConfigDataEEUlbE9_EERKT_RKNSt7__cxx1112basic_stringIcSt11char_traitsIcESaIcEEE
FNDA:49,_ZN5Catch5clara6detail3OptC2IZNS_21makeCommandLineParserERNS_10ConfigDataEEUlRKNSt7__cxx1112basic_stringIcSt11char_traitsIcESaIcEEEE_EERKT_SD_
FNDA:49,_ZN5Catch5clara6detail3OptC2IZNS_21makeCommandLineParserERNS_10ConfigDataEEUliE8_EERKT_RKNSt7__cxx1112basic_stringIcSt11char_traitsIcESaIcEEE
FNDA:49,_ZN5Catch5clara6detail3OptC2IZNS_21makeCommandLineParserERNS_10ConfigDataEEUlRKNSt7__cxx1112basic_stringIcSt11char_traitsIcESaIcEEEE6_EERKT_SD_
FNDA:49,_ZN5Catch5clara6detail3OptC2IdEERT_RKNSt7__cxx1112basic_stringIcSt11char_traitsIcESaIcEEE
FNDA:98,_ZN5Catch5clara6detail3OptC2IjEERT_RKNSt7__cxx1112basic_stringIcSt11char_traitsIcESaIcEEE
FNDA:49,_ZN5Catch5clara6detail3OptC2ISt6vectorINSt7__cxx1112basic_stringIcSt11char_traitsIcESaIcEEESaISA_EEEERT_RKSA_
FNDA:98,_ZN5Catch5clara6detail3OptC2INSt7__cxx1112basic_stringIcSt11char_traitsIcESaIcEEEEERT_RKS9_
FNDA:2352,_ZN5Catch5clara6detail3OptixERKNSt7__cxx1112basic_stringIcSt11char_traitsIcESaIcEEE
FNDA:174,_ZNK5Catch5clara6detail3Opt14getHelpColumnsEv
FNDA:1130,_ZNK5Catch5clara6detail3Opt7isMatchERKNSt7__cxx1112basic_stringIcSt11char_traitsIcESaIcEEE
FNDA:1768,_ZNK5Catch5clara6detail3Opt5parseERKNSt7__cxx1112basic_stringIcSt11char_traitsIcESaIcEEERKNS1_11TokenStreamE
FNDA:1768,_ZNK5Catch5clara6detail3Opt8validateEv
FNDA:0,_ZN5Catch5clara6detail4HelpD0Ev
FNDA:49,_ZN5Catch5clara6detail4HelpD2Ev
FNDA:49,_ZN5Catch5clara6detail4HelpC2ERb
FNDA:6,_ZZN5Catch5clara6detail4HelpC4ERbENKUlbE_clEb
FNDA:0,_ZN5Catch5clara6detail6ParserD0Ev
FNDA:3136,_ZN5Catch5clara6detail6ParserD2Ev
FNDA:3038,_ZN5Catch5clara6detail6ParserC2ERKS2_
FNDA:0,_ZN5Catch5clara6detail6ParseraSERKS2_
FNDA:49,_ZN5Catch5clara6detail6ParseraSEOS2_
FNDA:98,_ZN5Catch5clara6detail6ParserC2Ev
FNDA:49,_ZN5Catch5clara6detail6ParseroRERKNS1_7ExeNameE
FNDA:49,_ZN5Catch5clara6detail6ParseroRERKNS1_3ArgE
FNDA:1421,_ZN5Catch5clara6detail6ParseroRERKNS1_3OptE
FNDA:49,_ZNK5Catch5clara6detail6ParserorINS1_4HelpEEES2_RKT_
FNDA:49,_ZNK5Catch5clara6detail6ParserorINS1_7ExeNameEEES2_RKT_
FNDA:49,_ZNK5Catch5clara6detail6ParserorINS1_3ArgEEES2_RKT_
FNDA:1372,_ZNK5Catch5clara6detail6ParserorINS1_3OptEEES2_RKT_
FNDA:6,_ZNK5Catch5clara6detail6Parser14getHelpColumnsEv
FNDA:6,_ZNK5Catch5clara6detail6Parser13writeToStreamERSo
FNDA:6,_ZN5Catch5clara6detaillsERSoRKNS1_6ParserE
FNDA:0,_ZNK5Catch5clara6detail6Parser8validateEv
FNDA:49,_ZNK5Catch5clara6detail6Parser5parseERKNSt7__cxx1112basic_stringIcSt11char_traitsIcESaIcEEERKNS1_11TokenStreamE
FNDA:49,_ZNK5Catch5clara6detail20ComposableParserImplINS1_7ExeNameEEorINS1_4HelpEEENS1_6ParserERKT_
FNDA:49,_ZN5Catch21makeCommandLineParserERNS_10ConfigDataE
FNDA:0,_ZZN5Catch21makeCommandLineParserERNS_10ConfigDataEENKUlRKNSt7__cxx1112basic_stringIcSt11char_traitsIcESaIcEEEE_clES9_
FNDA:0,_ZZZN5Catch21makeCommandLineParserERNS_10ConfigDataEENKUlRKNSt7__cxx1112basic_stringIcSt11char_traitsIcESaIcEEEE_clES9_ENKUlvE_clEv
FNDA:0,_ZZN5Catch21makeCommandLineParserERNS_10ConfigDataEENKUlRKNSt7__cxx1112basic_stringIcSt11char_traitsIcESaIcEEEE0_clES9_
FNDA:0,_ZZN5Catch21makeCommandLineParserERNS_10ConfigDataEENKUlRKNSt7__cxx1112basic_stringIcSt11char_traitsIcESaIcEEEE1_clES9_
FNDA:0,_ZZN5Catch21makeCommandLineParserERNS_10ConfigDataEENKUlRKNSt7__cxx1112basic_stringIcSt11char_traitsIcESaIcEEEE2_clES9_
FNDA:14,_ZZN5Catch21makeCommandLineParserERNS_10ConfigDataEENKUlRKNSt7__cxx1112basic_stringIcSt11char_traitsIcESaIcEEEE3_clES9_
FNDA:0,_ZZN5Catch21makeCommandLineParserERNS_10ConfigDataEENKUlRKNSt7__cxx1112basic_stringIcSt11char_traitsIcESaIcEEEE4_clES9_
FNDA:14,_ZZN5Catch21makeCommandLineParserERNS_10ConfigDataEENKUlRKNSt7__cxx1112basic_stringIcSt11char_traitsIcESaIcEEEE5_clES9_
FNDA:25,_ZZN5Catch21makeCommandLineParserERNS_10ConfigDataEENKUlRKNSt7__cxx1112basic_stringIcSt11char_traitsIcESaIcEEEE6_clES9_
FNDA:0,_ZZN5Catch21makeCommandLineParserERNS_10ConfigDataEENKUlbE7_clEb
FNDA:0,_ZZN5Catch21makeCommandLineParserERNS_10ConfigDataEENKUliE8_clEi
FNDA:25,_ZZN5Catch21makeCommandLineParserERNS_10ConfigDataEENKUlbE9_clEb
FNDA:4578,_ZNK5Catch14SourceLineInfoeqERKS0_
FNDA:0,_ZNK5Catch14SourceLineInfoltERKS0_
FNDA:109,_ZN5CatchlsERSoRKNS_14SourceLineInfoE
FNDA:0,_ZNK5Catch13StreamEndStoppsB5cxx11Ev
FNDA:43,_ZN5Catch6ConfigC2ERKNS_10ConfigDataE
FNDA:0,_ZNK5Catch6Config11getFilenameB5cxx11Ev
FNDA:43,_ZNK5Catch6Config9listTestsEv
FNDA:43,_ZNK5Catch6Config17listTestNamesOnlyEv
FNDA:43,_ZNK5Catch6Config8listTagsEv
FNDA:43,_ZNK5Catch6Config13listReportersEv
FNDA:0,_ZNK5Catch6Config14getProcessNameB5cxx11Ev
FNDA:29,_ZNK5Catch6Config15getReporterNameB5cxx11Ev
FNDA:8,_ZNK5Catch6Config14getTestsOrTagsB5cxx11Ev
FNDA:167,_ZNK5Catch6Config16getSectionsToRunB5cxx11Ev
FNDA:130,_ZNK5Catch6Config8testSpecEv
FNDA:28,_ZNK5Catch6Config14hasTestFiltersEv
FNDA:0,_ZNK5Catch6Config8showHelpEv
FNDA:0,_ZNK5Catch6Config11allowThrowsEv
FNDA:145,_ZNK5Catch6Config6streamEv
FNDA:137,_ZNK5Catch6Config4nameB5cxx11Ev
FNDA:2780,_ZNK5Catch6Config24includeSuccessfulResultsEv
FNDA:6,_ZNK5Catch6Config26warnAboutMissingAssertionsEv
FNDA:29,_ZNK5Catch6Config16warnAboutNoTestsEv
FNDA:798,_ZNK5Catch6Config13showDurationsEv
FNDA:129,_ZNK5Catch6Config8runOrderEv
FNDA:637,_ZNK5Catch6Config7rngSeedEv
FNDA:18,_ZNK5Catch6Config9useColourEv
FNDA:13,_ZNK5Catch6Config16shouldDebugBreakEv
FNDA:804,_ZNK5Catch6Config10abortAfterEv
FNDA:0,_ZNK5Catch6Config14showInvisiblesEv
FNDA:132,_ZNK5Catch6Config9verbosityEv
FNDA:4,_ZNK5Catch6Config19benchmarkNoAnalysisEv
FNDA:0,_ZNK5Catch6Config16benchmarkSamplesEv
FNDA:0,_ZNK5Catch6Config27benchmarkConfidenceIntervalEv
FNDA:0,_ZNK5Catch6Config18benchmarkResamplesEv
FNDA:43,_ZN5Catch6Config10openStreamEv
FNDA:18,_ZN5Catch12_GLOBAL__N_111IColourImplD2Ev
FNDA:0,_ZN5Catch12_GLOBAL__N_112NoColourImplD0Ev
FNDA:14,_ZN5Catch12_GLOBAL__N_112NoColourImplD2Ev
FNDA:206,_ZN5Catch12_GLOBAL__N_112NoColourImpl3useENS_6Colour4CodeE
FNDA:14,_ZN5Catch12_GLOBAL__N_112NoColourImpl8instanceEv
FNDA:0,_ZN5Catch12_GLOBAL__N_115PosixColourImplD0Ev
FNDA:4,_ZN5Catch12_GLOBAL__N_115PosixColourImplD2Ev
FNDA:116,_ZN5Catch12_GLOBAL__N_115PosixColourImpl3useENS_6Colour4CodeE
FNDA:4,_ZN5Catch12_GLOBAL__N_115PosixColourImpl8instanceEv
FNDA:116,_ZN5Catch12_GLOBAL__N_115PosixColourImpl9setColourEPKc
FNDA:4,_ZN5Catch12_GLOBAL__N_119useColourOnPlatformEv
FNDA:18,_ZN5Catch12_GLOBAL__N_122platformColourInstanceEv
FNDA:161,_ZN5Catch6ColourC2ENS0_4CodeE
FNDA:0,_ZN5Catch6ColourC2EOS0_
FNDA:0,_ZN5Catch6ColouraSEOS0_
FNDA:161,_ZN5Catch6ColourD2Ev
FNDA:322,_ZN5Catch6Colour3useENS0_4CodeE
FNDA:37,_ZN5CatchlsERSoRKNS_6ColourE
FNDA:43,_ZN5Catch7ContextD0Ev
FNDA:43,_ZN5Catch7ContextD2Ev
FNDA:43,_ZN5Catch7ContextC2Ev
FNDA:5918,_ZN5Catch7Context16getResultCaptureEv
FNDA:0,_ZN5Catch7Context9getRunnerEv
FNDA:134,_ZNK5Catch7Context9getConfigEv
FNDA:29,_ZN5Catch7Context16setResultCaptureEPNS_14IResultCaptureE
FNDA:29,_ZN5Catch7Context9setRunnerEPNS_7IRunnerE
FNDA:72,_ZN5Catch7Context9setConfigERKSt10shared_ptrIKNS_7IConfigEE
FNDA:43,_ZN5Catch15IMutableContext13createContextEv
FNDA:98,_ZN5Catch14cleanUpContextEv
FNDA:0,_ZN5Catch3rngEv
FNDA:0,_ZN5Catch19writeToDebugConsoleERKNSt7__cxx1112basic_stringIcSt11char_traitsIcESaIcEEE
FNDA:0,_ZN5Catch16isDebuggerActiveEv
FNDA:13,_ZN5Catch29formatReconstructedExpressionERSoRKNSt7__cxx1112basic_stringIcSt11char_traitsIcESaIcEEENS_9StringRefES8_
FNDA:0,_ZN5Catch17throw_logic_errorERKNSt7__cxx1112basic_stringIcSt11char_traitsIcESaIcEEE
FNDA:0,_ZN5Catch18throw_domain_errorERKNSt7__cxx1112basic_stringIcSt11char_traitsIcESaIcEEE
FNDA:0,_ZN5Catch19throw_runtime_errorERKNSt7__cxx1112basic_stringIcSt11char_traitsIcESaIcEEE
FNDA:0,_ZN5Catch6Detail18EnumValuesRegistryD0Ev
FNDA:49,_ZN5Catch6Detail18EnumValuesRegistryD2Ev
FNDA:49,_ZN5Catch6Detail18EnumValuesRegistryC2Ev
FNDA:0,_ZN5Catch26IMutableEnumValuesRegistryD0Ev
FNDA:49,_ZN5Catch26IMutableEnumValuesRegistryD2Ev
FNDA:0,_ZN5Catch6Detail12_GLOBAL__N_119extractInstanceNameENS_9StringRefE
FNDA:0,_ZN5Catch6Detail10parseEnumsENS_9StringRefE
FNDA:0,_ZN5Catch6Detail8EnumInfoD2Ev
FNDA:0,_ZNK5Catch6Detail8EnumInfo6lookupEi
FNDA:0,_ZN5Catch6Detail12makeEnumInfoENS_9StringRefES1_RKSt6vectorIiSaIiEE
FNDA:0,_ZN5Catch6Detail18EnumValuesRegistry12registerEnumENS_9StringRefES2_RKSt6vectorIiSaIiEE
FNDA:18,_ZN5Catch10ErrnoGuardC2Ev
FNDA:18,_ZN5Catch10ErrnoGuardD2Ev
FNDA:49,_ZN5Catch27ExceptionTranslatorRegistryC2Ev
FNDA:0,_ZN5Catch27ExceptionTranslatorRegistryD0Ev
FNDA:49,_ZN5Catch27ExceptionTranslatorRegistryD2Ev
FNDA:0,_ZN5Catch27ExceptionTranslatorRegistry18registerTranslatorEPKNS_20IExceptionTranslatorE
FNDA:0,_ZNK5Catch27ExceptionTranslatorRegistry24translateActiveExceptionB5cxx11Ev
FNDA:0,_ZNK5Catch27ExceptionTranslatorRegistry14tryTranslatorsB5cxx11Ev
FNDA:0,_ZN12_GLOBAL__N_111reportFatalEPKc
FNDA:0,_ZN5Catch21FatalConditionHandler12handleSignalEi
FNDA:566,_ZN5Catch21FatalConditionHandlerC2Ev
FNDA:566,_ZN5Catch21FatalConditionHandlerD2Ev
FNDA:1132,_ZN5Catch21FatalConditionHandler5resetEv
FNDA:0,_ZN5Catch17IGeneratorTrackerD0Ev
FNDA:21,_ZN5Catch17IGeneratorTrackerD2Ev
FNDA:0,_ZNK5Catch18GeneratorException4whatEv
FNDA:0,_ZN5Catch10Generators20GeneratorUntypedBaseD0Ev
FNDA:147,_ZN5Catch10Generators20GeneratorUntypedBaseD2Ev
FNDA:420,_ZN5Catch10Generators23acquireGeneratorTrackerERKNS_14SourceLineInfoE
FNDA:0,_ZN5Catch17ListeningReporterD0Ev
FNDA:0,_ZN5Catch17ListeningReporterD2Ev
FNDA:29,_ZN5Catch14ReporterConfigC2ERKSt10shared_ptrIKNS_7IConfigEE
FNDA:0,_ZN5Catch14ReporterConfigC2ERKSt10shared_ptrIKNS_7IConfigEERSo
FNDA:58,_ZNK5Catch14ReporterConfig6streamEv
FNDA:33,_ZNK5Catch14ReporterConfig10fullConfigEv
FNDA:29,_ZN5Catch11TestRunInfoC2ERKNSt7__cxx1112basic_stringIcSt11char_traitsIcESaIcEEE
FNDA:58,_ZN5Catch9GroupInfoC2ERKNSt7__cxx1112basic_stringIcSt11char_traitsIcESaIcEEEmm
FNDA:2751,_ZN5Catch14AssertionStatsC2ERKNS_15AssertionResultERKSt6vectorINS_11MessageInfoESaIS5_EERKNS_6TotalsE
FNDA:986,_ZN5Catch12SectionStatsC2ERKNS_11SectionInfoERKNS_6CountsEdb
FNDA:167,_ZN5Catch13TestCaseStatsC2ERKNS_12TestCaseInfoERKNS_6TotalsERKNSt7__cxx1112basic_stringIcSt11char_traitsIcESaIcEEESE_b
FNDA:29,_ZN5Catch14TestGroupStatsC2ERKNS_9GroupInfoERKNS_6TotalsEb
FNDA:0,_ZN5Catch14TestGroupStatsC2ERKNS_9GroupInfoE
FNDA:29,_ZN5Catch12TestRunStatsC2ERKNS_11TestRunInfoERKNS_6TotalsEb
FNDA:0,_ZN5Catch18IStreamingReporter21fatalErrorEncounteredENS_9StringRefE
FNDA:0,_ZNK5Catch18IStreamingReporter7isMultiEv
FNDA:49,_ZN5Catch12LeakDetectorC2Ev
FNDA:49,_ZN5Catch12LeakDetectorD2Ev
FNDA:0,_ZN5Catch7TagInfoC2EOS0_
FNDA:0,_ZN5Catch7TagInfoD2Ev
FNDA:0,_ZN5Catch7TagInfoC2Ev
FNDA:14,_ZN5Catch9listTestsERKNS_6ConfigE
FNDA:0,_ZN5Catch18listTestsNamesOnlyERKNS_6ConfigE
FNDA:0,_ZN5Catch7TagInfo3addERKNSt7__cxx1112basic_stringIcSt11char_traitsIcESaIcEEE
FNDA:0,_ZNK5Catch7TagInfo3allB5cxx11Ev
FNDA:0,_ZN5Catch8listTagsERKNS_6ConfigE
FNDA:0,_ZN5Catch13listReportersEv
FNDA:43,_ZN5Catch4listERKSt10shared_ptrINS_6ConfigEE
FNDA:0,_ZNK5Catch8Matchers4Impl18MatcherUntypedBase8toStringB5cxx11Ev
FNDA:0,_ZNK5Catch8Matchers9Exception23ExceptionMessageMatcher5matchERKSt9exception
FNDA:0,_ZNK5Catch8Matchers9Exception23ExceptionMessageMatcher8describeB5cxx11Ev
FNDA:0,_ZN5Catch8Matchers7MessageERKNSt7__cxx1112basic_stringIcSt11char_traitsIcESaIcEEE
FNDA:0,_ZN5Catch12_GLOBAL__N_17convertEf
FNDA:0,_ZN5Catch12_GLOBAL__N_17convertEd
FNDA:0,_ZN5Catch12_GLOBAL__N_115almostEqualUlpsIdEEbT_S2_m
FNDA:0,_ZN5Catch12_GLOBAL__N_115almostEqualUlpsIfEEbT_S2_m
FNDA:0,_ZN5Catch12_GLOBAL__N_14stepIfEET_S2_S2_m
FNDA:0,_ZN5Catch12_GLOBAL__N_14stepIdEET_S2_S2_m
FNDA:0,_ZN5Catch12_GLOBAL__N_116marginComparisonEddd
FNDA:0,_ZN5Catch12_GLOBAL__N_15writeIdEEvRSoT_
FNDA:0,_ZN5Catch12_GLOBAL__N_15writeIfEEvRSoT_
FNDA:0,_ZN5Catch8Matchers8Floating16WithinAbsMatcherC2Edd
FNDA:0,_ZNK5Catch8Matchers8Floating16WithinAbsMatcher5matchERKd
FNDA:0,_ZNK5Catch8Matchers8Floating16WithinAbsMatcher8describeB5cxx11Ev
FNDA:0,_ZN5Catch8Matchers8Floating17WithinUlpsMatcherC2EdmNS1_17FloatingPointKindE
FNDA:0,_ZNK5Catch8Matchers8Floating17WithinUlpsMatcher5matchERKd
FNDA:0,_ZNK5Catch8Matchers8Floating17WithinUlpsMatcher8describeB5cxx11Ev
FNDA:0,_ZN5Catch8Matchers8Floating16WithinRelMatcherC2Edd
FNDA:0,_ZNK5Catch8Matchers8Floating16WithinRelMatcher5matchERKd
FNDA:0,_ZNK5Catch8Matchers8Floating16WithinRelMatcher8describeB5cxx11Ev
FNDA:0,_ZN5Catch8Matchers9WithinULPEdm
FNDA:0,_ZN5Catch8Matchers9WithinULPEfm
FNDA:0,_ZN5Catch8Matchers9WithinAbsEdd
FNDA:0,_ZN5Catch8Matchers9WithinRelEdd
FNDA:0,_ZN5Catch8Matchers9WithinRelEd
FNDA:0,_ZN5Catch8Matchers9WithinRelEff
FNDA:0,_ZN5Catch8Matchers9WithinRelEf
FNDA:0,_ZN5Catch8Matchers7Generic6Detail19finalizeDescriptionERKNSt7__cxx1112basic_stringIcSt11char_traitsIcESaIcEEE
FNDA:0,_ZN5Catch8Matchers9StdString11CasedStringC2ERKNSt7__cxx1112basic_stringIcSt11char_traitsIcESaIcEEENS_13CaseSensitive6ChoiceE
FNDA:0,_ZNK5Catch8Matchers9StdString11CasedString12adjustStringERKNSt7__cxx1112basic_stringIcSt11char_traitsIcESaIcEEE
FNDA:0,_ZNK5Catch8Matchers9StdString11CasedString21caseSensitivitySuffixB5cxx11Ev
FNDA:0,_ZN5Catch8Matchers9StdString17StringMatcherBaseC2ERKNSt7__cxx1112basic_stringIcSt11char_traitsIcESaIcEEERKNS1_11CasedStringE
FNDA:0,_ZNK5Catch8Matchers9StdString17StringMatcherBase8describeB5cxx11Ev
FNDA:0,_ZN5Catch8Matchers9StdString13EqualsMatcherC2ERKNS1_11CasedStringE
FNDA:0,_ZNK5Catch8Matchers9StdString13EqualsMatcher5matchERKNSt7__cxx1112basic_stringIcSt11char_traitsIcESaIcEEE
FNDA:0,_ZN5Catch8Matchers9StdString15ContainsMatcherC2ERKNS1_11CasedStringE
FNDA:0,_ZNK5Catch8Matchers9StdString15ContainsMatcher5matchERKNSt7__cxx1112basic_stringIcSt11char_traitsIcESaIcEEE
FNDA:0,_ZN5Catch8Matchers9StdString17StartsWithMatcherC2ERKNS1_11CasedStringE
FNDA:0,_ZNK5Catch8Matchers9StdString17StartsWithMatcher5matchERKNSt7__cxx1112basic_stringIcSt11char_traitsIcESaIcEEE
FNDA:0,_ZN5Catch8Matchers9StdString15EndsWithMatcherC2ERKNS1_11CasedStringE
FNDA:0,_ZNK5Catch8Matchers9StdString15EndsWithMatcher5matchERKNSt7__cxx1112basic_stringIcSt11char_traitsIcESaIcEEE
FNDA:0,_ZN5Catch8Matchers9StdString12RegexMatcherC2ENSt7__cxx1112basic_stringIcSt11char_traitsIcESaIcEEENS_13CaseSensitive6ChoiceE
FNDA:0,_ZNK5Catch8Matchers9StdString12RegexMatcher5matchERKNSt7__cxx1112basic_stringIcSt11char_traitsIcESaIcEEE
FNDA:0,_ZNK5Catch8Matchers9StdString12RegexMatcher8describeB5cxx11Ev
FNDA:0,_ZN5Catch8Matchers6EqualsERKNSt7__cxx1112basic_stringIcSt11char_traitsIcESaIcEEENS_13CaseSensitive6ChoiceE
FNDA:0,_ZN5Catch8Matchers8ContainsERKNSt7__cxx1112basic_stringIcSt11char_traitsIcESaIcEEENS_13CaseSensitive6ChoiceE
FNDA:0,_ZN5Catch8Matchers8EndsWithERKNSt7__cxx1112basic_stringIcSt11char_traitsIcESaIcEEENS_13CaseSensitive6ChoiceE
FNDA:0,_ZN5Catch8Matchers10StartsWithERKNSt7__cxx1112basic_stringIcSt11char_traitsIcESaIcEEENS_13CaseSensitive6ChoiceE
FNDA:0,_ZN5Catch8Matchers7MatchesERKNSt7__cxx1112basic_stringIcSt11char_traitsIcESaIcEEENS_13CaseSensitive6ChoiceE
FNDA:0,_ZN5Catch11MessageInfoC2ERKNS_9StringRefERKNS_14SourceLineInfoENS_9ResultWas6OfTypeE
FNDA:0,_ZNK5Catch11MessageInfoeqERKS0_
FNDA:0,_ZNK5Catch11MessageInfoltERKS0_
FNDA:0,_ZN5Catch14MessageBuilderC2ERKNS_9StringRefERKNS_14SourceLineInfoENS_9ResultWas6OfTypeE
FNDA:0,_ZN5Catch13ScopedMessageC2ERKNS_14MessageBuilderE
FNDA:0,_ZN5Catch13ScopedMessageC2EOS0_
FNDA:0,_ZN5Catch13ScopedMessageD2Ev
FNDA:0,_ZN5Catch8CapturerC2ENS_9StringRefERKNS_14SourceLineInfoENS_9ResultWas6OfTypeES1_
FNDA:0,_ZZN5Catch8CapturerC4ENS_9StringRefERKNS_14SourceLineInfoENS_9ResultWas6OfTypeES1_ENKUlmmE_clEmm
FNDA:0,_ZZN5Catch8CapturerC4ENS_9StringRefERKNS_14SourceLineInfoENS_9ResultWas6OfTypeES1_ENKUlmcE0_clEmc
FNDA:0,_ZN5Catch8CapturerD2Ev
FNDA:0,_ZN5Catch8Capturer12captureValueEmRKNSt7__cxx1112basic_stringIcSt11char_traitsIcESaIcEEE
FNDA:458,_ZN5Catch16RedirectedStdOutD2Ev
FNDA:458,_ZN5Catch16RedirectedStdErrD2Ev
FNDA:1374,_ZN5Catch16RedirectedStreamC2ERSoS1_
FNDA:1374,_ZN5Catch16RedirectedStreamD2Ev
FNDA:458,_ZN5Catch16RedirectedStdOutC2Ev
FNDA:458,_ZNK5Catch16RedirectedStdOut3strB5cxx11Ev
FNDA:458,_ZN5Catch16RedirectedStdErrC2Ev
FNDA:458,_ZNK5Catch16RedirectedStdErr3strB5cxx11Ev
FNDA:458,_ZN5Catch17RedirectedStreamsC2ERNSt7__cxx1112basic_stringIcSt11char_traitsIcESaIcEEES7_
FNDA:458,_ZN5Catch17RedirectedStreamsD2Ev
FNDA:0,_ZN5Catch5isnanEf
FNDA:0,_ZN5Catch5isnanEd
FNDA:0,_ZN5Catch12_GLOBAL__N_112rotate_rightEjj
FNDA:0,_ZN5Catch11SimplePcg32C2Ej
FNDA:0,_ZN5Catch11SimplePcg324seedEj
FNDA:0,_ZN5Catch11SimplePcg327discardEm
FNDA:0,_ZN5Catch11SimplePcg32clEv
FNDA:0,_ZN5CatcheqERKNS_11SimplePcg32ES2_
FNDA:0,_ZN5CatchneERKNS_11SimplePcg32ES2_
FNDA:49,_ZN5Catch12TestRegistryC2Ev
FNDA:0,_ZN5Catch12TestRegistryD0Ev
FNDA:49,_ZN5Catch12TestRegistryD2Ev
FNDA:364,_ZN5Catch21TestInvokerAsFunctionD0Ev
FNDA:364,_ZN5Catch21TestInvokerAsFunctionD2Ev
FNDA:49,_ZN5Catch16ReporterRegistryC2Ev
FNDA:0,_ZN5Catch16ReporterRegistryD0Ev
FNDA:49,_ZN5Catch16ReporterRegistryD2Ev
FNDA:0,_ZN5Catch8TagAliasC2EOS0_
FNDA:0,_ZN5Catch8TagAliasD2Ev
FNDA:49,_ZN5Catch16TagAliasRegistryC2Ev
FNDA:49,_ZN5Catch24StartupExceptionRegistryD2Ev
FNDA:49,_ZN5Catch24StartupExceptionRegistryC2Ev
FNDA:91,_ZN5Catch10ISingletonC2Ev
FNDA:49,_ZN5Catch9SingletonINS_12_GLOBAL__N_111RegistryHubENS_12IRegistryHubENS_19IMutableRegistryHubEED0Ev
FNDA:49,_ZN5Catch9SingletonINS_12_GLOBAL__N_111RegistryHubENS_12IRegistryHubENS_19IMutableRegistryHubEED2Ev
FNDA:42,_ZN5Catch9SingletonINS_13StringStreamsES1_S1_ED0Ev
FNDA:42,_ZN5Catch9SingletonINS_13StringStreamsES1_S1_ED2Ev
FNDA:42,_ZN5Catch9SingletonINS_13StringStreamsES1_S1_EC2Ev
FNDA:49,_ZN5Catch9SingletonINS_12_GLOBAL__N_111RegistryHubENS_12IRegistryHubENS_19IMutableRegistryHubEEC2Ev
FNDA:11145,_ZN5Catch9SingletonINS_13StringStreamsES1_S1_E11getInternalEv
FNDA:778,_ZN5Catch9SingletonINS_12_GLOBAL__N_111RegistryHubENS_12IRegistryHubENS_19IMutableRegistryHubEE11getInternalEv
FNDA:218,_ZN5Catch9SingletonINS_12_GLOBAL__N_111RegistryHubENS_12IRegistryHubENS_19IMutableRegistryHubEE3getEv
FNDA:11145,_ZN5Catch9SingletonINS_13StringStreamsES1_S1_E10getMutableEv
FNDA:560,_ZN5Catch9SingletonINS_12_GLOBAL__N_111RegistryHubENS_12IRegistryHubENS_19IMutableRegistryHubEE10getMutableEv
FNDA:0,_ZN5Catch12_GLOBAL__N_111RegistryHubD0Ev
FNDA:49,_ZN5Catch12_GLOBAL__N_111RegistryHubD2Ev
FNDA:49,_ZN5Catch12_GLOBAL__N_111RegistryHubC2Ev
FNDA:83,_ZNK5Catch12_GLOBAL__N_111RegistryHub19getReporterRegistryEv
FNDA:43,_ZNK5Catch12_GLOBAL__N_111RegistryHub19getTestCaseRegistryEv
FNDA:0,_ZNK5Catch12_GLOBAL__N_111RegistryHub30getExceptionTranslatorRegistryEv
FNDA:43,_ZNK5Catch12_GLOBAL__N_111RegistryHub19getTagAliasRegistryEv
FNDA:49,_ZNK5Catch12_GLOBAL__N_111RegistryHub27getStartupExceptionRegistryEv
FNDA:196,_ZN5Catch12_GLOBAL__N_111RegistryHub16registerReporterERKNSt7__cxx1112basic_stringIcSt11char_traitsIcESaIcEEERKSt10shared_ptrINS_16IReporterFactoryEE
FNDA:0,_ZN5Catch12_GLOBAL__N_111RegistryHub16registerListenerERKSt10shared_ptrINS_16IReporterFactoryEE
FNDA:364,_ZN5Catch12_GLOBAL__N_111RegistryHub12registerTestERKNS_8TestCaseE
FNDA:0,_ZN5Catch12_GLOBAL__N_111RegistryHub18registerTranslatorEPKNS_20IExceptionTranslatorE
FNDA:0,_ZN5Catch12_GLOBAL__N_111RegistryHub16registerTagAliasERKNSt7__cxx1112basic_stringIcSt11char_traitsIcESaIcEEES9_RKNS_14SourceLineInfoE
FNDA:0,_ZN5Catch12_GLOBAL__N_111RegistryHub24registerStartupExceptionEv
FNDA:0,_ZN5Catch12_GLOBAL__N_111RegistryHub28getMutableEnumValuesRegistryEv
FNDA:218,_ZN5Catch14getRegistryHubEv
FNDA:560,_ZN5Catch21getMutableRegistryHubEv
FNDA:98,_ZN5Catch7cleanUpEv
FNDA:0,_ZN5Catch24translateActiveExceptionB5cxx11Ev
FNDA:29,_ZNK5Catch16ReporterRegistry6createERKNSt7__cxx1112basic_stringIcSt11char_traitsIcESaIcEEERKSt10shared_ptrIKNS_7IConfigEE
FNDA:196,_ZN5Catch16ReporterRegistry16registerReporterERKNSt7__cxx1112basic_stringIcSt11char_traitsIcESaIcEEERKSt10shared_ptrINS_16IReporterFactoryEE
FNDA:0,_ZN5Catch16ReporterRegistry16registerListenerERKSt10shared_ptrINS_16IReporterFactoryEE
FNDA:25,_ZNK5Catch16ReporterRegistry12getFactoriesB5cxx11Ev
FNDA:29,_ZNK5Catch16ReporterRegistry12getListenersEv
FNDA:2777,_ZN5Catch4isOkENS_9ResultWas6OfTypeE
FNDA:0,_ZN5Catch10isJustInfoEi
FNDA:0,_ZN5CatchorENS_17ResultDisposition5FlagsES1_
FNDA:0,_ZN5Catch23shouldContinueOnFailureEi
FNDA:29,_ZN5Catch21shouldSuppressFailureEi
FNDA:21,_ZN5Catch10Generators16GeneratorTrackerC2ERKNS_16TestCaseTracking15NameAndLocationERNS2_14TrackerContextEPNS2_8ITrackerE
FNDA:420,_ZN5Catch10Generators16GeneratorTracker7acquireERNS_16TestCaseTracking14TrackerContextERKNS2_15NameAndLocationE
FNDA:399,_ZNK5Catch10Generators16GeneratorTracker18isGeneratorTrackerEv
FNDA:420,_ZNK5Catch10Generators16GeneratorTracker12hasGeneratorEv
FNDA:420,_ZN5Catch10Generators16GeneratorTracker5closeEv
FNDA:420,_ZNK5Catch10Generators16GeneratorTracker12getGeneratorEv
FNDA:21,_ZN5Catch10Generators16GeneratorTracker12setGeneratorEOSt10unique_ptrINS0_20GeneratorUntypedBaseESt14default_deleteIS3_EE
FNDA:0,_ZN5Catch10Generators16GeneratorTrackerD0Ev
FNDA:21,_ZN5Catch10Generators16GeneratorTrackerD2Ev
FNDA:29,_ZN5Catch10RunContextC2ERKSt10shared_ptrIKNS_7IConfigEEOSt10unique_ptrINS_18IStreamingReporterESt14default_deleteIS8_EE
FNDA:0,_ZN5Catch10RunContextD0Ev
FNDA:29,_ZN5Catch10RunContextD2Ev
FNDA:29,_ZN5Catch10RunContext17testGroupStartingERKNSt7__cxx1112basic_stringIcSt11char_traitsIcESaIcEEEmm
FNDA:29,_ZN5Catch10RunContext14testGroupEndedERKNSt7__cxx1112basic_stringIcSt11char_traitsIcESaIcEEERKNS_6TotalsEmm
FNDA:167,_ZN5Catch10RunContext7runTestERKNS_8TestCaseE
FNDA:0,_ZNK5Catch10RunContext6configEv
FNDA:0,_ZNK5Catch10RunContext8reporterEv
FNDA:2751,_ZN5Catch10RunContext14assertionEndedERKNS_15AssertionResultE
FNDA:3398,_ZN5Catch10RunContext18resetAssertionInfoEv
FNDA:1680,_ZN5Catch10RunContext14sectionStartedERKNS_11SectionInfoERNS_6CountsE
FNDA:420,_ZN5Catch10RunContext23acquireGeneratorTrackerERKNS_14SourceLineInfoE
FNDA:986,_ZN5Catch10RunContext24testForMissingAssertionsERNS_6CountsE
FNDA:420,_ZN5Catch10RunContext12sectionEndedERKNS_14SectionEndInfoE
FNDA:0,_ZN5Catch10RunContext17sectionEndedEarlyERKNS_14SectionEndInfoE
FNDA:0,_ZN5Catch10RunContext17pushScopedMessageERKNS_11MessageInfoE
FNDA:0,_ZN5Catch10RunContext16popScopedMessageERKNS_11MessageInfoE
FNDA:0,_ZN5Catch10RunContext22emplaceUnscopedMessageERKNS_14MessageBuilderE
FNDA:0,_ZNK5Catch10RunContext18getCurrentTestNameB5cxx11Ev
FNDA:0,_ZNK5Catch10RunContext13getLastResultEv
FNDA:0,_ZN5Catch10RunContext22exceptionEarlyReportedEv
FNDA:0,_ZN5Catch10RunContext25handleFatalErrorConditionENS_9StringRefE
FNDA:0,_ZN5Catch10RunContext19lastAssertionPassedEv
FNDA:647,_ZN5Catch10RunContext15assertionPassedEv
FNDA:804,_ZNK5Catch10RunContext8abortingEv
FNDA:566,_ZN5Catch10RunContext14runCurrentTestERNSt7__cxx1112basic_stringIcSt11char_traitsIcESaIcEEES7_
FNDA:566,_ZN5Catch10RunContext20invokeActiveTestCaseEv
FNDA:566,_ZN5Catch10RunContext24handleUnfinishedSectionsEv
FNDA:3398,_ZN5Catch10RunContext10handleExprERKNS_13AssertionInfoERKNS_20ITransientExpressionERNS_17AssertionReactionE
FNDA:2751,_ZN5Catch10RunContext10reportExprERKNS_13AssertionInfoENS_9ResultWas6OfTypeEPKNS_20ITransientExpressionEb
FNDA:0,_ZN5Catch10RunContext13handleMessageERKNS_13AssertionInfoENS_9ResultWas6OfTypeERKNS_9StringRefERNS_17AssertionReactionE
FNDA:0,_ZN5Catch10RunContext34handleUnexpectedExceptionNotThrownERKNS_13AssertionInfoERNS_17AssertionReactionE
FNDA:0,_ZN5Catch10RunContext33handleUnexpectedInflightExceptionERKNS_13AssertionInfoERKNSt7__cxx1112basic_stringIcSt11char_traitsIcESaIcEEERNS_17AssertionReactionE
FNDA:13,_ZN5Catch10RunContext16populateReactionERNS_17AssertionReactionE
FNDA:0,_ZN5Catch10RunContext16handleIncompleteERKNS_13AssertionInfoE
FNDA:0,_ZN5Catch10RunContext13handleNonExprERKNS_13AssertionInfoENS_9ResultWas6OfTypeERNS_17AssertionReactionE
FNDA:5918,_ZN5Catch16getResultCaptureEv
FNDA:609,_ZN5Catch7seedRngERKNS_7IConfigE
FNDA:0,_ZN5Catch7rngSeedEv
FNDA:1680,_ZN5Catch7SectionC2ERKNS_11SectionInfoE
FNDA:0,_ZN5Catch7SectionD0Ev
FNDA:1680,_ZN5Catch7SectionD2Ev
FNDA:1680,_ZNK5Catch7SectioncvbEv
FNDA:2246,_ZN5Catch11SectionInfoC2ERKNS_14SourceLineInfoERKNSt7__cxx1112basic_stringIcSt11char_traitsIcESaIcEEE
FNDA:49,_ZN5Catch7Session3runIcEEiiPKPKT_
FNDA:29,_ZN5Catch12_GLOBAL__N_114createReporterERKNSt7__cxx1112basic_stringIcSt11char_traitsIcESaIcEEERKSt10shared_ptrIKNS_7IConfigEE
FNDA:29,_ZN5Catch12_GLOBAL__N_112makeReporterERKSt10shared_ptrINS_6ConfigEE
FNDA:29,_ZN5Catch12_GLOBAL__N_19TestGroupD2Ev
FNDA:29,_ZN5Catch12_GLOBAL__N_19TestGroupC2ERKSt10shared_ptrINS_6ConfigEE
FNDA:29,_ZN5Catch12_GLOBAL__N_19TestGroup7executeEv
FNDA:0,_ZN5Catch12_GLOBAL__N_120applyFilenamesAsTagsERKNS_7IConfigE
FNDA:49,_ZN5Catch7SessionC2Ev
FNDA:0,_ZN5Catch7SessionD0Ev
FNDA:49,_ZN5Catch7SessionD2Ev
FNDA:6,_ZNK5Catch7Session8showHelpEv
FNDA:0,_ZN5Catch7Session11libIdentifyEv
FNDA:49,_ZN5Catch7Session16applyCommandLineEiPKPKc
FNDA:0,_ZN5Catch7Session13useConfigDataERKNS_10ConfigDataE
FNDA:49,_ZN5Catch7Session3runEv
FNDA:0,_ZNK5Catch7Session3cliEv
FNDA:0,_ZN5Catch7Session3cliERKNS_5clara6detail6ParserE
FNDA:0,_ZN5Catch7Session10configDataEv
FNDA:43,_ZN5Catch7Session6configEv
FNDA:49,_ZN5Catch7Session11runInternalEv
FNDA:189,_ZN5Catch12_GLOBAL__N_1L13getSingletonsEv
FNDA:0,_ZN5Catch10ISingletonD0Ev
FNDA:91,_ZN5Catch10ISingletonD2Ev
FNDA:91,_ZN5Catch12addSingletonEPNS_10ISingletonE
FNDA:98,_ZN5Catch17cleanupSingletonsEv
FNDA:0,_ZN5Catch24StartupExceptionRegistry3addERKNSt15__exception_ptr13exception_ptrE
FNDA:49,_ZNK5Catch24StartupExceptionRegistry13getExceptionsEv
FNDA:0,_ZN5Catch6Detail12_GLOBAL__N_113StreamBufImplINS1_17OutputDebugWriterELm256EEC2Ev
FNDA:0,_ZN5Catch6Detail12_GLOBAL__N_113StreamBufImplINS1_17OutputDebugWriterELm256EED0Ev
FNDA:0,_ZN5Catch6Detail12_GLOBAL__N_113StreamBufImplINS1_17OutputDebugWriterELm256EED2Ev
FNDA:0,_ZN5Catch6Detail12_GLOBAL__N_113StreamBufImplINS1_17OutputDebugWriterELm256EE8overflowEi
FNDA:0,_ZN5Catch6Detail12_GLOBAL__N_113StreamBufImplINS1_17OutputDebugWriterELm256EE4syncEv
FNDA:0,_ZN5Catch6Detail12_GLOBAL__N_117OutputDebugWriterclERKNSt7__cxx1112basic_stringIcSt11char_traitsIcESaIcEEE
FNDA:0,_ZN5Catch6Detail12_GLOBAL__N_110FileStreamC2ENS_9StringRefE
FNDA:0,_ZN5Catch6Detail12_GLOBAL__N_110FileStreamD0Ev
FNDA:0,_ZN5Catch6Detail12_GLOBAL__N_110FileStreamD2Ev
FNDA:0,_ZNK5Catch6Detail12_GLOBAL__N_110FileStream6streamEv
FNDA:43,_ZN5Catch6Detail12_GLOBAL__N_110CoutStreamC2Ev
FNDA:43,_ZN5Catch6Detail12_GLOBAL__N_110CoutStreamD0Ev
FNDA:43,_ZN5Catch6Detail12_GLOBAL__N_110CoutStreamD2Ev
FNDA:145,_ZNK5Catch6Detail12_GLOBAL__N_110CoutStream6streamEv
FNDA:0,_ZN5Catch6Detail12_GLOBAL__N_114DebugOutStreamC2Ev
FNDA:0,_ZN5Catch6Detail12_GLOBAL__N_114DebugOutStreamD0Ev
FNDA:0,_ZN5Catch6Detail12_GLOBAL__N_114DebugOutStreamD2Ev
FNDA:0,_ZNK5Catch6Detail12_GLOBAL__N_114DebugOutStream6streamEv
FNDA:43,_ZN5Catch10makeStreamERKNS_9StringRefE
FNDA:42,_ZN5Catch13StringStreamsD2Ev
FNDA:42,_ZN5Catch13StringStreamsC2Ev
FNDA:3715,_ZN5Catch13StringStreams3addEv
FNDA:3715,_ZN5Catch13StringStreams7releaseEm
FNDA:3715,_ZN5Catch20ReusableStringStreamC2Ev
FNDA:0,_ZN5Catch20ReusableStringStreamD0Ev
FNDA:3715,_ZN5Catch20ReusableStringStreamD2Ev
FNDA:3715,_ZNK5Catch20ReusableStringStream3strB5cxx11Ev
FNDA:947,_ZN5Catch4coutEv
FNDA:458,_ZN5Catch4cerrEv
FNDA:458,_ZN5Catch4clogEv
FNDA:5620,_ZN5Catch12_GLOBAL__N_19toLowerChEc
FNDA:36,_ZN5Catch10startsWithERKNSt7__cxx1112basic_stringIcSt11char_traitsIcESaIcEEES7_
FNDA:1842,_ZN5Catch10startsWithERKNSt7__cxx1112basic_stringIcSt11char_traitsIcESaIcEEEc
FNDA:103,_ZN5Catch8endsWithERKNSt7__cxx1112basic_stringIcSt11char_traitsIcESaIcEEES7_
FNDA:22,_ZN5Catch8endsWithERKNSt7__cxx1112basic_stringIcSt11char_traitsIcESaIcEEEc
FNDA:0,_ZN5Catch8containsERKNSt7__cxx1112basic_stringIcSt11char_traitsIcESaIcEEES7_
FNDA:634,_ZN5Catch14toLowerInPlaceERNSt7__cxx1112basic_stringIcSt11char_traitsIcESaIcEEE
FNDA:634,_ZN5Catch7toLowerERKNSt7__cxx1112basic_stringIcSt11char_traitsIcESaIcEEE
FNDA:1432,_ZN5Catch4trimERKNSt7__cxx1112basic_stringIcSt11char_traitsIcESaIcEEE
FNDA:0,_ZN5Catch4trimENS_9StringRefE
FNDA:0,_ZZN5Catch4trimENS_9StringRefEENKUlcE_clEc
FNDA:0,_ZN5Catch14replaceInPlaceERNSt7__cxx1112basic_stringIcSt11char_traitsIcESaIcEEERKS5_S8_
FNDA:0,_ZN5Catch14splitStringRefENS_9StringRefEc
FNDA:16,_ZN5Catch9pluraliseC2EmRKNSt7__cxx1112basic_stringIcSt11char_traitsIcESaIcEEE
FNDA:16,_ZN5CatchlsERSoRKNS_9pluraliseE
FNDA:7524,_ZN5Catch9StringRefC2EPKc
FNDA:0,_ZNK5Catch9StringRef5c_strEv
FNDA:42,_ZNK5Catch9StringRef4dataEv
FNDA:0,_ZNK5Catch9StringRef6substrEmm
FNDA:0,_ZNK5Catch9StringRefeqERKS0_
FNDA:23,_ZN5CatchlsERSoRKNS_9StringRefE
FNDA:19,_ZN5CatchpLERNSt7__cxx1112basic_stringIcSt11char_traitsIcESaIcEEERKNS_9StringRefE
FNDA:0,_ZN5Catch8TagAliasC2ERKNSt7__cxx1112basic_stringIcSt11char_traitsIcESaIcEEENS_14SourceLineInfoE
FNDA:0,_ZN5Catch22RegistrarForTagAliasesC2EPKcS2_RKNS_14SourceLineInfoE
FNDA:0,_ZN5Catch16TagAliasRegistryD0Ev
FNDA:49,_ZN5Catch16TagAliasRegistryD2Ev
FNDA:0,_ZNK5Catch16TagAliasRegistry4findERKNSt7__cxx1112basic_stringIcSt11char_traitsIcESaIcEEE
FNDA:22,_ZNK5Catch16TagAliasRegistry13expandAliasesERKNSt7__cxx1112basic_stringIcSt11char_traitsIcESaIcEEE
FNDA:0,_ZN5Catch16TagAliasRegistry3addERKNSt7__cxx1112basic_stringIcSt11char_traitsIcESaIcEEES8_RKNS_14SourceLineInfoE
FNDA:0,_ZN5Catch17ITagAliasRegistryD0Ev
FNDA:49,_ZN5Catch17ITagAliasRegistryD2Ev
FNDA:43,_ZN5Catch17ITagAliasRegistry3getEv
FNDA:1092,_ZN5Catch12_GLOBAL__N_115parseSpecialTagERKNSt7__cxx1112basic_stringIcSt11char_traitsIcESaIcEEE
FNDA:364,_ZN5Catch12_GLOBAL__N_113isReservedTagERKNSt7__cxx1112basic_stringIcSt11char_traitsIcESaIcEEE
FNDA:364,_ZN5Catch12_GLOBAL__N_121enforceNotReservedTagERKNSt7__cxx1112basic_stringIcSt11char_traitsIcESaIcEEERKNS_14SourceLineInfoE
FNDA:364,_ZN5Catch12makeTestCaseEPNS_12ITestInvokerERKNSt7__cxx1112basic_stringIcSt11char_traitsIcESaIcEEERKNS_11NameAndTagsERKNS_14SourceLineInfoE
FNDA:364,_ZN5Catch7setTagsERNS_12TestCaseInfoESt6vectorINSt7__cxx1112basic_stringIcSt11char_traitsIcESaIcEEESaIS8_EE
FNDA:364,_ZN5Catch12TestCaseInfoC2ERKNSt7__cxx1112basic_stringIcSt11char_traitsIcESaIcEEES8_S8_RKSt6vectorIS6_SaIS6_EERKNS_14SourceLineInfoE
FNDA:262,_ZNK5Catch12TestCaseInfo8isHiddenEv
FNDA:159,_ZNK5Catch12TestCaseInfo6throwsEv
FNDA:13,_ZNK5Catch12TestCaseInfo8okToFailEv
FNDA:167,_ZNK5Catch12TestCaseInfo14expectedToFailEv
FNDA:238,_ZNK5Catch12TestCaseInfo12tagsAsStringB5cxx11Ev
FNDA:364,_ZN5Catch8TestCaseC2EPNS_12ITestInvokerEONS_12TestCaseInfoE
FNDA:0,_ZNK5Catch8TestCase8withNameERKNSt7__cxx1112basic_stringIcSt11char_traitsIcESaIcEEE
FNDA:566,_ZNK5Catch8TestCase6invokeEv
FNDA:0,_ZNK5Catch8TestCaseeqERKS0_
FNDA:988,_ZNK5Catch8TestCaseltERKS0_
FNDA:1110,_ZNK5Catch8TestCase15getTestCaseInfoEv
FNDA:43,_ZN5Catch9sortTestsERKNS_7IConfigERKSt6vectorINS_8TestCaseESaIS4_EE
FNDA:159,_ZN5Catch11isThrowSafeERKNS_8TestCaseERKNS_7IConfigE
FNDA:103,_ZN5Catch9matchTestERKNS_8TestCaseERKNS_8TestSpecERKNS_7IConfigE
FNDA:43,_ZN5Catch27enforceNoDuplicateTestCasesERKSt6vectorINS_8TestCaseESaIS1_EE
FNDA:14,_ZN5Catch11filterTestsERKSt6vectorINS_8TestCaseESaIS1_EERKNS_8TestSpecERKNS_7IConfigE
FNDA:43,_ZN5Catch21getAllTestCasesSortedERKNS_7IConfigE
FNDA:364,_ZN5Catch12TestRegistry12registerTestERKNS_8TestCaseE
FNDA:0,_ZNK5Catch12TestRegistry11getAllTestsEv
FNDA:43,_ZNK5Catch12TestRegistry17getAllTestsSortedERKNS_7IConfigE
FNDA:364,_ZN5Catch21TestInvokerAsFunctionC2EPFvvE
FNDA:566,_ZNK5Catch21TestInvokerAsFunction6invokeEv
FNDA:364,_ZN5Catch16extractClassNameB5cxx11ERKNS_9StringRefE
FNDA:2833,_ZN5Catch16TestCaseTracking15NameAndLocationC2ERKNSt7__cxx1112basic_stringIcSt11char_traitsIcESaIcEEERKNS_14SourceLineInfoE
FNDA:167,_ZN5Catch16TestCaseTracking14TrackerContext8startRunEv
FNDA:0,_ZN5Catch16TestCaseTracking14TrackerContext6endRunEv
FNDA:566,_ZN5Catch16TestCaseTracking14TrackerContext10startCycleEv
FNDA:1406,_ZN5Catch16TestCaseTracking14TrackerContext13completeCycleEv
FNDA:2666,_ZNK5Catch16TestCaseTracking14TrackerContext14completedCycleEv
FNDA:4912,_ZN5Catch16TestCaseTracking14TrackerContext14currentTrackerEv
FNDA:2812,_ZN5Catch16TestCaseTracking14TrackerContext17setCurrentTrackerEPNS0_8ITrackerE
FNDA:775,_ZN5Catch16TestCaseTracking11TrackerBaseC2ERKNS0_15NameAndLocationERNS0_14TrackerContextEPNS0_8ITrackerE
FNDA:6636,_ZNK5Catch16TestCaseTracking11TrackerBase15nameAndLocationEv
FNDA:5291,_ZNK5Catch16TestCaseTracking11TrackerBase10isCompleteEv
FNDA:566,_ZNK5Catch16TestCaseTracking11TrackerBase23isSuccessfullyCompletedEv
FNDA:2100,_ZNK5Catch16TestCaseTracking11TrackerBase6isOpenEv
FNDA:0,_ZNK5Catch16TestCaseTracking11TrackerBase11hasChildrenEv
FNDA:608,_ZN5Catch16TestCaseTracking11TrackerBase8addChildERKSt10shared_ptrINS0_8ITrackerEE
FNDA:2666,_ZN5Catch16TestCaseTracking11TrackerBase9findChildERKNS0_15NameAndLocationE
FNDA:4578,_ZZN5Catch16TestCaseTracking11TrackerBase9findChildERKNS0_15NameAndLocationEENKUlRKSt10shared_ptrINS0_8ITrackerEEE_clES9_
FNDA:420,_ZN5Catch16TestCaseTracking11TrackerBase6parentEv
FNDA:2246,_ZN5Catch16TestCaseTracking11TrackerBase9openChildEv
FNDA:420,_ZNK5Catch16TestCaseTracking11TrackerBase16isSectionTrackerEv
FNDA:0,_ZNK5Catch16TestCaseTracking11TrackerBase18isGeneratorTrackerEv
FNDA:1406,_ZN5Catch16TestCaseTracking11TrackerBase4openEv
FNDA:1406,_ZN5Catch16TestCaseTracking11TrackerBase5closeEv
FNDA:1785,_ZZN5Catch16TestCaseTracking11TrackerBase5closeEvENKUlRKSt10shared_ptrINS0_8ITrackerEEE_clES6_
FNDA:0,_ZN5Catch16TestCaseTracking11TrackerBase4failEv
FNDA:0,_ZN5Catch16TestCaseTracking11TrackerBase23markAsNeedingAnotherRunEv
FNDA:1406,_ZN5Catch16TestCaseTracking11TrackerBase12moveToParentEv
FNDA:1406,_ZN5Catch16TestCaseTracking11TrackerBase10moveToThisEv
FNDA:754,_ZN5Catch16TestCaseTracking14SectionTrackerC2ERKNS0_15NameAndLocationERNS0_14TrackerContextEPNS0_8ITrackerE
FNDA:4031,_ZNK5Catch16TestCaseTracking14SectionTracker10isCompleteEv
FNDA:2413,_ZNK5Catch16TestCaseTracking14SectionTracker16isSectionTrackerEv
FNDA:2246,_ZN5Catch16TestCaseTracking14SectionTracker7acquireERNS0_14TrackerContextERKNS0_15NameAndLocationE
FNDA:1616,_ZN5Catch16TestCaseTracking14SectionTracker7tryOpenEv
FNDA:167,_ZN5Catch16TestCaseTracking14SectionTracker17addInitialFiltersERKSt6vectorINSt7__cxx1112basic_stringIcSt11char_traitsIcESaIcEEESaIS8_EE
FNDA:587,_ZN5Catch16TestCaseTracking14SectionTracker14addNextFiltersERKSt6vectorINSt7__cxx1112basic_stringIcSt11char_traitsIcESaIcEEESaIS8_EE
FNDA:364,_ZN5Catch15makeTestInvokerEPFvvE
FNDA:364,_ZN5Catch11NameAndTagsC2ERKNS_9StringRefES3_
FNDA:364,_ZN5Catch7AutoRegC2EPNS_12ITestInvokerERKNS_14SourceLineInfoERKNS_9StringRefERKNS_11NameAndTagsE
FNDA:36,_ZN5Catch8TestSpec7PatternC2ERKNSt7__cxx1112basic_stringIcSt11char_traitsIcESaIcEEE
FNDA:8,_ZNK5Catch8TestSpec7Pattern4nameB5cxx11Ev
FNDA:22,_ZN5Catch8TestSpec11NamePatternC2ERKNSt7__cxx1112basic_stringIcSt11char_traitsIcESaIcEEES9_
FNDA:159,_ZNK5Catch8TestSpec11NamePattern7matchesERKNS_12TestCaseInfoE
FNDA:14,_ZN5Catch8TestSpec10TagPatternC2ERKNSt7__cxx1112basic_stringIcSt11char_traitsIcESaIcEEES9_
FNDA:103,_ZNK5Catch8TestSpec10TagPattern7matchesERKNS_12TestCaseInfoE
FNDA:0,_ZN5Catch8TestSpec15ExcludedPatternC2ERKSt10shared_ptrINS0_7PatternEE
FNDA:0,_ZNK5Catch8TestSpec15ExcludedPattern7matchesERKNS_12TestCaseInfoE
FNDA:262,_ZNK5Catch8TestSpec6Filter7matchesERKNS_12TestCaseInfoE
FNDA:262,_ZZNK5Catch8TestSpec6Filter7matchesERKNS_12TestCaseInfoEENKUlRKSt10shared_ptrINS0_7PatternEEE_clES9_
FNDA:8,_ZNK5Catch8TestSpec6Filter4nameB5cxx11Ev
FNDA:235,_ZNK5Catch8TestSpec10hasFiltersEv
FNDA:103,_ZNK5Catch8TestSpec7matchesERKNS_12TestCaseInfoE
FNDA:206,_ZZNK5Catch8TestSpec7matchesERKNS_12TestCaseInfoEENKUlRKNS0_6FilterEE_clES6_
FNDA:29,_ZNK5Catch8TestSpec15matchesByFilterERKSt6vectorINS_8TestCaseESaIS2_EERKNS_7IConfigE
FNDA:8,_ZZNK5Catch8TestSpec15matchesByFilterERKSt6vectorINS_8TestCaseESaIS2_EERKNS_7IConfigEENKUlRKNS0_6FilterEE_clESC_
FNDA:58,_ZNK5Catch8TestSpec14getInvalidArgsB5cxx11Ev
FNDA:43,_ZN5Catch14TestSpecParserC2ERKNS_17ITagAliasRegistryE
FNDA:22,_ZN5Catch14TestSpecParser5parseERKNSt7__cxx1112basic_stringIcSt11char_traitsIcESaIcEEE
FNDA:43,_ZN5Catch14TestSpecParser8testSpecEv
FNDA:182,_ZN5Catch14TestSpecParser9visitCharEc
FNDA:36,_ZN5Catch14TestSpecParser15processNoneCharEc
FNDA:104,_ZN5Catch14TestSpecParser15processNameCharEc
FNDA:28,_ZN5Catch14TestSpecParser16processOtherCharEc
FNDA:50,_ZN5Catch14TestSpecParser12startNewModeENS0_4ModeE
FNDA:50,_ZN5Catch14TestSpecParser7endModeEv
FNDA:0,_ZN5Catch14TestSpecParser6escapeEv
FNDA:182,_ZNK5Catch14TestSpecParser13isControlCharEc
FNDA:57,_ZN5Catch14TestSpecParser9addFilterEv
FNDA:0,_ZN5Catch14TestSpecParser12saveLastModeEv
FNDA:0,_ZN5Catch14TestSpecParser20revertBackToLastModeEv
FNDA:14,_ZN5Catch14TestSpecParser8separateEv
FNDA:36,_ZN5Catch14TestSpecParser17preprocessPatternB5cxx11Ev
FNDA:22,_ZN5Catch14TestSpecParser14addNamePatternEv
FNDA:14,_ZN5Catch14TestSpecParser13addTagPatternEv
FNDA:0,_ZN5Catch13parseTestSpecERKNSt7__cxx1112basic_stringIcSt11char_traitsIcESaIcEEE
FNDA:3502,_ZN5Catch31getCurrentNanosecondsSinceEpochEv
FNDA:0,_ZN5Catch12_GLOBAL__N_123estimateClockResolutionEv
FNDA:0,_ZN5Catch27getEstimatedClockResolutionEv
FNDA:2381,_ZN5Catch5Timer5startEv
FNDA:1121,_ZNK5Catch5Timer21getElapsedNanosecondsEv
FNDA:1121,_ZNK5Catch5Timer22getElapsedMicrosecondsEv
FNDA:0,_ZNK5Catch5Timer22getElapsedMillisecondsEv
FNDA:1121,_ZNK5Catch5Timer17getElapsedSecondsEv
FNDA:0,_ZN5Catch6Detail12_GLOBAL__N_110Endianness5whichEv
FNDA:0,_ZN5Catch6Detail17rawMemoryToStringB5cxx11EPKvm
FNDA:0,_ZN5Catch10fpToStringIdEENSt7__cxx1112basic_stringIcSt11char_traitsIcESaIcEEET_i
FNDA:0,_ZN5Catch10fpToStringIfEENSt7__cxx1112basic_stringIcSt11char_traitsIcESaIcEEET_i
FNDA:0,_ZN5Catch11StringMakerINSt7__cxx1112basic_stringIcSt11char_traitsIcESaIcEEEvE7convertERKS6_
FNDA:0,_ZN5Catch11StringMakerIPKcvE7convertB5cxx11ES2_
FNDA:0,_ZN5Catch11StringMakerIPcvE7convertB5cxx11ES1_
FNDA:0,_ZN5Catch11StringMakerINSt7__cxx1112basic_stringIwSt11char_traitsIwESaIwEEEvE7convertERKS6_
FNDA:0,_ZN5Catch11StringMakerIPKwvE7convertB5cxx11ES2_
FNDA:0,_ZN5Catch11StringMakerIPwvE7convertB5cxx11ES1_
FNDA:24,_ZN5Catch11StringMakerIivE7convertB5cxx11Ei
FNDA:0,_ZN5Catch11StringMakerIlvE7convertB5cxx11El
FNDA:24,_ZN5Catch11StringMakerIxvE7convertB5cxx11Ex
FNDA:0,_ZN5Catch11StringMakerIjvE7convertB5cxx11Ej
FNDA:0,_ZN5Catch11StringMakerImvE7convertB5cxx11Em
FNDA:0,_ZN5Catch11StringMakerIyvE7convertB5cxx11Ey
FNDA:0,_ZN5Catch11StringMakerIbvE7convertB5cxx11Eb
FNDA:0,_ZN5Catch11StringMakerIavE7convertB5cxx11Ea
FNDA:0,_ZN5Catch11StringMakerIcvE7convertB5cxx11Ec
FNDA:0,_ZN5Catch11StringMakerIhvE7convertB5cxx11Eh
FNDA:0,_ZN5Catch11StringMakerIDnvE7convertB5cxx11EDn
FNDA:0,_ZN5Catch11StringMakerIfvE7convertB5cxx11Ef
FNDA:0,_ZN5Catch11StringMakerIdvE7convertB5cxx11Ed
FNDA:0,_ZN5Catch12ratio_stringISt5ratioILl1ELl1000000000000000000EEE6symbolB5cxx11Ev
FNDA:0,_ZN5Catch12ratio_stringISt5ratioILl1ELl1000000000000000EEE6symbolB5cxx11Ev
FNDA:0,_ZN5Catch12ratio_stringISt5ratioILl1ELl1000000000000EEE6symbolB5cxx11Ev
FNDA:0,_ZN5Catch12ratio_stringISt5ratioILl1ELl1000000000EEE6symbolB5cxx11Ev
FNDA:0,_ZN5Catch12ratio_stringISt5ratioILl1ELl1000000EEE6symbolB5cxx11Ev
FNDA:0,_ZN5Catch12ratio_stringISt5ratioILl1ELl1000EEE6symbolB5cxx11Ev
FNDA:1320,_ZNK5Catch6CountsmiERKS0_
FNDA:501,_ZN5Catch6CountspLERKS0_
FNDA:1019,_ZNK5Catch6Counts5totalEv
FNDA:8,_ZNK5Catch6Counts9allPassedEv
FNDA:135,_ZNK5Catch6Counts5allOkEv
FNDA:167,_ZNK5Catch6TotalsmiERKS0_
FNDA:167,_ZN5Catch6TotalspLERKS0_
FNDA:167,_ZNK5Catch6Totals5deltaERKS0_
FNDA:420,_ZN5Catch19uncaught_exceptionsEv
FNDA:9,_ZN5Catch7VersionC2EjjjPKcj
FNDA:9,_ZN5CatchlsERSoRKNS_7VersionE
FNDA:9,_ZN5Catch14libraryVersionEv
FNDA:22,_ZN5Catch15WildcardPatternC2ERKNSt7__cxx1112basic_stringIcSt11char_traitsIcESaIcEEENS_13CaseSensitive6ChoiceE
FNDA:159,_ZNK5Catch15WildcardPattern7matchesERKNSt7__cxx1112basic_stringIcSt11char_traitsIcESaIcEEE
FNDA:181,_ZNK5Catch15WildcardPattern15normaliseStringERKNSt7__cxx1112basic_stringIcSt11char_traitsIcESaIcEEE
FNDA:0,_ZN5Catch12_GLOBAL__N_113trailingBytesEh
FNDA:0,_ZN5Catch12_GLOBAL__N_111headerValueEh
FNDA:0,_ZN5Catch12_GLOBAL__N_113hexEscapeCharERSoh
FNDA:2180,_ZN5Catch12_GLOBAL__N_113shouldNewlineENS_13XmlFormattingE
FNDA:1655,_ZN5Catch12_GLOBAL__N_112shouldIndentENS_13XmlFormattingE
FNDA:1635,_ZN5CatchorENS_13XmlFormattingES0_
FNDA:3835,_ZN5CatchanENS_13XmlFormattingES0_
FNDA:3313,_ZN5Catch9XmlEncodeC2ERKNSt7__cxx1112basic_stringIcSt11char_traitsIcESaIcEEENS0_7ForWhatE
FNDA:3313,_ZNK5Catch9XmlEncode8encodeToERSo
FNDA:3313,_ZN5CatchlsERSoRKNS_9XmlEncodeE
FNDA:545,_ZN5Catch9XmlWriter13ScopedElementC2EPS0_NS_13XmlFormattingE
FNDA:0,_ZN5Catch9XmlWriter13ScopedElementC2EOS1_
FNDA:0,_ZN5Catch9XmlWriter13ScopedElementaSEOS1_
FNDA:545,_ZN5Catch9XmlWriter13ScopedElementD2Ev
FNDA:20,_ZN5Catch9XmlWriter13ScopedElement9writeTextERKNSt7__cxx1112basic_stringIcSt11char_traitsIcESaIcEEENS_13XmlFormattingE
FNDA:25,_ZN5Catch9XmlWriterC2ERSo
FNDA:25,_ZN5Catch9XmlWriterD2Ev
FNDA:1080,_ZN5Catch9XmlWriter12startElementERKNSt7__cxx1112basic_stringIcSt11char_traitsIcESaIcEEENS_13XmlFormattingE
FNDA:545,_ZN5Catch9XmlWriter13scopedElementERKNSt7__cxx1112basic_stringIcSt11char_traitsIcESaIcEEENS_13XmlFormattingE
FNDA:1080,_ZN5Catch9XmlWriter10endElementENS_13XmlFormattingE
FNDA:3428,_ZN5Catch9XmlWriter14writeAttributeERKNSt7__cxx1112basic_stringIcSt11char_traitsIcESaIcEEES8_
FNDA:145,_ZN5Catch9XmlWriter14writeAttributeERKNSt7__cxx1112basic_stringIcSt11char_traitsIcESaIcEEEb
FNDA:20,_ZN5Catch9XmlWriter9writeTextERKNSt7__cxx1112basic_stringIcSt11char_traitsIcESaIcEEENS_13XmlFormattingE
FNDA:0,_ZN5Catch9XmlWriter12writeCommentERKNSt7__cxx1112basic_stringIcSt11char_traitsIcESaIcEEENS_13XmlFormattingE
FNDA:0,_ZN5Catch9XmlWriter18writeStylesheetRefERKNSt7__cxx1112basic_stringIcSt11char_traitsIcESaIcEEE
FNDA:0,_ZN5Catch9XmlWriter14writeBlankLineEv
FNDA:1575,_ZN5Catch9XmlWriter15ensureTagClosedEv
FNDA:2180,_ZN5Catch9XmlWriter15applyFormattingENS_13XmlFormattingE
FNDA:25,_ZN5Catch9XmlWriter16writeDeclarationEv
FNDA:2215,_ZN5Catch9XmlWriter18newlineIfNecessaryEv
FNDA:0,_ZN5Catch25prepareExpandedExpressionERNS_15AssertionResultE
FNDA:0,_ZN5Catch20getFormattedDurationB5cxx11Ed
FNDA:8,_ZN5Catch16serializeFiltersERKSt6vectorINSt7__cxx1112basic_stringIcSt11char_traitsIcESaIcEEESaIS6_EE
FNDA:0,_ZN5Catch21TestEventListenerBaseC2ERKNS_14ReporterConfigE
FNDA:0,_ZN5Catch21TestEventListenerBase23getSupportedVerbositiesEv
FNDA:0,_ZN5Catch21TestEventListenerBase17assertionStartingERKNS_13AssertionInfoE
FNDA:0,_ZN5Catch21TestEventListenerBase14assertionEndedERKNS_14AssertionStatsE
FNDA:0,_ZN12_GLOBAL__N_112failedStringEv
FNDA:0,_ZN12_GLOBAL__N_112passedStringEv
FNDA:0,_ZN12_GLOBAL__N_19dimColourEv
FNDA:0,_ZN12_GLOBAL__N_19bothOrAllEm
FNDA:0,_ZN5Catch12_GLOBAL__N_111printTotalsERSoRKNS_6TotalsE
FNDA:0,_ZN5Catch12_GLOBAL__N_116AssertionPrinterD2Ev
FNDA:0,_ZN5Catch12_GLOBAL__N_116AssertionPrinterC2ERSoRKNS_14AssertionStatsEb
FNDA:0,_ZN5Catch12_GLOBAL__N_116AssertionPrinter5printEv
FNDA:0,_ZNK5Catch12_GLOBAL__N_116AssertionPrinter15printSourceInfoEv
FNDA:0,_ZNK5Catch12_GLOBAL__N_116AssertionPrinter15printResultTypeENS_6Colour4CodeERKNSt7__cxx1112basic_stringIcSt11char_traitsIcESaIcEEE
FNDA:0,_ZNK5Catch12_GLOBAL__N_116AssertionPrinter10printIssueERKNSt7__cxx1112basic_stringIcSt11char_traitsIcESaIcEEE
FNDA:0,_ZN5Catch12_GLOBAL__N_116AssertionPrinter18printExpressionWasEv
FNDA:0,_ZNK5Catch12_GLOBAL__N_116AssertionPrinter23printOriginalExpressionEv
FNDA:0,_ZNK5Catch12_GLOBAL__N_116AssertionPrinter28printReconstructedExpressionEv
FNDA:0,_ZN5Catch12_GLOBAL__N_116AssertionPrinter12printMessageEv
FNDA:0,_ZN5Catch12_GLOBAL__N_116AssertionPrinter22printRemainingMessagesENS_6Colour4CodeE
FNDA:0,_ZN5Catch15CompactReporter14getDescriptionB5cxx11Ev
FNDA:0,_ZNK5Catch15CompactReporter14getPreferencesEv
FNDA:0,_ZN5Catch15CompactReporter19noMatchingTestCasesERKNSt7__cxx1112basic_stringIcSt11char_traitsIcESaIcEEE
FNDA:0,_ZN5Catch15CompactReporter17assertionStartingERKNS_13AssertionInfoE
FNDA:0,_ZN5Catch15CompactReporter14assertionEndedERKNS_14AssertionStatsE
FNDA:0,_ZN5Catch15CompactReporter12sectionEndedERKNS_12SectionStatsE
FNDA:0,_ZN5Catch15CompactReporter12testRunEndedERKNS_12TestRunStatsE
FNDA:0,_ZN5Catch15CompactReporterD0Ev
FNDA:0,_ZN5Catch15CompactReporterD2Ev
FNDA:3,_ZN5Catch12_GLOBAL__N_123ConsoleAssertionPrinterD2Ev
FNDA:3,_ZN5Catch12_GLOBAL__N_123ConsoleAssertionPrinterC2ERSoRKNS_14AssertionStatsEb
FNDA:3,_ZNK5Catch12_GLOBAL__N_123ConsoleAssertionPrinter5printEv
FNDA:3,_ZNK5Catch12_GLOBAL__N_123ConsoleAssertionPrinter15printResultTypeEv
FNDA:3,_ZNK5Catch12_GLOBAL__N_123ConsoleAssertionPrinter23printOriginalExpressionEv
FNDA:3,_ZNK5Catch12_GLOBAL__N_123ConsoleAssertionPrinter28printReconstructedExpressionEv
FNDA:3,_ZNK5Catch12_GLOBAL__N_123ConsoleAssertionPrinter12printMessageEv
FNDA:3,_ZNK5Catch12_GLOBAL__N_123ConsoleAssertionPrinter15printSourceInfoEv
FNDA:12,_ZN5Catch12_GLOBAL__N_19makeRatioEmm
FNDA:1,_ZN5Catch12_GLOBAL__N_17findMaxERmS1_S1_
FNDA:32,_ZN5Catch12_GLOBAL__N_110ColumnInfoD2Ev
FNDA:16,_ZN5Catch12_GLOBAL__N_110ColumnInfoC2ERKS1_
FNDA:4,_ZN5Catch12TablePrinterD2Ev
FNDA:4,_ZN5Catch12TablePrinterC2ERSoSt6vectorINS_12_GLOBAL__N_110ColumnInfoESaIS4_EE
FNDA:411,_ZN5Catch12TablePrinter5closeEv
FNDA:0,_ZN5CatchlsERNS_12TablePrinterENS_12_GLOBAL__N_18RowBreakE
FNDA:4,_ZN5Catch15ConsoleReporterC2ERKNS_14ReporterConfigE
FNDA:4,_ZZN5Catch15ConsoleReporterC4ERKNS_14ReporterConfigEENKUlvE_clEv
FNDA:0,_ZN5Catch15ConsoleReporter14getDescriptionB5cxx11Ev
FNDA:0,_ZN5Catch15ConsoleReporter19noMatchingTestCasesERKNSt7__cxx1112basic_stringIcSt11char_traitsIcESaIcEEE
FNDA:0,_ZN5Catch15ConsoleReporter22reportInvalidArgumentsERKNSt7__cxx1112basic_stringIcSt11char_traitsIcESaIcEEE
FNDA:650,_ZN5Catch15ConsoleReporter17assertionStartingERKNS_13AssertionInfoE
FNDA:3,_ZN5Catch15ConsoleReporter14assertionEndedERKNS_14AssertionStatsE
FNDA:188,_ZN5Catch15ConsoleReporter15sectionStartingERKNS_11SectionInfoE
FNDA:188,_ZN5Catch15ConsoleReporter12sectionEndedERKNS_12SectionStatsE
FNDA:32,_ZN5Catch15ConsoleReporter13testCaseEndedERKNS_13TestCaseStatsE
FNDA:4,_ZN5Catch15ConsoleReporter14testGroupEndedERKNS_14TestGroupStatsE
FNDA:4,_ZN5Catch15ConsoleReporter12testRunEndedERKNS_12TestRunStatsE
FNDA:4,_ZN5Catch15ConsoleReporter15testRunStartingERKNS_11TestRunInfoE
FNDA:3,_ZN5Catch15ConsoleReporter9lazyPrintEv
FNDA:3,_ZN5Catch15ConsoleReporter37lazyPrintWithoutClosingBenchmarkTableEv
FNDA:3,_ZN5Catch15ConsoleReporter16lazyPrintRunInfoEv
FNDA:3,_ZN5Catch15ConsoleReporter18lazyPrintGroupInfoEv
FNDA:3,_ZN5Catch15ConsoleReporter29printTestCaseAndSectionHeaderEv
FNDA:0,_ZN5Catch15ConsoleReporter17printClosedHeaderERKNSt7__cxx1112basic_stringIcSt11char_traitsIcESaIcEEE
FNDA:3,_ZN5Catch15ConsoleReporter15printOpenHeaderERKNSt7__cxx1112basic_stringIcSt11char_traitsIcESaIcEEE
FNDA:3,_ZN5Catch15ConsoleReporter17printHeaderStringERKNSt7__cxx1112basic_stringIcSt11char_traitsIcESaIcEEEm
FNDA:21,_ZN5Catch13SummaryColumnC2EOS0_
FNDA:81,_ZN5Catch13SummaryColumnD2Ev
FNDA:48,_ZN5Catch13SummaryColumnC2ERKS0_
FNDA:12,_ZN5Catch13SummaryColumnC2ENSt7__cxx1112basic_stringIcSt11char_traitsIcESaIcEEENS_6Colour4CodeE
FNDA:24,_ZN5Catch13SummaryColumn6addRowEm
FNDA:4,_ZN5Catch15ConsoleReporter11printTotalsERKNS_6TotalsE
FNDA:6,_ZN5Catch15ConsoleReporter15printSummaryRowERKNSt7__cxx1112basic_stringIcSt11char_traitsIcESaIcEEERKSt6vectorINS_13SummaryColumnESaISA_EEm
FNDA:4,_ZN5Catch15ConsoleReporter18printTotalsDividerERKNS_6TotalsE
FNDA:0,_ZN5Catch15ConsoleReporter19printSummaryDividerEv
FNDA:4,_ZN5Catch15ConsoleReporter16printTestFiltersEv
FNDA:0,_ZN5Catch12_GLOBAL__N_119getCurrentTimestampEv
FNDA:0,_ZN5Catch12_GLOBAL__N_111fileNameTagERKSt6vectorINSt7__cxx1112basic_stringIcSt11char_traitsIcESaIcEEESaIS7_EE
FNDA:0,_ZZN5Catch12_GLOBAL__N_111fileNameTagERKSt6vectorINSt7__cxx1112basic_stringIcSt11char_traitsIcESaIcEEESaIS7_EEENKUlRKS7_E_clESD_
FNDA:0,_ZN5Catch13JunitReporterC2ERKNS_14ReporterConfigE
FNDA:0,_ZN5Catch13JunitReporterD0Ev
FNDA:0,_ZN5Catch13JunitReporterD2Ev
FNDA:0,_ZN5Catch13JunitReporter14getDescriptionB5cxx11Ev
FNDA:0,_ZN5Catch13JunitReporter19noMatchingTestCasesERKNSt7__cxx1112basic_stringIcSt11char_traitsIcESaIcEEE
FNDA:0,_ZN5Catch13JunitReporter15testRunStartingERKNS_11TestRunInfoE
FNDA:0,_ZN5Catch13JunitReporter17testGroupStartingERKNS_9GroupInfoE
FNDA:0,_ZN5Catch13JunitReporter16testCaseStartingERKNS_12TestCaseInfoE
FNDA:0,_ZN5Catch13JunitReporter14assertionEndedERKNS_14AssertionStatsE
FNDA:0,_ZN5Catch13JunitReporter13testCaseEndedERKNS_13TestCaseStatsE
FNDA:0,_ZN5Catch13JunitReporter14testGroupEndedERKNS_14TestGroupStatsE
FNDA:0,_ZN5Catch13JunitReporter22testRunEndedCumulativeEv
FNDA:0,_ZN5Catch13JunitReporter10writeGroupERKNS_22CumulativeReporterBaseIS0_E4NodeINS_14TestGroupStatsENS3_INS_13TestCaseStatsENS2_11SectionNodeEEEEEd
FNDA:0,_ZN5Catch13JunitReporter13writeTestCaseERKNS_22CumulativeReporterBaseIS0_E4NodeINS_13TestCaseStatsENS2_11SectionNodeEEE
FNDA:0,_ZN5Catch13JunitReporter12writeSectionERKNSt7__cxx1112basic_stringIcSt11char_traitsIcESaIcEEES8_RKNS_22CumulativeReporterBaseIS0_E11SectionNodeE
FNDA:0,_ZN5Catch13JunitReporter15writeAssertionsERKNS_22CumulativeReporterBaseIS0_E11SectionNodeE
FNDA:0,_ZN5Catch13JunitReporter14writeAssertionERKNS_14AssertionStatsE
FNDA:0,_ZN5Catch17ListeningReporterC2Ev
FNDA:0,_ZN5Catch17ListeningReporter11addListenerEOSt10unique_ptrINS_18IStreamingReporterESt14default_deleteIS2_EE
FNDA:0,_ZN5Catch17ListeningReporter11addReporterEOSt10unique_ptrINS_18IStreamingReporterESt14default_deleteIS2_EE
FNDA:0,_ZNK5Catch17ListeningReporter14getPreferencesEv
FNDA:0,_ZN5Catch17ListeningReporter23getSupportedVerbositiesEv
FNDA:0,_ZN5Catch17ListeningReporter19noMatchingTestCasesERKNSt7__cxx1112basic_stringIcSt11char_traitsIcESaIcEEE
FNDA:0,_ZN5Catch17ListeningReporter22reportInvalidArgumentsERKNSt7__cxx1112basic_stringIcSt11char_traitsIcESaIcEEE
FNDA:0,_ZN5Catch17ListeningReporter15testRunStartingERKNS_11TestRunInfoE
FNDA:0,_ZN5Catch17ListeningReporter17testGroupStartingERKNS_9GroupInfoE
FNDA:0,_ZN5Catch17ListeningReporter16testCaseStartingERKNS_12TestCaseInfoE
FNDA:0,_ZN5Catch17ListeningReporter15sectionStartingERKNS_11SectionInfoE
FNDA:0,_ZN5Catch17ListeningReporter17assertionStartingERKNS_13AssertionInfoE
FNDA:0,_ZN5Catch17ListeningReporter14assertionEndedERKNS_14AssertionStatsE
FNDA:0,_ZN5Catch17ListeningReporter12sectionEndedERKNS_12SectionStatsE
FNDA:0,_ZN5Catch17ListeningReporter13testCaseEndedERKNS_13TestCaseStatsE
FNDA:0,_ZN5Catch17ListeningReporter14testGroupEndedERKNS_14TestGroupStatsE
FNDA:0,_ZN5Catch17ListeningReporter12testRunEndedERKNS_12TestRunStatsE
FNDA:0,_ZN5Catch17ListeningReporter8skipTestERKNS_12TestCaseInfoE
FNDA:0,_ZNK5Catch17ListeningReporter7isMultiEv
FNDA:25,_ZN5Catch11XmlReporterC2ERKNS_14ReporterConfigE
FNDA:0,_ZN5Catch11XmlReporter14getDescriptionB5cxx11Ev
FNDA:25,_ZNK5Catch11XmlReporter16getStylesheetRefB5cxx11Ev
FNDA:485,_ZN5Catch11XmlReporter15writeSourceInfoERKNS_14SourceLineInfoE
FNDA:0,_ZN5Catch11XmlReporter19noMatchingTestCasesERKNSt7__cxx1112basic_stringIcSt11char_traitsIcESaIcEEE
FNDA:25,_ZN5Catch11XmlReporter15testRunStartingERKNS_11TestRunInfoE
FNDA:25,_ZN5Catch11XmlReporter17testGroupStartingERKNS_9GroupInfoE
FNDA:135,_ZN5Catch11XmlReporter16testCaseStartingERKNS_12TestCaseInfoE
FNDA:798,_ZN5Catch11XmlReporter15sectionStartingERKNS_11SectionInfoE
FNDA:2748,_ZN5Catch11XmlReporter17assertionStartingERKNS_13AssertionInfoE
FNDA:2748,_ZN5Catch11XmlReporter14assertionEndedERKNS_14AssertionStatsE
FNDA:798,_ZN5Catch11XmlReporter12sectionEndedERKNS_12SectionStatsE
FNDA:135,_ZN5Catch11XmlReporter13testCaseEndedERKNS_13TestCaseStatsE
FNDA:25,_ZN5Catch11XmlReporter14testGroupEndedERKNS_14TestGroupStatsE
FNDA:25,_ZN5Catch11XmlReporter12testRunEndedERKNS_12TestRunStatsE
FNDA:49,main
FNDA:49,_GLOBAL__sub_I__ZN5Catch6Detail6ApproxC2Ed
FNDA:49,_Z41__static_initialization_and_destruction_0ii
FNF:1620
FNH:909
DA:471,11886
DA:485,6058
DA:486,6058
DA:487,6058
DA:488,6058
DA:552,728
DA:560,98
DA:598,3762
DA:602,14320
DA:603,14320
DA:604,14320
DA:605,14320
DA:607,43
DA:608,43
DA:609,43
DA:610,43
DA:612,728
DA:613,728
DA:622,0
DA:623,0
DA:624,0
DA:628,72
DA:629,72
DA:631,61
DA:632,61
DA:648,0
DA:649,0
DA:653,364
DA:654,364
DA:660,3398
DA:661,3398
DA:966,364
DA:1368,3424
DA:1413,86
DA:1430,2845
DA:1431,2845
DA:1432,2845
DA:1434,1374
DA:1446,0
DA:1456,49
DA:1599,103
DA:1600,206
DA:1603,103
DA:1604,206
DA:1624,127
DA:1625,127
DA:2175,3398
DA:2176,0
DA:2177,3398
DA:2180,3398
DA:2181,3398
DA:2182,3398
DA:2183,3398
DA:2419,58
DA:2504,3398
DA:2560,0
DA:2577,0
DA:2588,0
DA:2594,0
DA:2595,0
DA:2596,0
DA:2615,0
DA:2790,1738
DA:2803,29
DA:2821,10432
DA:2837,420
DA:2855,1705
DA:2926,98
DA:2937,98
DA:2971,0
DA:2976,98
DA:3062,0
DA:3063,0
DA:3173,16
DA:3200,0
DA:3202,0
DA:3219,0
DA:3237,0
DA:3354,0
DA:3358,0
DA:3359,0
DA:3360,0
DA:3384,0
DA:3393,0
DA:3409,0
DA:3493,0
DA:3503,0
DA:3511,0
DA:3515,0
DA:3519,0
DA:3523,0
DA:3528,0
DA:3727,0
DA:3732,0
DA:3736,0
DA:3737,0
DA:3739,0
DA:3740,0
DA:3741,0
DA:3742,0
DA:3743,0
DA:3745,0
DA:3746,0
DA:3816,21
DA:3834,0
DA:3835,0
DA:3876,0
DA:4304,86
DA:4313,86
DA:4327,6124
DA:4329,6124
DA:4330,43
DA:4332,6124
DA:4335,6052
DA:4337,6052
DA:4357,159
DA:4365,159
DA:4366,159
DA:4367,159
DA:4377,2990
DA:4378,2990
DA:4379,2990
DA:4380,2990
DA:4383,3432
DA:4384,3432
DA:4385,2990
DA:4386,3432
DA:4387,3432
DA:4389,14
DA:4390,0
DA:4391,12
DA:4394,14
DA:4395,14
DA:4398,43
DA:4402,43
DA:4403,43
DA:4457,86
DA:4513,0
DA:4715,4652
DA:4750,3256
DA:4783,58
DA:5034,22
DA:5054,329
DA:5055,36
DA:5066,22
DA:5074,14
DA:5082,0
DA:5090,422
DA:5098,32
DA:5130,49
DA:5144,43
DA:5186,0
DA:5187,0
DA:5188,0
DA:5189,0
DA:5190,0
DA:5216,184
DA:5263,43
DA:5322,19257
DA:5336,13755
DA:5418,29
DA:5431,29
DA:5437,174
DA:5438,225
DA:5439,225
DA:5440,225
DA:5441,225
DA:5443,283
DA:5444,283
DA:5445,283
DA:5446,283
DA:5450,145
DA:5454,174
DA:5464,2751
DA:5469,0
DA:5480,986
DA:5485,0
DA:5497,167
DA:5504,0
DA:5517,29
DA:5523,0
DA:5534,29
DA:5539,0
DA:5588,29
DA:5589,29
DA:5599,0
DA:5633,392
DA:5640,98
DA:5672,29
DA:5674,29
DA:5676,29
DA:5677,29
DA:5678,0
DA:5679,29
DA:5681,595
DA:5682,595
DA:5685,29
DA:5686,29
DA:5689,29
DA:5691,0
DA:5693,0
DA:5695,29
DA:5696,29
DA:5697,29
DA:5699,29
DA:5700,29
DA:5701,29
DA:5703,167
DA:5704,167
DA:5705,167
DA:5706,986
DA:5707,986
DA:5708,986
DA:5710,986
DA:5711,986
DA:5712,986
DA:5713,167
DA:5714,167
DA:5715,167
DA:5716,29
DA:5717,29
DA:5718,29
DA:5719,29
DA:5720,29
DA:5721,29
DA:5722,29
DA:5723,29
DA:5725,0
DA:5728,0
DA:5745,0
DA:5746,0
DA:5753,0
DA:5754,0
DA:5773,0
DA:5774,0
DA:5775,0
DA:5776,0
DA:5777,0
DA:5789,0
DA:5791,0
DA:5793,0
DA:5794,0
DA:5795,0
DA:5796,0
DA:5797,0
DA:5799,0
DA:5800,0
DA:5803,0
DA:5804,0
DA:5807,0
DA:5808,0
DA:5810,0
DA:5812,0
DA:5813,0
DA:5814,0
DA:5815,0
DA:5816,0
DA:5817,0
DA:5818,0
DA:5821,0
DA:5822,0
DA:5823,0
DA:5826,0
DA:5827,0
DA:5828,0
DA:5831,0
DA:5833,0
DA:5834,0
DA:5835,0
DA:5837,0
DA:5839,0
DA:5840,0
DA:5846,0
DA:5847,0
DA:5848,0
DA:5849,0
DA:5851,0
DA:5852,0
DA:5853,0
DA:5854,0
DA:5855,0
DA:5856,0
DA:5857,0
DA:5858,0
DA:5859,0
DA:5860,0
DA:5861,0
DA:5862,0
DA:5864,0
DA:5865,0
DA:5866,0
DA:5867,0
DA:5868,0
DA:5869,0
DA:5870,0
DA:5871,0
DA:5872,0
DA:5873,0
DA:5874,0
DA:5875,0
DA:5876,0
DA:5877,0
DA:5878,0
DA:5881,0
DA:5899,12
DA:5901,12
DA:5902,9
DA:5903,9
DA:5905,12
DA:5908,0
DA:5987,392
DA:5989,29
DA:5990,29
DA:5993,0
DA:5994,0
DA:6000,196
DA:6001,196
DA:6002,196
DA:6054,0
DA:6091,8
DA:6170,3313
DA:6200,1780
DA:6201,1780
DA:6202,1780
DA:6227,2625
DA:6228,5250
DA:6229,2625
DA:6230,5250
DA:6311,50
DA:7410,4383
DA:7421,1550
DA:7449,58
DA:7474,775
DA:7522,754
DA:7782,0
DA:7783,0
DA:7791,0
DA:7792,0
DA:7795,0
DA:7796,0
DA:7798,0
DA:7799,0
DA:7802,0
DA:7803,0
DA:7804,0
DA:7805,0
DA:7808,0
DA:7809,0
DA:7810,0
DA:7811,0
DA:7814,0
DA:7817,0
DA:7818,0
DA:7821,0
DA:7822,0
DA:7825,0
DA:7826,0
DA:7828,0
DA:7829,0
DA:7832,0
DA:7833,0
DA:7838,0
DA:7839,0
DA:7841,0
DA:7842,0
DA:7846,0
DA:7847,0
DA:8122,13
DA:8123,13
DA:8124,13
DA:8128,2751
DA:8129,2751
DA:8130,2751
DA:8132,11004
DA:8134,26
DA:8135,26
DA:8138,13
DA:8139,13
DA:8140,0
DA:8142,13
DA:8143,13
DA:8144,0
DA:8146,13
DA:8149,0
DA:8151,13
DA:8154,3398
DA:8158,3398
DA:8160,3398
DA:8161,3398
DA:8163,3398
DA:8164,3398
DA:8165,3398
DA:8166,0
DA:8167,0
DA:8168,0
DA:8170,0
DA:8171,0
DA:8174,3398
DA:8175,3398
DA:8176,3398
DA:8182,0
DA:8184,3398
DA:8186,0
DA:8191,3398
DA:8192,3398
DA:8193,3398
DA:8194,3398
DA:8196,0
DA:8197,0
DA:8198,0
DA:8200,0
DA:8201,0
DA:8202,0
DA:8203,0
DA:8204,0
DA:8205,0
DA:8207,0
DA:8208,0
DA:8209,0
DA:8211,0
DA:8212,0
DA:8213,0
DA:8217,0
DA:8218,0
DA:8219,0
DA:8226,2751
DA:8228,2751
DA:8230,16
DA:8232,16
DA:8233,13
DA:8234,26
DA:8235,13
DA:8236,13
DA:8239,16
DA:8242,2751
DA:8244,2751
DA:8245,2751
DA:8248,10
DA:8249,10
DA:8253,2767
DA:8254,2767
DA:8257,10991
DA:8258,10991
DA:8261,26
DA:8262,26
DA:8265,2751
DA:8266,2751
DA:8269,13
DA:8271,13
DA:8272,13
DA:8273,0
DA:8275,13
DA:8276,13
DA:8277,0
DA:8279,13
DA:8282,3
DA:8283,3
DA:8284,3
DA:8285,0
DA:8287,3
DA:8288,3
DA:8289,3
DA:8290,3
DA:8291,3
DA:8293,3
DA:8296,3
DA:8297,3
DA:8300,16
DA:8301,32
DA:8302,16
DA:8304,32
DA:8307,3
DA:8308,3
DA:8310,13
DA:8311,13
DA:8314,10
DA:8315,10
DA:8329,0
DA:8330,0
DA:8331,0
DA:8332,0
DA:8333,0
DA:8410,792
DA:8411,792
DA:8412,792
DA:8414,384
DA:8415,384
DA:8416,384
DA:8418,372
DA:8419,372
DA:8420,372
DA:8425,3724
DA:8443,2452
DA:8444,2452
DA:8445,2452
DA:8447,57552
DA:8449,456
DA:8450,456
DA:8451,456
DA:8453,912
DA:8454,912
DA:8455,1212
DA:8456,828
DA:8459,1024
DA:8460,1024
DA:8462,1024
DA:8463,1024
DA:8464,1024
DA:8465,1024
DA:8466,0
DA:8468,50500
DA:8469,24738
DA:8471,1024
DA:8472,940
DA:8474,84
DA:8475,828
DA:8476,372
DA:8477,108
DA:8478,12
DA:8480,84
DA:8481,84
DA:8483,0
DA:8484,0
DA:8487,1024
DA:8489,1874
DA:8490,1874
DA:8491,1874
DA:8494,850
DA:8495,850
DA:8505,940
DA:8506,940
DA:8507,940
DA:8508,940
DA:8509,940
DA:8510,174
DA:8511,940
DA:8513,850
DA:8514,850
DA:8515,850
DA:8516,850
DA:8519,850
DA:8520,850
DA:8521,850
DA:8522,0
DA:8524,1018
DA:8525,84
DA:8527,850
DA:8528,766
DA:8529,766
DA:8531,850
DA:8532,84
DA:8533,850
DA:8541,3266
DA:8543,6286
DA:8544,4998
DA:8545,4998
DA:8547,2348
DA:8548,2348
DA:8553,940
DA:8555,522
DA:8556,522
DA:8557,522
DA:8558,522
DA:8560,592
DA:8561,592
DA:8562,592
DA:8564,106
DA:8565,106
DA:8566,106
DA:8569,756
DA:8570,940
DA:8571,2452
DA:8573,418
DA:8574,418
DA:8575,836
DA:8576,418
DA:8577,418
DA:8579,0
DA:8580,418
DA:8582,418
DA:8594,174
DA:8597,174
DA:8598,174
DA:8599,174
DA:8602,696
DA:8607,348
DA:8615,174
DA:8616,174
DA:8617,174
DA:8618,174
DA:8620,696
DA:8621,522
DA:8622,174
DA:8631,174
DA:8632,174
DA:8633,174
DA:8634,174
DA:8636,696
DA:8637,522
DA:8638,174
DA:8643,426
DA:8644,426
DA:8646,252
DA:8647,504
DA:8649,1008
DA:8650,756
DA:8651,756
DA:8652,864
DA:8653,432
DA:8654,432
DA:8655,420
DA:8657,12
DA:8659,324
DA:8662,504
DA:8664,252
DA:8665,1008
DA:8666,756
DA:8667,432
DA:8669,252
DA:8679,174
DA:8680,174
DA:8682,522
DA:8683,522
DA:8684,522
DA:8686,174
DA:8687,174
DA:8688,174
DA:8689,174
DA:8692,174
DA:8694,174
DA:8695,426
DA:8696,252
DA:8697,174
DA:8699,78
DA:8700,252
DA:8702,174
DA:8712,174
DA:8713,174
DA:8714,174
DA:8715,174
DA:8716,174
DA:8758,49
DA:8764,49
DA:8765,49
DA:8766,49
DA:8773,49
DA:8774,49
DA:8783,21152
DA:8788,198
DA:8789,198
DA:8797,18569
DA:8803,241
DA:8804,241
DA:8807,241
DA:8808,0
DA:8810,241
DA:8811,198
DA:8812,198
DA:8813,98
DA:8814,98
DA:8815,0
DA:8816,0
DA:8818,98
DA:8819,0
DA:8820,0
DA:8821,0
DA:8822,0
DA:8825,98
DA:8829,100
DA:8832,241
DA:8835,49
DA:8837,49
DA:8838,49
DA:8839,49
DA:8841,2009
DA:8842,2009
DA:8847,1230
DA:8848,1230
DA:8849,1230
DA:8852,1790
DA:8853,1790
DA:8854,1790
DA:8857,192
DA:8858,192
DA:8859,0
DA:8861,192
DA:8862,192
DA:8863,192
DA:8865,192
DA:8869,1839
DA:8876,3876
DA:8877,3925
DA:8887,3967
DA:8888,3967
DA:8889,3967
DA:8893,0
DA:8895,49
DA:8896,49
DA:8897,49
DA:8898,49
DA:8900,2086
DA:8901,2086
DA:8902,2086
DA:8904,1790
DA:8905,1790
DA:8906,1790
DA:8907,1790
DA:8908,1790
DA:8909,1790
DA:8910,1790
DA:8913,2135
DA:8914,2135
DA:8915,1888
DA:8916,4270
DA:8924,1790
DA:8926,1790
DA:8930,5764
DA:8933,0
DA:8935,0
DA:8937,0
DA:8938,0
DA:8941,2086
DA:8942,1790
DA:8943,0
DA:8944,0
DA:8946,3849
DA:8947,0
DA:8948,0
DA:8951,3967
DA:8955,3967
DA:8956,3967
DA:8957,3967
DA:8958,0
DA:8959,3967
DA:8963,0
DA:8965,0
DA:8967,0
DA:8968,0
DA:8970,3876
DA:8978,9195
DA:8981,1839
DA:8982,1839
DA:8983,1839
DA:8984,1839
DA:8986,1910
DA:8987,1953
DA:8998,1242
DA:9004,0
DA:9005,0
DA:9006,0
DA:9007,0
DA:9008,0
DA:9009,0
DA:9011,0
DA:9013,124
DA:9014,124
DA:9015,124
DA:9017,25
DA:9018,50
DA:9019,100
DA:9020,25
DA:9021,25
DA:9022,0
DA:9023,0
DA:9025,0
DA:9026,25
DA:9047,1519
DA:9048,1519
DA:9049,3542
DA:9050,100
DA:9052,1764
DA:9055,1274
DA:9057,20
DA:9061,294
DA:9064,294
DA:9066,49
DA:9067,49
DA:9072,98
DA:9075,98
DA:9077,78
DA:9079,22
DA:9080,44
DA:9081,22
DA:9082,22
DA:9083,22
DA:9084,44
DA:9088,539
DA:9091,539
DA:9093,14
DA:9094,14
DA:9095,14
DA:9104,59
DA:9105,59
DA:9112,25
DA:9113,25
DA:9114,25
DA:9119,78
DA:9120,131
DA:9121,156
DA:9122,78
DA:9124,156
DA:9128,490
DA:9132,490
DA:9134,78
DA:9135,78
DA:9140,98
DA:9146,98
DA:9148,6
DA:9149,6
DA:9157,73402
DA:9159,73255
DA:9160,1790
DA:9162,0
DA:9164,49
DA:9165,49
DA:9170,140336
DA:9181,132398
DA:9188,637
DA:9192,343
DA:9194,343
DA:9195,343
DA:9198,490
DA:9200,490
DA:9201,490
DA:9203,1470
DA:9204,1470
DA:9205,1470
DA:9208,49
DA:9209,49
DA:9210,49
DA:9218,6
DA:9219,6
DA:9222,3620
DA:9223,3620
DA:9224,78
DA:9226,3542
DA:9229,6
DA:9232,6321
DA:9242,147
DA:9244,49
DA:9245,49
DA:9246,49
DA:9254,0
DA:9255,0
DA:9258,12
DA:9259,49
DA:9261,49
DA:9264,98
DA:9266,49
DA:9267,49
DA:9268,49
DA:9270,0
DA:9274,245
DA:9276,49
DA:9278,22
DA:9279,44
DA:9280,22
DA:9281,0
DA:9283,44
DA:9284,44
DA:9285,22
DA:9286,0
DA:9288,22
DA:9289,22
DA:9291,44
DA:9292,22
DA:9293,0
DA:9295,22
DA:9299,3418
DA:9305,3418
DA:9308,132153
DA:9314,98
DA:9316,539
DA:9319,490
DA:9322,294
DA:9324,2352
DA:9325,2352
DA:9326,2352
DA:9329,174
DA:9330,348
DA:9331,174
DA:9332,462
DA:9333,288
DA:9334,174
DA:9336,114
DA:9337,288
DA:9339,174
DA:9340,96
DA:9341,348
DA:9344,1130
DA:9345,2260
DA:9346,3320
DA:9347,2288
DA:9348,98
DA:9350,1032
DA:9355,1768
DA:9356,3536
DA:9357,1768
DA:9358,0
DA:9360,3536
DA:9361,1768
DA:9362,2162
DA:9363,1130
DA:9364,98
DA:9365,20
DA:9366,34
DA:9367,20
DA:9368,0
DA:9369,20
DA:9370,6
DA:9372,78
DA:9373,78
DA:9374,78
DA:9375,0
DA:9376,156
DA:9377,78
DA:9378,0
DA:9379,156
DA:9380,78
DA:9381,0
DA:9382,78
DA:9383,0
DA:9385,92
DA:9388,1670
DA:9391,1768
DA:9392,1768
DA:9393,0
DA:9394,5112
DA:9395,3344
DA:9396,0
DA:9401,3344
DA:9402,0
DA:9405,1768
DA:9409,49
DA:9410,49
DA:9411,55
DA:9412,6
DA:9413,6
DA:9414,49
DA:9417,98
DA:9418,147
DA:9419,49
DA:9420,49
DA:9423,6321
DA:9429,49
DA:9430,49
DA:9431,49
DA:9434,49
DA:9435,49
DA:9436,49
DA:9439,1421
DA:9440,1421
DA:9441,1421
DA:9451,1519
DA:9452,1519
DA:9461,6
DA:9462,6
DA:9463,180
DA:9464,348
DA:9465,174
DA:9467,6
DA:9470,6
DA:9471,6
DA:9472,6
DA:9473,6
DA:9474,12
DA:9475,6
DA:9476,6
DA:9478,0
DA:9479,6
DA:9480,6
DA:9481,6
DA:9483,6
DA:9484,6
DA:9485,6
DA:9487,6
DA:9488,6
DA:9489,6
DA:9490,6
DA:9491,6
DA:9494,12
DA:9495,6
DA:9496,6
DA:9497,180
DA:9498,174
DA:9500,6
DA:9502,180
DA:9504,348
DA:9505,348
DA:9506,696
DA:9507,174
DA:9509,6
DA:9511,6
DA:9512,6
DA:9513,6
DA:9516,0
DA:9517,0
DA:9518,0
DA:9519,0
DA:9520,0
DA:9522,0
DA:9523,0
DA:9524,0
DA:9525,0
DA:9527,0
DA:9532,49
DA:9538,49
DA:9539,49
DA:9541,49
DA:9544,49
DA:9545,49
DA:9546,49
DA:9549,49
DA:9551,98
DA:9552,277
DA:9553,120
DA:9555,1843
DA:9556,1843
DA:9557,1843
DA:9558,1790
DA:9559,1790
DA:9560,0
DA:9561,1790
DA:9562,120
DA:9563,120
DA:9564,120
DA:9569,120
DA:9570,6
DA:9571,114
DA:9572,0
DA:9575,43
DA:9581,49
DA:9582,49
DA:9636,49
DA:9640,0
DA:9641,0
DA:9642,0
DA:9643,0
DA:9645,0
DA:9646,0
DA:9648,0
DA:9649,0
DA:9651,0
DA:9652,0
DA:9653,0
DA:9654,0
DA:9655,49
DA:9656,0
DA:9657,0
DA:9658,0
DA:9659,0
DA:9661,0
DA:9662,0
DA:9663,0
DA:9664,0
DA:9665,0
DA:9666,0
DA:9667,0
DA:9668,0
DA:9673,0
DA:9674,0
DA:9676,0
DA:9677,49
DA:9678,0
DA:9679,0
DA:9680,0
DA:9681,0
DA:9682,0
DA:9683,0
DA:9684,0
DA:9686,0
DA:9687,0
DA:9688,49
DA:9689,0
DA:9690,0
DA:9691,0
DA:9692,0
DA:9693,0
DA:9694,49
DA:9695,14
DA:9696,28
DA:9698,14
DA:9699,14
DA:9700,14
DA:9701,14
DA:9702,0
DA:9703,0
DA:9705,0
DA:9706,14
DA:9707,49
DA:9708,0
DA:9709,0
DA:9710,0
DA:9711,0
DA:9712,0
DA:9713,0
DA:9714,0
DA:9715,0
DA:9717,0
DA:9718,0
DA:9719,49
DA:9720,14
DA:9721,28
DA:9722,14
DA:9723,14
DA:9724,14
DA:9725,0
DA:9726,14
DA:9727,14
DA:9729,0
DA:9730,14
DA:9731,49
DA:9732,25
DA:9733,25
DA:9735,50
DA:9736,25
DA:9738,25
DA:9739,25
DA:9741,0
DA:9742,25
DA:9743,49
DA:9746,98
DA:9747,196
DA:9748,196
DA:9749,147
DA:9750,98
DA:9751,196
DA:9752,147
DA:9753,98
DA:9754,196
DA:9755,147
DA:9756,98
DA:9757,196
DA:9758,147
DA:9759,98
DA:9760,196
DA:9761,147
DA:9762,98
DA:9763,196
DA:9764,147
DA:9765,98
DA:9766,196
DA:9767,147
DA:9768,98
DA:9769,196
DA:9770,147
DA:9771,98
DA:9772,196
DA:9773,147
DA:9774,98
DA:9775,196
DA:9776,147
DA:9777,98
DA:9778,196
DA:9779,147
DA:9780,98
DA:9781,196
DA:9782,147
DA:9783,98
DA:9784,221
DA:9785,147
DA:9786,98
DA:9787,196
DA:9788,147
DA:9789,98
DA:9790,196
DA:9791,147
DA:9792,98
DA:9793,196
DA:9794,147
DA:9795,98
DA:9796,196
DA:9797,147
DA:9798,98
DA:9799,196
DA:9800,147
DA:9801,98
DA:9802,196
DA:9803,147
DA:9804,98
DA:9805,196
DA:9806,147
DA:9807,98
DA:9808,196
DA:9809,147
DA:9810,98
DA:9811,196
DA:9812,147
DA:9813,98
DA:9814,196
DA:9815,147
DA:9816,98
DA:9817,196
DA:9818,147
DA:9819,98
DA:9820,196
DA:9821,147
DA:9822,98
DA:9823,196
DA:9824,147
DA:9825,98
DA:9826,196
DA:9827,147
DA:9828,98
DA:9829,196
DA:9830,147
DA:9831,98
DA:9832,98
DA:9833,147
DA:9835,49
DA:9847,4578
DA:9848,4578
DA:9850,0
DA:9853,0
DA:9856,109
DA:9860,109
DA:9862,109
DA:9865,0
DA:9866,0
DA:9878,43
DA:9880,43
DA:9886,65
DA:9887,22
DA:9889,43
DA:9890,0
DA:9893,86
DA:9894,43
DA:9895,22
DA:9896,44
DA:9897,22
DA:9900,43
DA:9901,43
DA:9903,0
DA:9904,0
DA:9907,43
DA:9908,43
DA:9909,43
DA:9910,43
DA:9912,0
DA:9913,29
DA:9915,8
DA:9916,167
DA:9918,130
DA:9919,28
DA:9921,0
DA:9924,0
DA:9925,145
DA:9926,137
DA:9927,2780
DA:9928,6
DA:9929,29
DA:9930,798
DA:9931,129
DA:9932,637
DA:9933,18
DA:9934,13
DA:9935,804
DA:9936,0
DA:9937,132
DA:9939,4
DA:9940,0
DA:9941,0
DA:9942,0
DA:9944,43
DA:9945,43
DA:9978,18
DA:9982,14
DA:9983,206
DA:9985,14
DA:9986,14
DA:9987,14
DA:10078,4
DA:10080,116
DA:10081,116
DA:10082,61
DA:10083,61
DA:10084,0
DA:10085,9
DA:10086,0
DA:10087,3
DA:10088,0
DA:10089,0
DA:10091,21
DA:10092,13
DA:10093,2
DA:10094,0
DA:10095,7
DA:10097,0
DA:10098,0
DA:10101,4
DA:10102,4
DA:10103,4
DA:10107,116
DA:10108,116
DA:10109,116
DA:10110,116
DA:10113,4
DA:10119,4
DA:10125,18
DA:10126,36
DA:10127,36
DA:10129,18
DA:10130,36
DA:10131,18
DA:10132,8
DA:10133,4
DA:10136,18
DA:10137,36
DA:10155,161
DA:10156,0
DA:10157,0
DA:10158,0
DA:10159,0
DA:10160,0
DA:10161,0
DA:10162,0
DA:10163,0
DA:10166,161
DA:10168,322
DA:10169,322
DA:10174,322
DA:10175,322
DA:10177,322
DA:10179,37
DA:10180,37
DA:10194,129
DA:10197,5918
DA:10198,5918
DA:10200,0
DA:10201,0
DA:10204,134
DA:10205,134
DA:10211,29
DA:10212,29
DA:10213,29
DA:10214,29
DA:10215,29
DA:10216,29
DA:10217,72
DA:10218,72
DA:10219,72
DA:10231,43
DA:10233,43
DA:10234,43
DA:10236,98
DA:10237,98
DA:10238,98
DA:10239,98
DA:10244,0
DA:10245,0
DA:10246,0
DA:10282,0
DA:10284,0
DA:10285,0
DA:10364,0
DA:10367,0
DA:10368,0
DA:10369,0
DA:10371,0
DA:10375,0
DA:10379,0
DA:10408,13
DA:10409,39
DA:10410,26
DA:10411,13
DA:10412,13
DA:10414,0
DA:10415,13
DA:10433,0
DA:10434,0
DA:10438,0
DA:10439,0
DA:10443,0
DA:10444,0
DA:10461,98
DA:10481,49
DA:10488,0
DA:10490,0
DA:10491,0
DA:10492,0
DA:10494,0
DA:10498,0
DA:10499,0
DA:10500,0
DA:10501,0
DA:10502,0
DA:10503,0
DA:10505,0
DA:10508,0
DA:10510,0
DA:10511,0
DA:10512,0
DA:10513,0
DA:10515,3398
DA:10518,0
DA:10519,0
DA:10520,0
DA:10521,0
DA:10523,0
DA:10524,0
DA:10525,0
DA:10526,0
DA:10527,0
DA:10529,0
DA:10532,0
DA:10533,0
DA:10534,0
DA:10546,18
DA:10547,18
DA:10560,49
DA:10579,49
DA:10580,49
DA:10582,0
DA:10583,0
DA:10584,0
DA:10587,0
DA:10606,0
DA:10607,0
DA:10609,0
DA:10612,0
DA:10613,0
DA:10615,0
DA:10616,0
DA:10618,0
DA:10619,0
DA:10621,0
DA:10622,0
DA:10624,0
DA:10625,0
DA:10629,0
DA:10630,0
DA:10631,0
DA:10633,0
DA:10660,0
DA:10661,0
DA:10662,0
DA:10746,0
DA:10747,0
DA:10748,0
DA:10749,0
DA:10750,0
DA:10751,0
DA:10754,0
DA:10755,0
DA:10756,0
DA:10757,0
DA:10759,566
DA:10760,566
DA:10762,566
DA:10763,566
DA:10764,566
DA:10765,566
DA:10766,566
DA:10768,566
DA:10769,566
DA:10770,3962
DA:10771,3396
DA:10773,566
DA:10775,566
DA:10776,566
DA:10777,566
DA:10779,1132
DA:10780,1132
DA:10782,3962
DA:10783,3396
DA:10786,566
DA:10787,566
DA:10789,1132
DA:10817,21
DA:10819,0
DA:10820,0
DA:10825,147
DA:10827,420
DA:10828,420
DA:10866,0
DA:10918,29
DA:10919,29
DA:10921,0
DA:10922,0
DA:10924,58
DA:10925,33
DA:10927,29
DA:10929,58
DA:10931,58
DA:10934,58
DA:10935,58
DA:10937,2751
DA:10939,2751
DA:10942,2751
DA:10944,2751
DA:10946,2751
DA:10949,0
DA:10950,0
DA:10951,0
DA:10953,0
DA:10955,2751
DA:10959,986
DA:10962,986
DA:10966,986
DA:10967,986
DA:10971,167
DA:10975,167
DA:10980,167
DA:10981,167
DA:10985,29
DA:10987,29
DA:10990,29
DA:10991,29
DA:10993,0
DA:10995,0
DA:10996,0
DA:11000,29
DA:11002,29
DA:11005,29
DA:11006,29
DA:11010,0
DA:11011,0
DA:11052,49
DA:11056,49
DA:11057,49
DA:11058,49
DA:11072,0
DA:11102,14
DA:11103,28
DA:11104,14
DA:11105,14
DA:11107,0
DA:11110,28
DA:11111,117
DA:11112,103
DA:11113,103
DA:11114,103
DA:11115,206
DA:11117,103
DA:11118,103
DA:11119,103
DA:11120,206
DA:11121,103
DA:11122,103
DA:11123,103
DA:11125,103
DA:11126,103
DA:11129,14
DA:11130,0
DA:11132,14
DA:11133,28
DA:11136,0
DA:11137,0
DA:11138,0
DA:11139,0
DA:11140,0
DA:11141,0
DA:11142,0
DA:11143,0
DA:11145,0
DA:11146,0
DA:11147,0
DA:11148,0
DA:11150,0
DA:11153,0
DA:11154,0
DA:11155,0
DA:11156,0
DA:11158,0
DA:11159,0
DA:11160,0
DA:11162,0
DA:11165,0
DA:11166,0
DA:11167,0
DA:11168,0
DA:11169,0
DA:11171,0
DA:11174,0
DA:11175,0
DA:11176,0
DA:11177,0
DA:11179,0
DA:11182,0
DA:11184,0
DA:11185,0
DA:11186,0
DA:11187,0
DA:11188,0
DA:11189,0
DA:11190,0
DA:11191,0
DA:11195,0
DA:11196,0
DA:11197,0
DA:11198,0
DA:11199,0
DA:11200,0
DA:11201,0
DA:11202,0
DA:11203,0
DA:11205,0
DA:11206,0
DA:11209,0
DA:11210,0
DA:11211,0
DA:11212,0
DA:11213,0
DA:11214,0
DA:11216,0
DA:11218,0
DA:11219,0
DA:11220,0
DA:11221,0
DA:11222,0
DA:11223,0
DA:11224,0
DA:11225,0
DA:11227,0
DA:11228,0
DA:11231,43
DA:11232,43
DA:11233,43
DA:11234,43
DA:11235,14
DA:11236,43
DA:11237,0
DA:11238,43
DA:11239,0
DA:11240,43
DA:11241,0
DA:11242,43
DA:11253,0
DA:11254,0
DA:11255,0
DA:11256,0
DA:11275,0
DA:11276,0
DA:11279,0
DA:11280,0
DA:11284,0
DA:11285,0
DA:11333,0
DA:11336,0
DA:11337,0
DA:11340,0
DA:11343,0
DA:11344,0
DA:11348,0
DA:11351,0
DA:11352,0
DA:11355,0
DA:11356,0
DA:11358,0
DA:11360,0
DA:11363,0
DA:11364,0
DA:11398,0
DA:11399,0
DA:11403,0
DA:11406,0
DA:11411,0
DA:11412,0
DA:11416,0
DA:11417,0
DA:11418,0
DA:11420,0
DA:11432,0
DA:11433,0
DA:11434,0
DA:11436,0
DA:11440,0
DA:11441,0
DA:11444,0
DA:11445,0
DA:11448,0
DA:11449,0
DA:11450,0
DA:11453,0
DA:11461,0
DA:11462,0
DA:11463,0
DA:11464,0
DA:11465,0
DA:11466,0
DA:11467,0
DA:11468,0
DA:11476,0
DA:11477,0
DA:11479,0
DA:11481,0
DA:11482,0
DA:11483,0
DA:11485,0
DA:11488,0
DA:11489,0
DA:11490,0
DA:11491,0
DA:11492,0
DA:11495,0
DA:11496,0
DA:11497,0
DA:11499,0
DA:11501,0
DA:11504,0
DA:11506,0
DA:11507,0
DA:11508,0
DA:11509,0
DA:11511,0
DA:11512,0
DA:11513,0
DA:11514,0
DA:11517,0
DA:11518,0
DA:11519,0
DA:11520,0
DA:11525,0
DA:11526,0
DA:11529,0
DA:11530,0
DA:11533,0
DA:11534,0
DA:11537,0
DA:11538,0
DA:11541,0
DA:11542,0
DA:11545,0
DA:11546,0
DA:11549,0
DA:11550,0
DA:11559,0
DA:11560,0
DA:11561,0
DA:11563,0
DA:11576,0
DA:11578,0
DA:11579,0
DA:11580,0
DA:11581,0
DA:11583,0
DA:11585,0
DA:11586,0
DA:11588,0
DA:11591,0
DA:11593,0
DA:11594,0
DA:11596,0
DA:11597,0
DA:11598,0
DA:11599,0
DA:11600,0
DA:11601,0
DA:11602,0
DA:11603,0
DA:11604,0
DA:11605,0
DA:11608,0
DA:11610,0
DA:11611,0
DA:11614,0
DA:11616,0
DA:11617,0
DA:11620,0
DA:11622,0
DA:11623,0
DA:11626,0
DA:11628,0
DA:11629,0
DA:11632,0
DA:11634,0
DA:11635,0
DA:11636,0
DA:11637,0
DA:11639,0
DA:11640,0
DA:11643,0
DA:11644,0
DA:11649,0
DA:11650,0
DA:11652,0
DA:11653,0
DA:11655,0
DA:11656,0
DA:11658,0
DA:11659,0
DA:11662,0
DA:11663,0
DA:11683,0
DA:11685,0
DA:11689,0
DA:11690,0
DA:11692,0
DA:11693,0
DA:11696,0
DA:11697,0
DA:11705,0
DA:11707,0
DA:11708,0
DA:11712,0
DA:11713,0
DA:11715,0
DA:11716,0
DA:11717,0
DA:11719,0
DA:11720,0
DA:11722,0
DA:11723,0
DA:11725,0
DA:11726,0
DA:11727,0
DA:11729,0
DA:11731,0
DA:11732,0
DA:11733,0
DA:11734,0
DA:11736,0
DA:11737,0
DA:11739,0
DA:11740,0
DA:11741,0
DA:11742,0
DA:11743,0
DA:11744,0
DA:11745,0
DA:11746,0
DA:11748,0
DA:11749,0
DA:11751,0
DA:11752,0
DA:11753,0
DA:11754,0
DA:11755,0
DA:11756,0
DA:11762,0
DA:11763,0
DA:11764,0
DA:11768,0
DA:11769,0
DA:11770,0
DA:11772,0
DA:11773,0
DA:11774,0
DA:11775,0
DA:11776,0
DA:11777,0
DA:11778,0
DA:11779,0
DA:11783,0
DA:11784,0
DA:11785,0
DA:11786,0
DA:11787,0
DA:11788,0
DA:11789,0
DA:11790,0
DA:11791,0
DA:11792,0
DA:11794,0
DA:11796,0
DA:11797,0
DA:11798,0
DA:11799,0
DA:11800,0
DA:11801,0
DA:11827,458
DA:11838,458
DA:11933,1374
DA:11936,1374
DA:11938,1374
DA:11939,1374
DA:11941,2748
DA:11942,1374
DA:11943,1374
DA:11945,458
DA:11946,458
DA:11948,458
DA:11950,458
DA:11951,458
DA:11952,458
DA:11954,458
DA:11956,458
DA:11957,458
DA:11959,916
DA:11960,458
DA:11961,458
DA:11962,458
DA:12057,0
DA:12058,0
DA:12060,0
DA:12061,0
DA:12086,0
DA:12087,0
DA:12088,0
DA:12089,0
DA:12098,0
DA:12099,0
DA:12100,0
DA:12102,0
DA:12103,0
DA:12104,0
DA:12105,0
DA:12106,0
DA:12107,0
DA:12109,0
DA:12112,0
DA:12113,0
DA:12115,0
DA:12117,0
DA:12119,0
DA:12120,0
DA:12123,0
DA:12125,0
DA:12128,0
DA:12129,0
DA:12132,0
DA:12133,0
DA:12161,49
DA:12163,49
DA:12180,728
DA:12201,98
DA:12230,0
DA:12244,49
DA:12265,98
DA:12280,91
DA:12288,273
DA:12290,11923
DA:12292,11923
DA:12293,91
DA:12294,91
DA:12296,11923
DA:12300,218
DA:12301,218
DA:12303,11705
DA:12304,11705
DA:12315,49
DA:12319,49
DA:12320,83
DA:12321,83
DA:12323,43
DA:12324,43
DA:12326,0
DA:12327,0
DA:12329,43
DA:12330,43
DA:12332,49
DA:12333,49
DA:12337,196
DA:12338,196
DA:12339,196
DA:12340,0
DA:12341,0
DA:12342,0
DA:12343,364
DA:12344,364
DA:12345,364
DA:12346,0
DA:12347,0
DA:12348,0
DA:12349,0
DA:12350,0
DA:12351,0
DA:12352,0
DA:12353,0
DA:12354,0
DA:12355,0
DA:12356,0
DA:12371,218
DA:12372,218
DA:12374,560
DA:12375,560
DA:12377,98
DA:12378,98
DA:12379,98
DA:12380,98
DA:12381,0
DA:12382,0
DA:12393,29
DA:12394,29
DA:12395,29
DA:12396,0
DA:12397,29
DA:12400,196
DA:12401,196
DA:12402,196
DA:12403,0
DA:12404,0
DA:12405,0
DA:12407,25
DA:12408,25
DA:12410,29
DA:12411,29
DA:12420,2777
DA:12421,2777
DA:12423,0
DA:12424,0
DA:12427,0
DA:12428,0
DA:12431,0
DA:12432,29
DA:12448,21
DA:12449,21
DA:12450,21
DA:12453,420
DA:12454,840
DA:12456,420
DA:12457,840
DA:12458,399
DA:12459,399
DA:12460,399
DA:12463,21
DA:12464,21
DA:12467,420
DA:12468,420
DA:12471,840
DA:12475,399
DA:12476,420
DA:12477,420
DA:12479,420
DA:12480,420
DA:12482,420
DA:12483,84
DA:12484,84
DA:12486,420
DA:12489,420
DA:12490,420
DA:12492,21
DA:12493,21
DA:12494,21
DA:12496,21
DA:12499,29
DA:12500,58
DA:12501,29
DA:12503,29
DA:12505,116
DA:12507,29
DA:12508,29
DA:12509,29
DA:12510,29
DA:12511,29
DA:12513,58
DA:12514,29
DA:12515,29
DA:12517,29
DA:12518,29
DA:12519,29
DA:12521,29
DA:12522,29
DA:12523,29
DA:12525,167
DA:12526,167
DA:12528,334
DA:12529,334
DA:12531,167
DA:12533,167
DA:12535,167
DA:12537,167
DA:12538,167
DA:12539,167
DA:12540,399
DA:12541,566
DA:12542,566
DA:12543,566
DA:12544,566
DA:12546,167
DA:12547,167
DA:12548,0
DA:12549,0
DA:12550,0
DA:12552,167
DA:12553,334
DA:12557,167
DA:12559,167
DA:12560,167
DA:12562,334
DA:12565,0
DA:12566,0
DA:12569,0
DA:12570,0
DA:12573,2751
DA:12574,2751
DA:12575,2738
DA:12576,2738
DA:12577,13
DA:12578,13
DA:12579,13
DA:12580,0
DA:12582,13
DA:12585,0
DA:12590,2751
DA:12592,2751
DA:12593,2751
DA:12596,2751
DA:12597,2751
DA:12598,2751
DA:12599,3398
DA:12600,3398
DA:12601,3398
DA:12602,3398
DA:12604,1680
DA:12605,1680
DA:12606,1680
DA:12607,1260
DA:12608,420
DA:12610,420
DA:12612,420
DA:12614,420
DA:12616,420
DA:12618,420
DA:12620,420
DA:12621,420
DA:12622,420
DA:12623,420
DA:12626,986
DA:12627,986
DA:12628,980
DA:12629,6
DA:12630,6
DA:12631,0
DA:12632,0
DA:12633,0
DA:12634,0
DA:12635,0
DA:12638,420
DA:12639,420
DA:12640,420
DA:12642,420
DA:12643,420
DA:12644,420
DA:12647,420
DA:12648,420
DA:12649,420
DA:12650,420
DA:12652,0
DA:12653,0
DA:12654,0
DA:12656,0
DA:12657,0
DA:12659,0
DA:12660,0
DA:12677,0
DA:12678,0
DA:12679,0
DA:12681,0
DA:12682,0
DA:12683,0
DA:12685,0
DA:12686,0
DA:12687,0
DA:12689,0
DA:12690,0
DA:12691,0
DA:12692,0
DA:12695,0
DA:12696,0
DA:12699,0
DA:12700,0
DA:12701,0
DA:12703,0
DA:12705,0
DA:12709,0
DA:12710,0
DA:12711,0
DA:12713,0
DA:12715,0
DA:12718,0
DA:12719,0
DA:12721,0
DA:12722,0
DA:12723,0
DA:12724,0
DA:12726,0
DA:12728,0
DA:12729,0
DA:12730,0
DA:12731,0
DA:12733,0
DA:12734,0
DA:12735,0
DA:12736,0
DA:12737,0
DA:12738,0
DA:12739,0
DA:12741,0
DA:12742,0
DA:12745,647
DA:12746,647
DA:12747,647
DA:12748,647
DA:12749,647
DA:12750,647
DA:12752,804
DA:12753,804
DA:12756,566
DA:12757,566
DA:12758,1132
DA:12759,566
DA:12760,566
DA:12761,566
DA:12762,566
DA:12763,566
DA:12765,566
DA:12767,566
DA:12769,566
DA:12771,916
DA:12773,458
DA:12774,458
DA:12781,108
DA:12782,108
DA:12784,566
DA:12785,0
DA:12787,0
DA:12790,0
DA:12791,0
DA:12792,0
DA:12795,566
DA:12796,566
DA:12798,566
DA:12799,566
DA:12800,566
DA:12801,566
DA:12803,1132
DA:12804,566
DA:12805,566
DA:12807,566
DA:12808,1132
DA:12809,566
DA:12810,566
DA:12811,566
DA:12813,566
DA:12816,566
DA:12817,566
DA:12818,566
DA:12820,0
DA:12821,566
DA:12822,566
DA:12824,3398
DA:12829,3398
DA:12831,3398
DA:12832,3398
DA:12834,3398
DA:12835,3385
DA:12836,647
DA:12839,2738
DA:12843,13
DA:12844,13
DA:12846,3398
DA:12847,2751
DA:12853,2751
DA:12854,5502
DA:12856,5502
DA:12857,2751
DA:12859,2751
DA:12860,2751
DA:12862,0
DA:12868,0
DA:12870,0
DA:12872,0
DA:12873,0
DA:12874,0
DA:12875,0
DA:12876,0
DA:12877,0
DA:12878,0
DA:12879,0
DA:12883,0
DA:12884,0
DA:12886,0
DA:12891,0
DA:12893,0
DA:12894,0
DA:12895,0
DA:12896,0
DA:12897,0
DA:12898,0
DA:12900,13
DA:12901,13
DA:12902,13
DA:12903,13
DA:12905,0
DA:12908,0
DA:12910,0
DA:12911,0
DA:12912,0
DA:12913,0
DA:12914,0
DA:12915,0
DA:12920,0
DA:12922,0
DA:12923,0
DA:12924,0
DA:12926,0
DA:12927,0
DA:12928,0
DA:12930,5918
DA:12931,5918
DA:12932,11836
DA:12934,0
DA:12937,609
DA:12938,609
DA:12939,0
DA:12940,0
DA:12942,609
DA:12944,0
DA:12945,0
DA:12954,1680
DA:12956,1680
DA:12958,1680
DA:12959,1680
DA:12961,3360
DA:12962,1680
DA:12963,840
DA:12964,420
DA:12965,0
DA:12967,420
DA:12969,1680
DA:12972,1680
DA:12973,1680
DA:12982,2246
DA:12984,2246
DA:12986,2246
DA:12987,2246
DA:13016,49
DA:13017,49
DA:13018,0
DA:13019,49
DA:13020,49
DA:13021,49
DA:13022,49
DA:13084,29
DA:13085,29
DA:13086,29
DA:13088,29
DA:13091,29
DA:13092,29
DA:13093,29
DA:13101,0
DA:13102,0
DA:13103,0
DA:13104,0
DA:13105,0
DA:13107,0
DA:13108,0
DA:13111,29
DA:13113,29
DA:13114,29
DA:13115,29
DA:13117,29
DA:13118,29
DA:13119,29
DA:13121,29
DA:13122,180
DA:13123,159
DA:13124,159
DA:13126,16
DA:13127,8
DA:13129,29
DA:13131,29
DA:13132,29
DA:13133,29
DA:13134,29
DA:13135,196
DA:13136,167
DA:13137,167
DA:13139,0
DA:13142,37
DA:13143,8
DA:13144,0
DA:13145,0
DA:13149,29
DA:13150,0
DA:13151,0
DA:13154,29
DA:13155,29
DA:13167,0
DA:13168,0
DA:13169,0
DA:13170,0
DA:13172,0
DA:13173,0
DA:13174,0
DA:13175,0
DA:13176,0
DA:13179,0
DA:13180,0
DA:13181,0
DA:13184,0
DA:13185,0
DA:13187,0
DA:13191,49
DA:13193,49
DA:13194,0
DA:13195,0
DA:13200,49
DA:13201,49
DA:13202,0
DA:13203,0
DA:13205,0
DA:13206,0
DA:13207,0
DA:13209,0
DA:13211,0
DA:13212,0
DA:13213,0
DA:13219,49
DA:13220,49
DA:13221,49
DA:13222,98
DA:13223,49
DA:13224,49
DA:13226,6
DA:13227,6
DA:13228,6
DA:13229,6
DA:13230,6
DA:13231,6
DA:13232,0
DA:13233,0
DA:13234,0
DA:13235,0
DA:13236,0
DA:13237,0
DA:13238,0
DA:13240,49
DA:13241,49
DA:13242,0
DA:13244,98
DA:13245,49
DA:13246,0
DA:13247,0
DA:13249,0
DA:13250,0
DA:13251,0
DA:13252,0
DA:13253,0
DA:13254,0
DA:13257,49
DA:13258,6
DA:13259,49
DA:13260,0
DA:13261,49
DA:13262,49
DA:13289,0
DA:13290,0
DA:13291,0
DA:13292,0
DA:13294,49
DA:13295,49
DA:13296,0
DA:13297,0
DA:13299,49
DA:13300,49
DA:13301,0
DA:13302,0
DA:13304,49
DA:13307,0
DA:13308,0
DA:13310,0
DA:13311,0
DA:13312,0
DA:13313,0
DA:13314,0
DA:13316,43
DA:13317,43
DA:13318,43
DA:13319,43
DA:13322,49
DA:13323,49
DA:13324,0
DA:13326,49
DA:13327,6
DA:13331,43
DA:13333,43
DA:13335,43
DA:13336,0
DA:13339,72
DA:13340,14
DA:13342,58
DA:13343,29
DA:13345,29
DA:13346,0
DA:13351,29
DA:13354,0
DA:13355,0
DA:13356,0
DA:13370,189
DA:13372,189
DA:13373,98
DA:13374,189
DA:13378,91
DA:13380,91
DA:13381,91
DA:13382,91
DA:13383,98
DA:13384,98
DA:13385,189
DA:13386,91
DA:13387,98
DA:13388,98
DA:13389,98
DA:13396,0
DA:13398,0
DA:13399,0
DA:13401,0
DA:13403,0
DA:13405,49
DA:13406,49
DA:13431,0
DA:13432,0
DA:13433,0
DA:13435,0
DA:13436,0
DA:13437,0
DA:13440,0
DA:13441,0
DA:13443,0
DA:13444,0
DA:13445,0
DA:13447,0
DA:13449,0
DA:13452,0
DA:13453,0
DA:13454,0
DA:13455,0
DA:13457,0
DA:13465,0
DA:13466,0
DA:13467,0
DA:13475,0
DA:13476,0
DA:13477,0
DA:13478,0
DA:13479,0
DA:13481,0
DA:13482,0
DA:13493,43
DA:13494,86
DA:13497,145
DA:13506,0
DA:13507,0
DA:13508,0
DA:13509,0
DA:13511,0
DA:13514,0
DA:13521,43
DA:13522,43
DA:13523,43
DA:13524,0
DA:13525,0
DA:13526,0
DA:13528,0
DA:13531,0
DA:13535,84
DA:13540,3715
DA:13541,3715
DA:13542,98
DA:13543,98
DA:13546,3617
DA:13547,3617
DA:13548,3617
DA:13552,3715
DA:13553,3715
DA:13554,3715
DA:13555,3715
DA:13558,3715
DA:13559,3715
DA:13560,7430
DA:13561,3715
DA:13563,7430
DA:13564,3715
DA:13565,3715
DA:13566,3715
DA:13567,3715
DA:13569,3715
DA:13570,3715
DA:13576,947
DA:13577,458
DA:13578,458
DA:13593,5620
DA:13594,5620
DA:13598,36
DA:13599,36
DA:13601,1842
DA:13602,1842
DA:13604,103
DA:13605,103
DA:13607,22
DA:13608,22
DA:13610,0
DA:13611,0
DA:13613,634
DA:13614,634
DA:13615,634
DA:13616,634
DA:13617,634
DA:13618,634
DA:13619,634
DA:13621,1432
DA:13623,1432
DA:13624,1432
DA:13626,1432
DA:13629,0
DA:13630,0
DA:13631,0
DA:13632,0
DA:13633,0
DA:13634,0
DA:13635,0
DA:13636,0
DA:13638,0
DA:13641,0
DA:13642,0
DA:13643,0
DA:13644,0
DA:13645,0
DA:13646,0
DA:13647,0
DA:13648,0
DA:13650,0
DA:13652,0
DA:13655,0
DA:13656,0
DA:13657,0
DA:13658,0
DA:13659,0
DA:13660,0
DA:13661,0
DA:13662,0
DA:13665,0
DA:13666,0
DA:13667,0
DA:13670,16
DA:13672,16
DA:13673,16
DA:13675,16
DA:13676,16
DA:13677,16
DA:13678,16
DA:13679,16
DA:13692,7524
DA:13693,7524
DA:13694,7524
DA:13696,0
DA:13697,0
DA:13698,0
DA:13700,42
DA:13701,42
DA:13704,0
DA:13705,0
DA:13706,0
DA:13708,0
DA:13711,0
DA:13712,0
DA:13713,0
DA:13716,23
DA:13717,23
DA:13720,19
DA:13721,19
DA:13722,19
DA:13730,0
DA:13737,0
DA:13739,0
DA:13740,0
DA:13742,0
DA:13744,0
DA:13754,49
DA:13756,0
DA:13757,0
DA:13758,0
DA:13759,0
DA:13761,0
DA:13764,22
DA:13765,22
DA:13766,22
DA:13767,0
DA:13768,0
DA:13769,0
DA:13770,0
DA:13771,0
DA:13774,22
DA:13777,0
DA:13778,0
DA:13781,0
DA:13785,0
DA:13787,49
DA:13789,43
DA:13790,43
DA:13805,1092
DA:13806,2184
DA:13807,1092
DA:13808,0
DA:13809,1092
DA:13810,0
DA:13811,1092
DA:13812,0
DA:13813,1092
DA:13814,0
DA:13815,1092
DA:13816,0
DA:13817,1092
DA:13818,0
DA:13820,1092
DA:13822,364
DA:13823,364
DA:13825,364
DA:13826,364
DA:13830,364
DA:13833,364
DA:13838,364
DA:13841,728
DA:13842,728
DA:13843,364
DA:13844,4466
DA:13845,4102
DA:13846,364
DA:13847,364
DA:13849,0
DA:13852,3738
DA:13853,364
DA:13854,364
DA:13855,0
DA:13856,364
DA:13857,364
DA:13862,364
DA:13863,0
DA:13865,364
DA:13866,364
DA:13867,364
DA:13870,3374
DA:13873,364
DA:13874,0
DA:13877,728
DA:13878,728
DA:13881,364
DA:13882,364
DA:13883,364
DA:13884,364
DA:13886,728
DA:13887,728
DA:13888,364
DA:13889,364
DA:13891,364
DA:13892,364
DA:13894,364
DA:13898,364
DA:13903,364
DA:13905,364
DA:13906,364
DA:13908,262
DA:13909,262
DA:13911,159
DA:13912,159
DA:13914,13
DA:13915,13
DA:13917,167
DA:13918,167
DA:13921,238
DA:13922,238
DA:13924,238
DA:13925,476
DA:13926,238
DA:13928,238
DA:13929,476
DA:13930,238
DA:13931,238
DA:13932,238
DA:13935,238
DA:13938,364
DA:13940,0
DA:13941,0
DA:13942,0
DA:13943,0
DA:13946,566
DA:13947,566
DA:13948,566
DA:13950,0
DA:13951,0
DA:13952,0
DA:13953,0
DA:13956,988
DA:13957,988
DA:13960,1110
DA:13962,1110
DA:13973,43
DA:13975,43
DA:13977,43
DA:13978,0
DA:13979,0
DA:13980,0
DA:13981,0
DA:13982,0
DA:13983,0
DA:13984,0
DA:13985,43
DA:13987,43
DA:13989,43
DA:13992,159
DA:13993,159
DA:13996,103
DA:13997,103
DA:14000,43
DA:14001,86
DA:14002,361
DA:14003,318
DA:14004,318
DA:14009,43
DA:14011,14
DA:14012,14
DA:14013,14
DA:14014,117
DA:14015,309
DA:14016,206
DA:14017,103
DA:14020,14
DA:14022,43
DA:14023,43
DA:14026,364
DA:14027,728
DA:14028,364
DA:14029,0
DA:14030,0
DA:14031,0
DA:14033,364
DA:14036,0
DA:14037,0
DA:14039,43
DA:14040,43
DA:14041,43
DA:14043,43
DA:14044,43
DA:14045,43
DA:14047,43
DA:14051,364
DA:14053,566
DA:14054,566
DA:14055,566
DA:14057,364
DA:14058,364
DA:14059,364
DA:14061,0
DA:14062,0
DA:14063,0
DA:14064,0
DA:14065,0
DA:14067,364
DA:14088,2833
DA:14090,2833
DA:14091,2833
DA:14095,167
DA:14096,167
DA:14097,167
DA:14098,167
DA:14099,167
DA:14102,0
DA:14103,0
DA:14104,0
DA:14105,0
DA:14106,0
DA:14108,566
DA:14109,566
DA:14110,566
DA:14111,566
DA:14112,1406
DA:14113,1406
DA:14114,1406
DA:14116,2666
DA:14117,2666
DA:14119,4912
DA:14120,4912
DA:14122,2812
DA:14123,2812
DA:14124,2812
DA:14126,775
DA:14129,775
DA:14130,775
DA:14132,6636
DA:14133,6636
DA:14135,5291
DA:14136,5291
DA:14138,566
DA:14139,566
DA:14141,2100
DA:14142,2100
DA:14144,0
DA:14145,0
DA:14148,608
DA:14149,608
DA:14150,608
DA:14152,2666
DA:14154,6636
DA:14156,6636
DA:14157,2058
DA:14158,7244
DA:14159,5332
DA:14160,2058
DA:14161,7390
DA:14163,420
DA:14164,420
DA:14165,420
DA:14168,2246
DA:14169,2246
DA:14170,1007
DA:14171,1007
DA:14172,840
DA:14174,2246
DA:14176,420
DA:14177,0
DA:14179,1406
DA:14180,1406
DA:14181,1406
DA:14182,1406
DA:14183,1406
DA:14184,1406
DA:14186,1826
DA:14189,2246
DA:14190,420
DA:14192,1406
DA:14193,0
DA:14194,0
DA:14196,566
DA:14197,566
DA:14198,566
DA:14199,840
DA:14200,2625
DA:14201,126
DA:14202,840
DA:14204,0
DA:14207,0
DA:14209,0
DA:14210,0
DA:14212,1406
DA:14213,1406
DA:14214,1406
DA:14215,0
DA:14216,0
DA:14217,0
DA:14218,0
DA:14219,0
DA:14220,0
DA:14221,0
DA:14222,0
DA:14223,0
DA:14224,0
DA:14226,1406
DA:14227,1406
DA:14228,1406
DA:14229,1406
DA:14230,1406
DA:14231,1406
DA:14232,1406
DA:14234,754
DA:14236,754
DA:14238,754
DA:14239,1427
DA:14240,420
DA:14242,587
DA:14243,587
DA:14245,754
DA:14247,4031
DA:14248,4031
DA:14250,8062
DA:14251,4031
DA:14252,4031
DA:14254,4031
DA:14257,2413
DA:14259,2246
DA:14260,4492
DA:14262,2246
DA:14263,4492
DA:14264,1659
DA:14265,1659
DA:14266,1659
DA:14269,587
DA:14270,587
DA:14272,2246
DA:14273,1616
DA:14274,4492
DA:14277,1616
DA:14278,1616
DA:14279,986
DA:14280,1616
DA:14282,167
DA:14283,167
DA:14284,0
DA:14285,0
DA:14286,0
DA:14287,0
DA:14289,167
DA:14290,587
DA:14291,587
DA:14292,0
DA:14293,587
DA:14311,364
DA:14312,364
DA:14315,364
DA:14317,364
DA:14319,364
DA:14320,364
DA:14321,728
DA:14323,728
DA:14325,364
DA:14326,0
DA:14328,0
DA:14330,364
DA:14344,36
DA:14345,36
DA:14346,36
DA:14350,8
DA:14351,8
DA:14354,22
DA:14356,22
DA:14357,22
DA:14359,159
DA:14360,159
DA:14363,14
DA:14365,14
DA:14366,14
DA:14368,103
DA:14369,206
DA:14371,309
DA:14374,0
DA:14376,0
DA:14377,0
DA:14379,0
DA:14380,0
DA:14383,262
DA:14384,524
DA:14387,8
DA:14388,8
DA:14389,16
DA:14390,8
DA:14391,8
DA:14394,235
DA:14395,235
DA:14398,103
DA:14399,309
DA:14402,29
DA:14404,29
DA:14405,37
DA:14406,16
DA:14407,64
DA:14408,56
DA:14409,8
DA:14410,16
DA:14411,29
DA:14412,29
DA:14415,58
DA:14416,58
DA:14425,43
DA:14427,22
DA:14428,22
DA:14429,22
DA:14430,22
DA:14431,22
DA:14432,22
DA:14433,22
DA:14434,22
DA:14436,204
DA:14438,182
DA:14439,0
DA:14440,0
DA:14442,22
DA:14443,22
DA:14445,43
DA:14446,43
DA:14447,43
DA:14449,182
DA:14450,182
DA:14451,0
DA:14452,0
DA:14453,0
DA:14454,182
DA:14455,14
DA:14458,168
DA:14459,36
DA:14460,36
DA:14461,0
DA:14462,36
DA:14463,104
DA:14464,104
DA:14465,104
DA:14466,0
DA:14467,0
DA:14468,0
DA:14469,0
DA:14470,28
DA:14473,28
DA:14474,14
DA:14475,14
DA:14478,154
DA:14479,154
DA:14480,140
DA:14481,140
DA:14483,154
DA:14487,36
DA:14488,36
DA:14489,0
DA:14490,0
DA:14491,0
DA:14492,0
DA:14493,0
DA:14494,14
DA:14495,14
DA:14496,14
DA:14497,0
DA:14498,0
DA:14499,0
DA:14500,22
DA:14501,22
DA:14502,22
DA:14505,104
DA:14506,104
DA:14507,0
DA:14508,0
DA:14510,0
DA:14511,0
DA:14513,104
DA:14514,28
DA:14515,28
DA:14516,14
DA:14517,14
DA:14518,14
DA:14519,14
DA:14521,50
DA:14522,50
DA:14523,50
DA:14524,50
DA:14525,50
DA:14526,22
DA:14528,22
DA:14529,14
DA:14530,14
DA:14531,0
DA:14532,0
DA:14533,0
DA:14534,14
DA:14536,14
DA:14539,0
DA:14540,0
DA:14541,0
DA:14542,0
DA:14543,0
DA:14544,182
DA:14545,182
DA:14546,0
DA:14547,0
DA:14548,0
DA:14549,0
DA:14550,126
DA:14551,126
DA:14552,0
DA:14553,0
DA:14554,0
DA:14555,0
DA:14556,56
DA:14557,56
DA:14561,57
DA:14562,57
DA:14563,36
DA:14564,36
DA:14566,57
DA:14568,0
DA:14569,0
DA:14570,0
DA:14572,0
DA:14573,0
DA:14574,0
DA:14576,14
DA:14577,14
DA:14579,0
DA:14580,0
DA:14581,0
DA:14582,0
DA:14583,0
DA:14585,14
DA:14586,14
DA:14587,14
DA:14590,36
DA:14591,36
DA:14592,36
DA:14593,0
DA:14594,36
DA:14595,36
DA:14596,0
DA:14597,0
DA:14600,36
DA:14602,36
DA:14605,22
DA:14606,44
DA:14608,22
DA:14609,44
DA:14610,22
DA:14611,0
DA:14612,22
DA:14614,22
DA:14615,22
DA:14616,22
DA:14617,22
DA:14619,14
DA:14620,28
DA:14622,14
DA:14625,14
DA:14626,0
DA:14627,0
DA:14628,0
DA:14629,0
DA:14631,0
DA:14634,28
DA:14636,14
DA:14637,0
DA:14639,14
DA:14641,14
DA:14642,14
DA:14643,14
DA:14644,14
DA:14646,0
DA:14647,0
DA:14660,3502
DA:14661,3502
DA:14665,0
DA:14666,0
DA:14669,0
DA:14671,0
DA:14674,0
DA:14675,0
DA:14676,0
DA:14677,0
DA:14679,0
DA:14680,0
DA:14685,0
DA:14686,0
DA:14692,0
DA:14695,0
DA:14696,0
DA:14697,0
DA:14700,2381
DA:14701,2381
DA:14702,2381
DA:14703,1121
DA:14704,1121
DA:14706,1121
DA:14707,1121
DA:14709,0
DA:14710,0
DA:14712,1121
DA:14713,1121
DA:14738,49
DA:14746,0
DA:14747,0
DA:14750,0
DA:14751,0
DA:14756,0
DA:14758,0
DA:14759,0
DA:14760,0
DA:14761,0
DA:14764,0
DA:14765,0
DA:14766,0
DA:14767,0
DA:14768,0
DA:14769,0
DA:14774,0
DA:14775,0
DA:14776,0
DA:14779,0
DA:14780,0
DA:14781,0
DA:14783,0
DA:14784,0
DA:14785,0
DA:14786,0
DA:14787,0
DA:14788,0
DA:14790,0
DA:14799,0
DA:14800,0
DA:14801,0
DA:14804,0
DA:14805,0
DA:14806,0
DA:14807,0
DA:14808,0
DA:14809,0
DA:14810,0
DA:14811,0
DA:14812,0
DA:14813,0
DA:14814,0
DA:14815,0
DA:14818,0
DA:14819,0
DA:14828,0
DA:14829,0
DA:14830,0
DA:14832,0
DA:14835,0
DA:14836,0
DA:14837,0
DA:14839,0
DA:14844,0
DA:14845,0
DA:14846,0
DA:14847,0
DA:14848,0
DA:14850,0
DA:14859,0
DA:14860,0
DA:14861,0
DA:14863,0
DA:14866,0
DA:14867,0
DA:14868,0
DA:14870,0
DA:14882,24
DA:14883,24
DA:14885,0
DA:14886,0
DA:14888,24
DA:14889,48
DA:14890,24
DA:14891,24
DA:14892,12
DA:14894,48
DA:14897,0
DA:14898,0
DA:14900,0
DA:14901,0
DA:14903,0
DA:14904,0
DA:14905,0
DA:14906,0
DA:14907,0
DA:14909,0
DA:14912,0
DA:14913,0
DA:14916,0
DA:14917,0
DA:14918,0
DA:14919,0
DA:14920,0
DA:14921,0
DA:14922,0
DA:14923,0
DA:14924,0
DA:14925,0
DA:14926,0
DA:14928,0
DA:14929,0
DA:14930,0
DA:14933,0
DA:14934,0
DA:14936,0
DA:14937,0
DA:14940,0
DA:14941,0
DA:14946,0
DA:14947,0
DA:14952,0
DA:14953,0
DA:14956,0
DA:14957,0
DA:14958,0
DA:14959,0
DA:14960,0
DA:14961,0
DA:14974,1320
DA:14975,1320
DA:14976,1320
DA:14977,1320
DA:14978,1320
DA:14979,1320
DA:14982,501
DA:14983,501
DA:14984,501
DA:14985,501
DA:14986,501
DA:14989,1019
DA:14990,1019
DA:14992,8
DA:14993,8
DA:14995,135
DA:14996,135
DA:14999,167
DA:15000,167
DA:15001,167
DA:15002,167
DA:15003,167
DA:15006,167
DA:15007,167
DA:15008,167
DA:15009,167
DA:15012,167
DA:15013,167
DA:15014,167
DA:15015,13
DA:15016,154
DA:15017,0
DA:15019,154
DA:15020,167
DA:15030,420
DA:15034,420
DA:15045,9
DA:15050,9
DA:15055,9
DA:15056,9
DA:15058,9
DA:15059,9
DA:15060,9
DA:15061,9
DA:15063,9
DA:15064,0
DA:15065,0
DA:15067,9
DA:15070,9
DA:15071,9
DA:15072,9
DA:15081,22
DA:15082,22
DA:15084,22
DA:15086,22
DA:15087,14
DA:15088,14
DA:15090,22
DA:15091,0
DA:15092,0
DA:15094,22
DA:15096,159
DA:15097,159
DA:15098,56
DA:15099,56
DA:15100,103
DA:15101,103
DA:15102,0
DA:15103,0
DA:15104,0
DA:15105,0
DA:15106,0
DA:15107,0
DA:15111,181
DA:15112,181
DA:15127,0
DA:15128,0
DA:15129,0
DA:15131,0
DA:15132,0
DA:15134,0
DA:15135,0
DA:15137,0
DA:15140,0
DA:15141,0
DA:15142,0
DA:15144,0
DA:15145,0
DA:15147,0
DA:15148,0
DA:15150,0
DA:15153,0
DA:15154,0
DA:15155,0
DA:15156,0
DA:15157,0
DA:15158,0
DA:15159,0
DA:15161,2180
DA:15162,2180
DA:15165,1655
DA:15166,1655
DA:15171,1635
DA:15175,1635
DA:15178,3835
DA:15182,3835
DA:15185,3313
DA:15187,3313
DA:15188,3313
DA:15190,3313
DA:15194,62871
DA:15195,59558
DA:15196,59558
DA:15197,0
DA:15198,0
DA:15200,0
DA:15202,0
DA:15203,0
DA:15205,0
DA:15206,0
DA:15208,0
DA:15209,0
DA:15210,0
DA:15212,0
DA:15213,0
DA:15215,59558
DA:15220,59558
DA:15221,0
DA:15222,0
DA:15226,59558
DA:15227,59558
DA:15228,59558
DA:15237,0
DA:15239,0
DA:15240,0
DA:15243,0
DA:15245,0
DA:15246,0
DA:15247,0
DA:15252,0
DA:15253,0
DA:15254,0
DA:15255,0
DA:15256,0
DA:15257,0
DA:15258,0
DA:15260,0
DA:15262,0
DA:15264,0
DA:15265,0
DA:15266,0
DA:15270,0
DA:15271,0
DA:15275,0
DA:15276,0
DA:15277,0
DA:15278,0
DA:15279,0
DA:15282,3313
DA:15284,3313
DA:15285,3313
DA:15286,3313
DA:15289,545
DA:15291,545
DA:15292,545
DA:15294,0
DA:15295,0
DA:15296,0
DA:15298,0
DA:15299,0
DA:15300,0
DA:15301,0
DA:15302,0
DA:15303,0
DA:15305,0
DA:15306,0
DA:15307,0
DA:15308,0
DA:15309,0
DA:15312,1090
DA:15313,545
DA:15314,545
DA:15316,545
DA:15318,20
DA:15319,20
DA:15320,20
DA:15323,25
DA:15325,25
DA:15326,25
DA:15328,50
DA:15329,25
DA:15330,0
DA:15332,25
DA:15333,25
DA:15335,1080
DA:15336,1080
DA:15337,1080
DA:15338,1080
DA:15339,1080
DA:15340,1080
DA:15342,1080
DA:15343,1080
DA:15344,1080
DA:15345,1080
DA:15346,1080
DA:15349,545
DA:15350,545
DA:15351,545
DA:15352,545
DA:15355,1080
DA:15356,1080
DA:15358,1080
DA:15359,525
DA:15360,525
DA:15362,555
DA:15363,555
DA:15364,555
DA:15366,555
DA:15368,1080
DA:15369,1080
DA:15370,1080
DA:15371,1080
DA:15374,3428
DA:15375,3428
DA:15376,3293
DA:15377,3428
DA:15380,145
DA:15381,145
DA:15382,145
DA:15385,20
DA:15386,20
DA:15387,20
DA:15388,20
DA:15389,20
DA:15390,20
DA:15392,20
DA:15393,20
DA:15395,20
DA:15398,0
DA:15399,0
DA:15400,0
DA:15401,0
DA:15403,0
DA:15404,0
DA:15405,0
DA:15408,0
DA:15409,0
DA:15410,0
DA:15412,0
DA:15413,0
DA:15414,0
DA:15415,0
DA:15418,1575
DA:15419,1575
DA:15420,555
DA:15421,555
DA:15422,555
DA:15424,1575
DA:15426,2180
DA:15427,2180
DA:15428,2180
DA:15430,25
DA:15431,25
DA:15432,25
DA:15434,2215
DA:15435,2215
DA:15436,1655
DA:15437,1655
DA:15439,2215
DA:15451,0
DA:15452,0
DA:15453,0
DA:15457,0
DA:15462,0
DA:15466,0
DA:15470,0
DA:15472,0
DA:15475,8
DA:15476,16
DA:15477,8
DA:15478,16
DA:15480,8
DA:15481,0
DA:15483,8
DA:15485,8
DA:15487,16
DA:15490,0
DA:15491,0
DA:15493,0
DA:15494,0
DA:15497,0
DA:15499,0
DA:15500,0
DA:15513,0
DA:15514,0
DA:15518,0
DA:15520,0
DA:15522,0
DA:15535,0
DA:15536,0
DA:15537,0
DA:15538,0
DA:15539,0
DA:15541,0
DA:15542,0
DA:15544,0
DA:15545,0
DA:15546,0
DA:15547,0
DA:15548,0
DA:15550,0
DA:15551,0
DA:15552,0
DA:15553,0
DA:15554,0
DA:15556,0
DA:15557,0
DA:15559,0
DA:15561,0
DA:15562,0
DA:15563,0
DA:15565,0
DA:15568,0
DA:15572,0
DA:15573,0
DA:15576,0
DA:15577,0
DA:15579,0
DA:15580,0
DA:15582,0
DA:15584,0
DA:15585,0
DA:15586,0
DA:15587,0
DA:15588,0
DA:15589,0
DA:15590,0
DA:15592,0
DA:15593,0
DA:15594,0
DA:15595,0
DA:15596,0
DA:15598,0
DA:15599,0
DA:15600,0
DA:15601,0
DA:15602,0
DA:15603,0
DA:15604,0
DA:15605,0
DA:15606,0
DA:15607,0
DA:15608,0
DA:15609,0
DA:15610,0
DA:15611,0
DA:15612,0
DA:15613,0
DA:15614,0
DA:15615,0
DA:15616,0
DA:15617,0
DA:15618,0
DA:15619,0
DA:15620,0
DA:15621,0
DA:15622,0
DA:15623,0
DA:15624,0
DA:15625,0
DA:15626,0
DA:15627,0
DA:15628,0
DA:15629,0
DA:15630,0
DA:15631,0
DA:15632,0
DA:15633,0
DA:15634,0
DA:15635,0
DA:15636,0
DA:15637,0
DA:15639,0
DA:15642,0
DA:15643,0
DA:15645,0
DA:15648,0
DA:15649,0
DA:15650,0
DA:15651,0
DA:15653,0
DA:15654,0
DA:15656,0
DA:15657,0
DA:15659,0
DA:15661,0
DA:15663,0
DA:15664,0
DA:15665,0
DA:15667,0
DA:15668,0
DA:15669,0
DA:15671,0
DA:15672,0
DA:15674,0
DA:15676,0
DA:15678,0
DA:15679,0
DA:15680,0
DA:15682,0
DA:15684,0
DA:15685,0
DA:15687,0
DA:15688,0
DA:15690,0
DA:15692,0
DA:15694,0
DA:15695,0
DA:15696,0
DA:15697,0
DA:15699,0
DA:15701,0
DA:15702,0
DA:15703,0
DA:15705,0
DA:15706,0
DA:15709,0
DA:15710,0
DA:15713,0
DA:15715,0
DA:15716,0
DA:15717,0
DA:15718,0
DA:15719,0
DA:15721,0
DA:15723,0
DA:15737,0
DA:15738,0
DA:15741,0
DA:15742,0
DA:15745,0
DA:15746,0
DA:15747,0
DA:15749,0
DA:15751,0
DA:15752,0
DA:15754,0
DA:15757,0
DA:15758,0
DA:15759,0
DA:15760,0
DA:15763,0
DA:15764,0
DA:15766,0
DA:15767,0
DA:15770,0
DA:15771,0
DA:15772,0
DA:15774,0
DA:15776,0
DA:15777,0
DA:15778,0
DA:15779,0
DA:15780,0
DA:15782,0
DA:15784,49
DA:15810,3
DA:15814,3
DA:15815,3
DA:15819,3
DA:15821,6
DA:15822,3
DA:15823,0
DA:15824,0
DA:15825,0
DA:15827,0
DA:15828,0
DA:15829,0
DA:15830,0
DA:15831,0
DA:15832,3
DA:15833,3
DA:15834,0
DA:15835,0
DA:15837,3
DA:15838,3
DA:15840,3
DA:15841,0
DA:15842,3
DA:15843,0
DA:15844,3
DA:15845,0
DA:15846,0
DA:15847,0
DA:15848,0
DA:15849,0
DA:15850,0
DA:15851,0
DA:15852,0
DA:15853,0
DA:15854,0
DA:15855,0
DA:15856,0
DA:15857,0
DA:15858,0
DA:15859,0
DA:15860,0
DA:15861,0
DA:15862,0
DA:15863,0
DA:15864,0
DA:15865,0
DA:15866,0
DA:15867,0
DA:15868,0
DA:15869,0
DA:15870,0
DA:15871,0
DA:15872,0
DA:15873,0
DA:15874,0
DA:15875,0
DA:15876,0
DA:15877,0
DA:15879,0
DA:15882,0
DA:15883,0
DA:15884,0
DA:15886,3
DA:15888,3
DA:15889,3
DA:15890,3
DA:15891,3
DA:15892,3
DA:15893,3
DA:15895,0
DA:15897,3
DA:15898,3
DA:15901,3
DA:15902,3
DA:15903,6
DA:15904,3
DA:15906,3
DA:15907,3
DA:15908,3
DA:15909,6
DA:15910,3
DA:15911,3
DA:15912,3
DA:15914,3
DA:15915,3
DA:15916,3
DA:15917,3
DA:15918,6
DA:15919,3
DA:15921,3
DA:15922,3
DA:15923,3
DA:15924,0
DA:15925,3
DA:15927,0
DA:15928,0
DA:15930,3
DA:15931,3
DA:15932,6
DA:15933,3
DA:15934,3
DA:15947,12
DA:15948,12
DA:15949,12
DA:15952,1
DA:15953,1
DA:15954,0
DA:15955,1
DA:15956,0
DA:15958,1
DA:15961,48
DA:16047,4
DA:16055,4
DA:16056,4
DA:16057,4
DA:16079,411
DA:16080,411
DA:16081,0
DA:16082,0
DA:16083,0
DA:16085,411
DA:16115,0
DA:16116,0
DA:16117,0
DA:16118,0
DA:16120,0
DA:16124,4
DA:16127,4
DA:16128,4
DA:16135,0
DA:16144,4
DA:16146,4
DA:16149,0
DA:16150,0
DA:16153,0
DA:16154,0
DA:16155,0
DA:16157,0
DA:16158,0
DA:16159,0
DA:16161,650
DA:16163,3
DA:16164,3
DA:16166,3
DA:16169,3
DA:16170,0
DA:16172,3
DA:16174,6
DA:16175,3
DA:16176,3
DA:16177,3
DA:16180,188
DA:16181,188
DA:16182,188
DA:16183,188
DA:16184,188
DA:16185,188
DA:16186,188
DA:16187,188
DA:16188,0
DA:16189,0
DA:16190,0
DA:16191,0
DA:16193,0
DA:16194,0
DA:16196,188
DA:16197,0
DA:16199,188
DA:16200,3
DA:16202,188
DA:16203,188
DA:16253,32
DA:16254,32
DA:16255,32
DA:16256,32
DA:16257,32
DA:16258,4
DA:16259,4
DA:16260,0
DA:16261,0
DA:16262,0
DA:16263,0
DA:16265,4
DA:16266,4
DA:16267,4
DA:16268,4
DA:16269,4
DA:16270,4
DA:16271,4
DA:16272,4
DA:16273,4
DA:16274,4
DA:16275,4
DA:16276,4
DA:16278,3
DA:16280,3
DA:16281,3
DA:16282,3
DA:16284,3
DA:16286,3
DA:16287,3
DA:16288,3
DA:16289,3
DA:16291,3
DA:16292,3
DA:16293,3
DA:16295,3
DA:16296,3
DA:16297,3
DA:16298,6
DA:16299,3
DA:16300,3
DA:16301,3
DA:16303,3
DA:16304,0
DA:16306,3
DA:16307,3
DA:16308,3
DA:16309,3
DA:16310,0
DA:16311,0
DA:16313,3
DA:16314,3
DA:16315,3
DA:16316,3
DA:16318,3
DA:16319,0
DA:16322,0
DA:16323,0
DA:16324,0
DA:16325,0
DA:16328,3
DA:16330,3
DA:16331,6
DA:16332,3
DA:16333,3
DA:16334,3
DA:16336,0
DA:16337,0
DA:16338,0
DA:16339,0
DA:16340,3
DA:16341,3
DA:16343,6
DA:16344,3
DA:16346,3
DA:16350,3
DA:16351,3
DA:16352,3
DA:16353,0
DA:16355,3
DA:16356,3
DA:16357,3
DA:16359,150
DA:16361,12
DA:16362,24
DA:16363,24
DA:16364,24
DA:16365,48
DA:16366,24
DA:16367,48
DA:16368,36
DA:16369,36
DA:16370,12
DA:16371,12
DA:16372,0
DA:16374,24
DA:16375,48
DA:16384,4
DA:16385,4
DA:16386,0
DA:16387,4
DA:16388,1
DA:16389,1
DA:16390,2
DA:16391,2
DA:16392,1
DA:16395,6
DA:16396,9
DA:16397,6
DA:16398,6
DA:16399,9
DA:16400,6
DA:16401,6
DA:16402,9
DA:16403,6
DA:16404,6
DA:16405,9
DA:16406,6
DA:16407,6
DA:16409,3
DA:16410,3
DA:16412,4
DA:16413,6
DA:16414,30
DA:16415,48
DA:16416,24
DA:16417,6
DA:16418,6
DA:16419,6
DA:16421,0
DA:16422,18
DA:16423,12
DA:16424,24
DA:16425,12
DA:16428,6
DA:16429,6
DA:16431,4
DA:16432,4
DA:16433,4
DA:16434,4
DA:16435,4
DA:16436,4
DA:16437,0
DA:16438,6
DA:16439,1
DA:16441,4
DA:16442,4
DA:16443,4
DA:16444,1
DA:16446,3
DA:16448,0
DA:16450,4
DA:16451,4
DA:16452,0
DA:16453,0
DA:16454,0
DA:16456,4
DA:16457,4
DA:16458,0
DA:16459,4
DA:16461,49
DA:16483,0
DA:16487,0
DA:16488,0
DA:16495,0
DA:16499,0
DA:16504,0
DA:16506,0
DA:16509,0
DA:16512,0
DA:16513,0
DA:16514,0
DA:16515,0
DA:16519,0
DA:16521,0
DA:16523,0
DA:16524,0
DA:16525,0
DA:16527,0
DA:16529,0
DA:16530,0
DA:16533,0
DA:16535,0
DA:16536,0
DA:16537,0
DA:16538,0
DA:16540,0
DA:16541,0
DA:16542,0
DA:16543,0
DA:16544,0
DA:16545,0
DA:16546,0
DA:16548,0
DA:16549,0
DA:16550,0
DA:16552,0
DA:16553,0
DA:16554,0
DA:16555,0
DA:16558,0
DA:16559,0
DA:16560,0
DA:16561,0
DA:16562,0
DA:16564,0
DA:16565,0
DA:16566,0
DA:16567,0
DA:16568,0
DA:16570,0
DA:16571,0
DA:16572,0
DA:16574,0
DA:16575,0
DA:16577,0
DA:16578,0
DA:16579,0
DA:16580,0
DA:16581,0
DA:16582,0
DA:16583,0
DA:16584,0
DA:16586,0
DA:16587,0
DA:16590,0
DA:16591,0
DA:16592,0
DA:16593,0
DA:16594,0
DA:16595,0
DA:16597,0
DA:16598,0
DA:16599,0
DA:16600,0
DA:16605,0
DA:16606,0
DA:16608,0
DA:16609,0
DA:16610,0
DA:16612,0
DA:16613,0
DA:16617,0
DA:16618,0
DA:16620,0
DA:16622,0
DA:16623,0
DA:16624,0
DA:16625,0
DA:16628,0
DA:16629,0
DA:16631,0
DA:16632,0
DA:16634,0
DA:16637,0
DA:16638,0
DA:16639,0
DA:16641,0
DA:16642,0
DA:16643,0
DA:16644,0
DA:16645,0
DA:16646,0
DA:16647,0
DA:16650,0
DA:16651,0
DA:16653,0
DA:16655,0
DA:16657,0
DA:16658,0
DA:16659,0
DA:16660,0
DA:16662,0
DA:16663,0
DA:16664,0
DA:16666,0
DA:16667,0
DA:16669,0
DA:16670,0
DA:16671,0
DA:16672,0
DA:16674,0
DA:16675,0
DA:16676,0
DA:16677,0
DA:16678,0
DA:16679,0
DA:16681,0
DA:16682,0
DA:16683,0
DA:16684,0
DA:16685,0
DA:16686,0
DA:16687,0
DA:16688,0
DA:16689,0
DA:16690,0
DA:16691,0
DA:16694,0
DA:16700,0
DA:16701,0
DA:16704,0
DA:16706,0
DA:16707,0
DA:16709,0
DA:16710,0
DA:16711,0
DA:16712,0
DA:16713,0
DA:16714,0
DA:16715,0
DA:16717,0
DA:16718,0
DA:16719,0
DA:16722,0
DA:16725,0
DA:16726,0
DA:16727,0
DA:16728,0
DA:16729,0
DA:16731,0
DA:16732,0
DA:16734,0
DA:16736,49
DA:16746,0
DA:16748,0
DA:16749,0
DA:16751,0
DA:16752,0
DA:16753,0
DA:16755,0
DA:16756,0
DA:16757,0
DA:16758,0
DA:16759,0
DA:16761,0
DA:16762,0
DA:16765,0
DA:16766,0
DA:16769,0
DA:16770,0
DA:16771,0
DA:16773,0
DA:16774,0
DA:16776,0
DA:16777,0
DA:16778,0
DA:16780,0
DA:16781,0
DA:16811,0
DA:16812,0
DA:16813,0
DA:16815,0
DA:16816,0
DA:16818,0
DA:16819,0
DA:16820,0
DA:16822,0
DA:16823,0
DA:16825,0
DA:16826,0
DA:16827,0
DA:16829,0
DA:16830,0
DA:16832,0
DA:16833,0
DA:16834,0
DA:16836,0
DA:16837,0
DA:16839,0
DA:16840,0
DA:16841,0
DA:16843,0
DA:16844,0
DA:16847,0
DA:16848,0
DA:16849,0
DA:16851,0
DA:16854,0
DA:16855,0
DA:16856,0
DA:16858,0
DA:16859,0
DA:16861,0
DA:16862,0
DA:16863,0
DA:16865,0
DA:16866,0
DA:16868,0
DA:16869,0
DA:16870,0
DA:16872,0
DA:16873,0
DA:16875,0
DA:16876,0
DA:16877,0
DA:16879,0
DA:16880,0
DA:16882,0
DA:16883,0
DA:16884,0
DA:16886,0
DA:16887,0
DA:16889,0
DA:16890,0
DA:16905,25
DA:16907,25
DA:16909,25
DA:16910,25
DA:16911,25
DA:16915,0
DA:16916,0
DA:16919,25
DA:16920,25
DA:16923,485
DA:16925,970
DA:16926,485
DA:16927,485
DA:16929,0
DA:16930,0
DA:16931,0
DA:16933,25
DA:16934,25
DA:16935,50
DA:16936,25
DA:16937,0
DA:16938,25
DA:16939,25
DA:16940,25
DA:16941,25
DA:16942,8
DA:16943,25
DA:16944,0
DA:16945,0
DA:16946,25
DA:16948,25
DA:16949,25
DA:16950,50
DA:16951,25
DA:16952,25
DA:16954,135
DA:16955,135
DA:16956,270
DA:16957,270
DA:16958,270
DA:16959,135
DA:16961,135
DA:16963,135
DA:16964,135
DA:16965,135
DA:16966,135
DA:16968,798
DA:16969,798
DA:16970,798
DA:16971,680
DA:16972,340
DA:16973,340
DA:16974,340
DA:16976,798
DA:16978,2748
DA:16980,2748
DA:16982,2748
DA:16984,2748
DA:16986,2748
DA:16988,10
DA:16989,0
DA:16990,0
DA:16991,0
DA:16992,0
DA:16993,0
DA:16994,0
DA:17000,2748
DA:17001,2738
DA:17004,10
DA:17005,20
DA:17006,20
DA:17007,10
DA:17009,10
DA:17011,20
DA:17012,10
DA:17013,20
DA:17014,10
DA:17018,10
DA:17019,0
DA:17020,0
DA:17021,0
DA:17022,0
DA:17023,0
DA:17024,0
DA:17025,0
DA:17026,0
DA:17027,0
DA:17028,0
DA:17029,0
DA:17030,0
DA:17031,0
DA:17032,0
DA:17033,0
DA:17034,0
DA:17035,0
DA:17037,0
DA:17038,0
DA:17039,0
DA:17040,0
DA:17041,0
DA:17042,0
DA:17043,0
DA:17044,10
DA:17045,10
DA:17048,10
DA:17049,10
DA:17051,10
DA:17054,798
DA:17055,798
DA:17056,798
DA:17057,680
DA:17058,340
DA:17059,340
DA:17060,340
DA:17062,340
DA:17063,340
DA:17065,340
DA:17067,798
DA:17069,135
DA:17070,135
DA:17071,270
DA:17072,135
DA:17074,135
DA:17075,135
DA:17077,135
DA:17078,0
DA:17079,135
DA:17080,0
DA:17082,135
DA:17083,135
DA:17085,25
DA:17086,25
DA:17088,50
DA:17089,50
DA:17090,50
DA:17091,25
DA:17092,25
DA:17093,25
DA:17095,25
DA:17096,25
DA:17097,50
DA:17098,50
DA:17099,50
DA:17100,25
DA:17101,25
DA:17102,25
DA:17149,49
DA:17159,49
DA:17179,49
DA:17182,49
DA:17609,147
LF:4554
LH:2482
end_of_record
SF:/usr/include/c++/7/bits/alloc_traits.h
FN:435,_ZNSt16allocator_traitsISaIPN5Catch10ISingletonEEE8allocateERS3_m
FN:435,_ZNSt16allocator_traitsISaISt4pairIiN5Catch9StringRefEEEE8allocateERS4_m
FN:435,_ZNSt16allocator_traitsISaISt23_Sp_counted_ptr_inplaceIN5Catch5clara6detail11BoundLambdaIZNS1_21makeCommandLineParserERNS1_10ConfigDataEEUlRKNSt7__cxx1112basic_stringIcSt11char_traitsIcESaIcEEEE_EESaISG_ELN9__gnu_cxx12_Lock_policyE2EEEE8allocateERSL_m
FN:435,_ZNSt16allocator_traitsISaIPN5Catch16TestCaseTracking8ITrackerEEE8allocateERS4_m
FN:435,_ZNSt16allocator_traitsISaISt23_Sp_counted_ptr_inplaceIN5Catch22CumulativeReporterBaseINS1_13JunitReporterEE4NodeINS1_14TestGroupStatsENS5_INS1_13TestCaseStatsENS4_11SectionNodeEEEEESaISA_ELN9__gnu_cxx12_Lock_policyE2EEEE8allocateERSF_m
FN:435,_ZNSt16allocator_traitsISaINSt7__cxx119sub_matchIN9__gnu_cxx17__normal_iteratorIPKcNS0_12basic_stringIcSt11char_traitsIcESaIcEEEEEEEEE8allocateERSD_m
FN:435,_ZNSt16allocator_traitsISaIPKN5Catch8TestCaseEEE8allocateERS4_m
FN:435,_ZNSt16allocator_traitsISaISt23_Sp_counted_ptr_inplaceIN5Catch5clara6detail11BoundLambdaIZNS1_21makeCommandLineParserERNS1_10ConfigDataEEUlRKNSt7__cxx1112basic_stringIcSt11char_traitsIcESaIcEEEE1_EESaISG_ELN9__gnu_cxx12_Lock_policyE2EEEE8allocateERSL_m
FN:435,_ZNSt16allocator_traitsISaISt23_Sp_counted_ptr_inplaceIN5Catch5clara6detail12BoundFlagRefESaIS4_ELN9__gnu_cxx12_Lock_policyE2EEEE8allocateERS9_m
FN:435,_ZNSt16allocator_traitsISaISt10unique_ptrINSt7__cxx1119basic_ostringstreamIcSt11char_traitsIcESaIcEEESt14default_deleteIS6_EEEE8allocateERSA_m
FN:435,_ZNSt16allocator_traitsISaISt23_Sp_counted_ptr_inplaceIN5Catch17ReporterRegistrarINS1_15ConsoleReporterEE15ReporterFactoryESaIS5_ELN9__gnu_cxx12_Lock_policyE2EEEE8allocateERSA_m
FN:435,_ZNSt16allocator_traitsISaISt10unique_ptrIKN5Catch20IExceptionTranslatorESt14default_deleteIS3_EEEE8allocateERS7_m
FN:435,_ZNSt16allocator_traitsISaIlEE8allocateERS0_m
FN:435,_ZNSt16allocator_traitsISaIN5Catch5clara6detail11HelpColumnsEEE8allocateERS4_m
FN:435,_ZNSt16allocator_traitsISaISt4pairIccEEE8allocateERS2_m
FN:435,_ZNSt16allocator_traitsISaIN5Catch5clara6detail5TokenEEE8allocateERS4_m
FN:435,_ZNSt16allocator_traitsISaISt10shared_ptrIN5Catch22CumulativeReporterBaseINS1_13JunitReporterEE11SectionNodeEEEE8allocateERS7_m
FN:435,_ZNSt16allocator_traitsISaISt23_Sp_counted_ptr_inplaceIN5Catch8TestSpec11NamePatternESaIS3_ELN9__gnu_cxx12_Lock_policyE2EEEE8allocateERS8_m
FN:435,_ZNSt16allocator_traitsISaISt10unique_ptrIN5Catch6Detail8EnumInfoESt14default_deleteIS3_EEEE8allocateERS7_m
FN:435,_ZNSt16allocator_traitsISaISt23_Sp_counted_ptr_inplaceIN5Catch5clara6detail13BoundValueRefIdEESaIS5_ELN9__gnu_cxx12_Lock_policyE2EEEE8allocateERSA_m
FN:435,_ZNSt16allocator_traitsISaISt23_Sp_counted_ptr_inplaceIN5Catch16TestCaseTracking14SectionTrackerESaIS3_ELN9__gnu_cxx12_Lock_policyE2EEEE8allocateERS8_m
FN:435,_ZNSt16allocator_traitsISaIN5Catch9StringRefEEE8allocateERS2_m
FN:435,_ZNSt16allocator_traitsISaISt23_Sp_counted_ptr_inplaceIN5Catch8TestSpec10TagPatternESaIS3_ELN9__gnu_cxx12_Lock_policyE2EEEE8allocateERS8_m
FN:435,_ZNSt16allocator_traitsISaISt13_Rb_tree_nodeISt4pairIKNSt7__cxx1112basic_stringIcSt11char_traitsIcESaIcEEESt10shared_ptrIN5Catch16IReporterFactoryEEEEEE8allocateERSF_m
FN:435,_ZNSt16allocator_traitsISaISt4pairIN9__gnu_cxx17__normal_iteratorIPKcNSt7__cxx1112basic_stringIcSt11char_traitsIcESaIcEEEEEiEEE8allocateERSD_m
FN:435,_ZNSt16allocator_traitsISaISt13_Rb_tree_nodeIN5Catch8TestCaseEEEE8allocateERS4_m
FN:435,_ZNSt16allocator_traitsISaIN5Catch13SummaryColumnEEE8allocateERS2_m
FN:435,_ZNSt16allocator_traitsISaISt23_Sp_counted_ptr_inplaceIN5Catch6ConfigESaIS2_ELN9__gnu_cxx12_Lock_policyE2EEEE8allocateERS7_m
FN:435,_ZNSt16allocator_traitsISaIN5Catch11MessageInfoEEE8allocateERS2_m
FN:435,_ZNSt16allocator_traitsISaISt23_Sp_counted_ptr_inplaceIN5Catch5clara6detail11BoundLambdaIZNS1_21makeCommandLineParserERNS1_10ConfigDataEEUlRKNSt7__cxx1112basic_stringIcSt11char_traitsIcESaIcEEEE0_EESaISG_ELN9__gnu_cxx12_Lock_policyE2EEEE8allocateERSL_m
FN:435,_ZNSt16allocator_traitsISaISt23_Sp_counted_ptr_inplaceIN5Catch5clara6detail11BoundLambdaIZNS1_21makeCommandLineParserERNS1_10ConfigDataEEUlRKNSt7__cxx1112basic_stringIcSt11char_traitsIcESaIcEEEE2_EESaISG_ELN9__gnu_cxx12_Lock_policyE2EEEE8allocateERSL_m
FN:435,_ZNSt16allocator_traitsISaINSt7__cxx1112regex_traitsIcE10_RegexMaskEEE8allocateERS4_m
FN:435,_ZNSt16allocator_traitsISaISt23_Sp_counted_ptr_inplaceIN5Catch5clara6detail11BoundLambdaIZNS1_21makeCommandLineParserERNS1_10ConfigDataEEUlRKNSt7__cxx1112basic_stringIcSt11char_traitsIcESaIcEEEE4_EESaISG_ELN9__gnu_cxx12_Lock_policyE2EEEE8allocateERSL_m
FN:435,_ZNSt16allocator_traitsISaIN5Catch5clara6detail3OptEEE8allocateERS4_m
FN:435,_ZNSt16allocator_traitsISaIPlEE8allocateERS1_m
FN:435,_ZNSt16allocator_traitsISaISt23_Sp_counted_ptr_inplaceIN5Catch17ReporterRegistrarINS1_11XmlReporterEE15ReporterFactoryESaIS5_ELN9__gnu_cxx12_Lock_policyE2EEEE8allocateERSA_m
FN:435,_ZNSt16allocator_traitsISaISt4pairINSt7__cxx1112basic_stringIcSt11char_traitsIcESaIcEEES6_EEE8allocateERS8_m
FN:435,_ZNSt16allocator_traitsISaIN5Catch5clara6detail3ArgEEE8allocateERS4_m
FN:435,_ZNSt16allocator_traitsISaISt10shared_ptrIN5Catch22CumulativeReporterBaseINS1_13JunitReporterEE4NodeINS1_12TestRunStatsENS5_INS1_14TestGroupStatsENS5_INS1_13TestCaseStatsENS4_11SectionNodeEEEEEEEEEE8allocateERSE_m
FN:435,_ZNSt16allocator_traitsISaIcEE8allocateERS0_m
FN:435,_ZNSt16allocator_traitsISaISt13_Rb_tree_nodeISt4pairIKNSt7__cxx1112basic_stringIcSt11char_traitsIcESaIcEEEN5Catch7TagInfoEEEEE8allocateERSD_m
FN:435,_ZNSt16allocator_traitsISaINSt8__detail6_StateIcEEEE8allocateERS3_m
FN:435,_ZNSt16allocator_traitsISaISt23_Sp_counted_ptr_inplaceINSt8__detail4_NFAINSt7__cxx1112regex_traitsIcEEEESaIS6_ELN9__gnu_cxx12_Lock_policyE2EEEE8allocateERSB_m
FN:435,_ZNSt16allocator_traitsISaIPNSt8__detail9_StateSeqINSt7__cxx1112regex_traitsIcEEEEEE8allocateERS7_m
FN:435,_ZNSt16allocator_traitsISaISt23_Sp_counted_ptr_inplaceIN5Catch17ReporterRegistrarINS1_15CompactReporterEE15ReporterFactoryESaIS5_ELN9__gnu_cxx12_Lock_policyE2EEEE8allocateERSA_m
FN:435,_ZNSt16allocator_traitsISaISt10shared_ptrIN5Catch16IReporterFactoryEEEE8allocateERS4_m
FN:435,_ZNSt16allocator_traitsISaISt4pairIlSt6vectorINSt7__cxx119sub_matchIN9__gnu_cxx17__normal_iteratorIPKcNS2_12basic_stringIcSt11char_traitsIcESaIcEEEEEEESaISE_EEEEE8allocateERSI_m
FN:435,_ZNSt16allocator_traitsISaIPcEE8allocateERS1_m
FN:435,_ZNSt16allocator_traitsISaIN5Catch5clara8TextFlow6ColumnEEE8allocateERS4_m
FN:435,_ZNSt16allocator_traitsISaISt13_Rb_tree_nodeINSt7__cxx1112basic_stringIcSt11char_traitsIcESaIcEEEEEE8allocateERS8_m
FN:435,_ZNSt16allocator_traitsISaISt13_Rb_tree_nodeISt4pairIKllEEEE8allocateERS5_m
FN:435,_ZNSt16allocator_traitsISaISt23_Sp_counted_ptr_inplaceIN5Catch22CumulativeReporterBaseINS1_13JunitReporterEE4NodeINS1_12TestRunStatsENS5_INS1_14TestGroupStatsENS5_INS1_13TestCaseStatsENS4_11SectionNodeEEEEEEESaISC_ELN9__gnu_cxx12_Lock_policyE2EEEE8allocateERSH_m
FN:435,_ZNSt16allocator_traitsISaIN5Catch11SectionInfoEEE8allocateERS2_m
FN:435,_ZNSt16allocator_traitsISaISt10shared_ptrIN5Catch22CumulativeReporterBaseINS1_13JunitReporterEE4NodeINS1_14TestGroupStatsENS5_INS1_13TestCaseStatsENS4_11SectionNodeEEEEEEEE8allocateERSC_m
FN:435,_ZNSt16allocator_traitsISaISt23_Sp_counted_ptr_inplaceIN5Catch5clara6detail11BoundLambdaIZNS1_21makeCommandLineParserERNS1_10ConfigDataEEUlRKNSt7__cxx1112basic_stringIcSt11char_traitsIcESaIcEEEE6_EESaISG_ELN9__gnu_cxx12_Lock_policyE2EEEE8allocateERSL_m
FN:435,_ZNSt16allocator_traitsISaISt23_Sp_counted_ptr_inplaceIN5Catch5clara6detail11BoundLambdaIZNS1_21makeCommandLineParserERNS1_10ConfigDataEEUlRKNSt7__cxx1112basic_stringIcSt11char_traitsIcESaIcEEEE5_EESaISG_ELN9__gnu_cxx12_Lock_policyE2EEEE8allocateERSL_m
FN:435,_ZNSt16allocator_traitsISaISt13_Rb_tree_nodeIPKN5Catch8TestCaseEEEE8allocateERS6_m
FN:435,_ZNSt16allocator_traitsISaIN5Catch8TestSpec11FilterMatchEEE8allocateERS3_m
FN:435,_ZNSt16allocator_traitsISaINSt8__detail9_StateSeqINSt7__cxx1112regex_traitsIcEEEEEE8allocateERS6_m
FN:435,_ZNSt16allocator_traitsISaISt23_Sp_counted_ptr_inplaceIN5Catch22CumulativeReporterBaseINS1_13JunitReporterEE4NodeINS1_13TestCaseStatsENS4_11SectionNodeEEESaIS8_ELN9__gnu_cxx12_Lock_policyE2EEEE8allocateERSD_m
FN:435,_ZNSt16allocator_traitsISaISt23_Sp_counted_ptr_inplaceIN5Catch10Generators16GeneratorTrackerESaIS3_ELN9__gnu_cxx12_Lock_policyE2EEEE8allocateERS8_m
FN:435,_ZNSt16allocator_traitsISaISt23_Sp_counted_ptr_inplaceIN5Catch5clara6detail15BoundFlagLambdaIZNS1_21makeCommandLineParserERNS1_10ConfigDataEEUlbE7_EESaIS8_ELN9__gnu_cxx12_Lock_policyE2EEEE8allocateERSD_m
FN:435,_ZNSt16allocator_traitsISaIN5Catch8TestSpec6FilterEEE8allocateERS3_m
FN:435,_ZNSt16allocator_traitsISaISt13_Rb_tree_nodeIN5Catch9VerbosityEEEE8allocateERS4_m
FN:435,_ZNSt16allocator_traitsISaINSt7__cxx1112basic_stringIcSt11char_traitsIcESaIcEEEEE8allocateERS6_m
FN:435,_ZNSt16allocator_traitsISaISt23_Sp_counted_ptr_inplaceIN5Catch5clara6detail13BoundValueRefISt6vectorINSt7__cxx1112basic_stringIcSt11char_traitsIcESaIcEEESaISB_EEEESaISE_ELN9__gnu_cxx12_Lock_policyE2EEEE8allocateERSJ_m
FN:435,_ZNSt16allocator_traitsISaISt10shared_ptrIN5Catch8TestSpec7PatternEEEE8allocateERS5_m
FN:435,_ZNSt16allocator_traitsISaIN5Catch14AssertionStatsEEE8allocateERS2_m
FN:435,_ZNSt16allocator_traitsISaISt23_Sp_counted_ptr_inplaceIN5Catch5clara6detail11BoundLambdaIZNS1_21makeCommandLineParserERNS1_10ConfigDataEEUliE8_EESaIS8_ELN9__gnu_cxx12_Lock_policyE2EEEE8allocateERSD_m
FN:435,_ZNSt16allocator_traitsISaISt23_Sp_counted_ptr_inplaceIN5Catch5clara6detail13BoundValueRefINSt7__cxx1112basic_stringIcSt11char_traitsIcESaIcEEEEESaISB_ELN9__gnu_cxx12_Lock_policyE2EEEE8allocateERSG_m
FN:435,_ZNSt16allocator_traitsISaIN5Catch8TestCaseEEE8allocateERS2_m
FN:435,_ZNSt16allocator_traitsISaIN5Catch5clara8TextFlow6Column8iteratorEEE8allocateERS5_m
FN:435,_ZNSt16allocator_traitsISaISt23_Sp_counted_ptr_inplaceIN5Catch8TestSpec15ExcludedPatternESaIS3_ELN9__gnu_cxx12_Lock_policyE2EEEE8allocateERS8_m
FN:435,_ZNSt16allocator_traitsISaISt23_Sp_counted_ptr_inplaceIN5Catch5clara6detail11BoundLambdaIZNS1_21makeCommandLineParserERNS1_10ConfigDataEEUlRKNSt7__cxx1112basic_stringIcSt11char_traitsIcESaIcEEEE3_EESaISG_ELN9__gnu_cxx12_Lock_policyE2EEEE8allocateERSL_m
FN:435,_ZNSt16allocator_traitsISaISt23_Sp_counted_ptr_inplaceIN5Catch5clara6detail11BoundLambdaIZNS1_21makeCommandLineParserERNS1_10ConfigDataEEUlbE9_EESaIS8_ELN9__gnu_cxx12_Lock_policyE2EEEE8allocateERSD_m
FN:435,_ZNSt16allocator_traitsISaISt23_Sp_counted_ptr_inplaceIN5Catch17ReporterRegistrarINS1_13JunitReporterEE15ReporterFactoryESaIS5_ELN9__gnu_cxx12_Lock_policyE2EEEE8allocateERSA_m
FN:435,_ZNSt16allocator_traitsISaISt10unique_ptrIN5Catch18IStreamingReporterESt14default_deleteIS2_EEEE8allocateERS6_m
FN:435,_ZNSt16allocator_traitsISaISt23_Sp_counted_ptr_inplaceIN5Catch22CumulativeReporterBaseINS1_13JunitReporterEE11SectionNodeESaIS5_ELN9__gnu_cxx12_Lock_policyE2EEEE8allocateERSA_m
FN:435,_ZNSt16allocator_traitsISaINSt15__exception_ptr13exception_ptrEEE8allocateERS2_m
FN:435,_ZNSt16allocator_traitsISaISt23_Sp_counted_ptr_inplaceINSt7__cxx1112basic_stringIcSt11char_traitsIcESaIcEEESaIS6_ELN9__gnu_cxx12_Lock_policyE2EEEE8allocateERSB_m
FN:435,_ZNSt16allocator_traitsISaIN5Catch13ScopedMessageEEE8allocateERS2_m
FN:435,_ZNSt16allocator_traitsISaImEE8allocateERS0_m
FN:435,_ZNSt16allocator_traitsISaIN5Catch14SectionEndInfoEEE8allocateERS2_m
FN:435,_ZNSt16allocator_traitsISaISt23_Sp_counted_ptr_inplaceIN5Catch5clara6detail13BoundValueRefIjEESaIS5_ELN9__gnu_cxx12_Lock_policyE2EEEE8allocateERSA_m
FN:435,_ZNSt16allocator_traitsISaISt10shared_ptrIN5Catch16TestCaseTracking8ITrackerEEEE8allocateERS5_m
FN:435,_ZNSt16allocator_traitsISaISt13_Rb_tree_nodeISt4pairIKNSt7__cxx1112basic_stringIcSt11char_traitsIcESaIcEEEN5Catch8TagAliasEEEEE8allocateERSD_m
FN:435,_ZNSt16allocator_traitsISaISt10shared_ptrIN5Catch22CumulativeReporterBaseINS1_13JunitReporterEE4NodeINS1_13TestCaseStatsENS4_11SectionNodeEEEEEE8allocateERSA_m
FN:435,_ZNSt16allocator_traitsISaISt23_Sp_counted_ptr_inplaceIN5Catch5clara6detail15BoundFlagLambdaIZNS3_4HelpC4ERbEUlbE_EESaIS8_ELN9__gnu_cxx12_Lock_policyE2EEEE8allocateERSD_m
FN:435,_ZNSt16allocator_traitsISaIN5Catch12_GLOBAL__N_110ColumnInfoEEE8allocateERS3_m
FN:461,_ZNSt16allocator_traitsISaISt13_Rb_tree_nodeISt4pairIKNSt7__cxx1112basic_stringIcSt11char_traitsIcESaIcEEEN5Catch8TagAliasEEEEE10deallocateERSD_PSC_m
FN:461,_ZNSt16allocator_traitsISaIN5Catch5clara6detail3ArgEEE10deallocateERS4_PS3_m
FN:461,_ZNSt16allocator_traitsISaIPNSt8__detail9_StateSeqINSt7__cxx1112regex_traitsIcEEEEEE10deallocateERS7_PS6_m
FN:461,_ZNSt16allocator_traitsISaINSt8__detail9_StateSeqINSt7__cxx1112regex_traitsIcEEEEEE10deallocateERS6_PS5_m
FN:461,_ZNSt16allocator_traitsISaIN5Catch11SectionInfoEEE10deallocateERS2_PS1_m
FN:461,_ZNSt16allocator_traitsISaISt23_Sp_counted_ptr_inplaceIN5Catch5clara6detail11BoundLambdaIZNS1_21makeCommandLineParserERNS1_10ConfigDataEEUlRKNSt7__cxx1112basic_stringIcSt11char_traitsIcESaIcEEEE6_EESaISG_ELN9__gnu_cxx12_Lock_policyE2EEEE10deallocateERSL_PSK_m
FN:461,_ZNSt16allocator_traitsISaISt23_Sp_counted_ptr_inplaceINSt8__detail4_NFAINSt7__cxx1112regex_traitsIcEEEESaIS6_ELN9__gnu_cxx12_Lock_policyE2EEEE10deallocateERSB_PSA_m
FN:461,_ZNSt16allocator_traitsISaISt4pairINSt7__cxx1112basic_stringIcSt11char_traitsIcESaIcEEES6_EEE10deallocateERS8_PS7_m
FN:461,_ZNSt16allocator_traitsISaISt10unique_ptrIN5Catch18IStreamingReporterESt14default_deleteIS2_EEEE10deallocateERS6_PS5_m
FN:461,_ZNSt16allocator_traitsISaISt4pairIccEEE10deallocateERS2_PS1_m
FN:461,_ZNSt16allocator_traitsISaIlEE10deallocateERS0_Plm
FN:461,_ZNSt16allocator_traitsISaISt4pairIlSt6vectorINSt7__cxx119sub_matchIN9__gnu_cxx17__normal_iteratorIPKcNS2_12basic_stringIcSt11char_traitsIcESaIcEEEEEEESaISE_EEEEE10deallocateERSI_PSH_m
FN:461,_ZNSt16allocator_traitsISaIN5Catch12_GLOBAL__N_110ColumnInfoEEE10deallocateERS3_PS2_m
FN:461,_ZNSt16allocator_traitsISaISt23_Sp_counted_ptr_inplaceIN5Catch16TestCaseTracking14SectionTrackerESaIS3_ELN9__gnu_cxx12_Lock_policyE2EEEE10deallocateERS8_PS7_m
FN:461,_ZNSt16allocator_traitsISaIN5Catch13ScopedMessageEEE10deallocateERS2_PS1_m
FN:461,_ZNSt16allocator_traitsISaISt23_Sp_counted_ptr_inplaceIN5Catch8TestSpec11NamePatternESaIS3_ELN9__gnu_cxx12_Lock_policyE2EEEE10deallocateERS8_PS7_m
FN:461,_ZNSt16allocator_traitsISaISt23_Sp_counted_ptr_inplaceIN5Catch17ReporterRegistrarINS1_15ConsoleReporterEE15ReporterFactoryESaIS5_ELN9__gnu_cxx12_Lock_policyE2EEEE10deallocateERSA_PS9_m
FN:461,_ZNSt16allocator_traitsISaIN5Catch8TestCaseEEE10deallocateERS2_PS1_m
FN:461,_ZNSt16allocator_traitsISaISt23_Sp_counted_ptr_inplaceIN5Catch22CumulativeReporterBaseINS1_13JunitReporterEE4NodeINS1_14TestGroupStatsENS5_INS1_13TestCaseStatsENS4_11SectionNodeEEEEESaISA_ELN9__gnu_cxx12_Lock_policyE2EEEE10deallocateERSF_PSE_m
FN:461,_ZNSt16allocator_traitsISaIcEE10deallocateERS0_Pcm
FN:461,_ZNSt16allocator_traitsISaIN5Catch14AssertionStatsEEE10deallocateERS2_PS1_m
FN:461,_ZNSt16allocator_traitsISaINSt7__cxx119sub_matchIN9__gnu_cxx17__normal_iteratorIPKcNS0_12basic_stringIcSt11char_traitsIcESaIcEEEEEEEEE10deallocateERSD_PSC_m
FN:461,_ZNSt16allocator_traitsISaISt23_Sp_counted_ptr_inplaceIN5Catch5clara6detail11BoundLambdaIZNS1_21makeCommandLineParserERNS1_10ConfigDataEEUliE8_EESaIS8_ELN9__gnu_cxx12_Lock_policyE2EEEE10deallocateERSD_PSC_m
FN:461,_ZNSt16allocator_traitsISaISt10unique_ptrINSt7__cxx1119basic_ostringstreamIcSt11char_traitsIcESaIcEEESt14default_deleteIS6_EEEE10deallocateERSA_PS9_m
FN:461,_ZNSt16allocator_traitsISaIN5Catch5clara6detail3OptEEE10deallocateERS4_PS3_m
FN:461,_ZNSt16allocator_traitsISaISt23_Sp_counted_ptr_inplaceIN5Catch5clara6detail13BoundValueRefIjEESaIS5_ELN9__gnu_cxx12_Lock_policyE2EEEE10deallocateERSA_PS9_m
FN:461,_ZNSt16allocator_traitsISaImEE10deallocateERS0_Pmm
FN:461,_ZNSt16allocator_traitsISaISt23_Sp_counted_ptr_inplaceINSt7__cxx1112basic_stringIcSt11char_traitsIcESaIcEEESaIS6_ELN9__gnu_cxx12_Lock_policyE2EEEE10deallocateERSB_PSA_m
FN:461,_ZNSt16allocator_traitsISaISt10shared_ptrIN5Catch22CumulativeReporterBaseINS1_13JunitReporterEE11SectionNodeEEEE10deallocateERS7_PS6_m
FN:461,_ZNSt16allocator_traitsISaIPlEE10deallocateERS1_PS0_m
FN:461,_ZNSt16allocator_traitsISaISt13_Rb_tree_nodeIN5Catch8TestCaseEEEE10deallocateERS4_PS3_m
FN:461,_ZNSt16allocator_traitsISaIN5Catch8TestSpec6FilterEEE10deallocateERS3_PS2_m
FN:461,_ZNSt16allocator_traitsISaISt23_Sp_counted_ptr_inplaceIN5Catch17ReporterRegistrarINS1_15CompactReporterEE15ReporterFactoryESaIS5_ELN9__gnu_cxx12_Lock_policyE2EEEE10deallocateERSA_PS9_m
FN:461,_ZNSt16allocator_traitsISaIN5Catch14SectionEndInfoEEE10deallocateERS2_PS1_m
FN:461,_ZNSt16allocator_traitsISaISt23_Sp_counted_ptr_inplaceIN5Catch22CumulativeReporterBaseINS1_13JunitReporterEE4NodeINS1_13TestCaseStatsENS4_11SectionNodeEEESaIS8_ELN9__gnu_cxx12_Lock_policyE2EEEE10deallocateERSD_PSC_m
FN:461,_ZNSt16allocator_traitsISaIN5Catch11MessageInfoEEE10deallocateERS2_PS1_m
FN:461,_ZNSt16allocator_traitsISaISt13_Rb_tree_nodeISt4pairIKllEEEE10deallocateERS5_PS4_m
FN:461,_ZNSt16allocator_traitsISaISt23_Sp_counted_ptr_inplaceIN5Catch5clara6detail13BoundValueRefIdEESaIS5_ELN9__gnu_cxx12_Lock_policyE2EEEE10deallocateERSA_PS9_m
FN:461,_ZNSt16allocator_traitsISaISt23_Sp_counted_ptr_inplaceIN5Catch5clara6detail11BoundLambdaIZNS1_21makeCommandLineParserERNS1_10ConfigDataEEUlRKNSt7__cxx1112basic_stringIcSt11char_traitsIcESaIcEEEE3_EESaISG_ELN9__gnu_cxx12_Lock_policyE2EEEE10deallocateERSL_PSK_m
FN:461,_ZNSt16allocator_traitsISaIN5Catch9StringRefEEE10deallocateERS2_PS1_m
FN:461,_ZNSt16allocator_traitsISaISt10shared_ptrIN5Catch8TestSpec7PatternEEEE10deallocateERS5_PS4_m
FN:461,_ZNSt16allocator_traitsISaISt23_Sp_counted_ptr_inplaceIN5Catch22CumulativeReporterBaseINS1_13JunitReporterEE4NodeINS1_12TestRunStatsENS5_INS1_14TestGroupStatsENS5_INS1_13TestCaseStatsENS4_11SectionNodeEEEEEEESaISC_ELN9__gnu_cxx12_Lock_policyE2EEEE10deallocateERSH_PSG_m
FN:461,_ZNSt16allocator_traitsISaISt23_Sp_counted_ptr_inplaceIN5Catch5clara6detail11BoundLambdaIZNS1_21makeCommandLineParserERNS1_10ConfigDataEEUlbE9_EESaIS8_ELN9__gnu_cxx12_Lock_policyE2EEEE10deallocateERSD_PSC_m
FN:461,_ZNSt16allocator_traitsISaISt23_Sp_counted_ptr_inplaceIN5Catch5clara6detail15BoundFlagLambdaIZNS3_4HelpC4ERbEUlbE_EESaIS8_ELN9__gnu_cxx12_Lock_policyE2EEEE10deallocateERSD_PSC_m
FN:461,_ZNSt16allocator_traitsISaISt10shared_ptrIN5Catch22CumulativeReporterBaseINS1_13JunitReporterEE4NodeINS1_14TestGroupStatsENS5_INS1_13TestCaseStatsENS4_11SectionNodeEEEEEEEE10deallocateERSC_PSB_m
FN:461,_ZNSt16allocator_traitsISaISt23_Sp_counted_ptr_inplaceIN5Catch6ConfigESaIS2_ELN9__gnu_cxx12_Lock_policyE2EEEE10deallocateERS7_PS6_m
FN:461,_ZNSt16allocator_traitsISaISt23_Sp_counted_ptr_inplaceIN5Catch5clara6detail12BoundFlagRefESaIS4_ELN9__gnu_cxx12_Lock_policyE2EEEE10deallocateERS9_PS8_m
FN:461,_ZNSt16allocator_traitsISaIPN5Catch10ISingletonEEE10deallocateERS3_PS2_m
FN:461,_ZNSt16allocator_traitsISaIN5Catch8TestSpec11FilterMatchEEE10deallocateERS3_PS2_m
FN:461,_ZNSt16allocator_traitsISaISt23_Sp_counted_ptr_inplaceIN5Catch17ReporterRegistrarINS1_11XmlReporterEE15ReporterFactoryESaIS5_ELN9__gnu_cxx12_Lock_policyE2EEEE10deallocateERSA_PS9_m
FN:461,_ZNSt16allocator_traitsISaIN5Catch13SummaryColumnEEE10deallocateERS2_PS1_m
FN:461,_ZNSt16allocator_traitsISaISt13_Rb_tree_nodeIPKN5Catch8TestCaseEEEE10deallocateERS6_PS5_m
FN:461,_ZNSt16allocator_traitsISaISt10unique_ptrIKN5Catch20IExceptionTranslatorESt14default_deleteIS3_EEEE10deallocateERS7_PS6_m
FN:461,_ZNSt16allocator_traitsISaISt13_Rb_tree_nodeISt4pairIKNSt7__cxx1112basic_stringIcSt11char_traitsIcESaIcEEEN5Catch7TagInfoEEEEE10deallocateERSD_PSC_m
FN:461,_ZNSt16allocator_traitsISaISt23_Sp_counted_ptr_inplaceIN5Catch10Generators16GeneratorTrackerESaIS3_ELN9__gnu_cxx12_Lock_policyE2EEEE10deallocateERS8_PS7_m
FN:461,_ZNSt16allocator_traitsISaINSt8__detail6_StateIcEEEE10deallocateERS3_PS2_m
FN:461,_ZNSt16allocator_traitsISaISt23_Sp_counted_ptr_inplaceIN5Catch5clara6detail11BoundLambdaIZNS1_21makeCommandLineParserERNS1_10ConfigDataEEUlRKNSt7__cxx1112basic_stringIcSt11char_traitsIcESaIcEEEE4_EESaISG_ELN9__gnu_cxx12_Lock_policyE2EEEE10deallocateERSL_PSK_m
FN:461,_ZNSt16allocator_traitsISaIPKN5Catch8TestCaseEEE10deallocateERS4_PS3_m
FN:461,_ZNSt16allocator_traitsISaISt10unique_ptrIN5Catch6Detail8EnumInfoESt14default_deleteIS3_EEEE10deallocateERS7_PS6_m
FN:461,_ZNSt16allocator_traitsISaINSt15__exception_ptr13exception_ptrEEE10deallocateERS2_PS1_m
FN:461,_ZNSt16allocator_traitsISaISt23_Sp_counted_ptr_inplaceIN5Catch5clara6detail11BoundLambdaIZNS1_21makeCommandLineParserERNS1_10ConfigDataEEUlRKNSt7__cxx1112basic_stringIcSt11char_traitsIcESaIcEEEE2_EESaISG_ELN9__gnu_cxx12_Lock_policyE2EEEE10deallocateERSL_PSK_m
FN:461,_ZNSt16allocator_traitsISaIN5Catch5clara6detail11HelpColumnsEEE10deallocateERS4_PS3_m
FN:461,_ZNSt16allocator_traitsISaIN5Catch5clara6detail5TokenEEE10deallocateERS4_PS3_m
FN:461,_ZNSt16allocator_traitsISaISt6vectorISt10shared_ptrIN5Catch22CumulativeReporterBaseINS2_13JunitReporterEE11SectionNodeEESaIS7_EEEE10deallocateERSA_PS9_m
FN:461,_ZNSt16allocator_traitsISaINSt7__cxx1112basic_stringIcSt11char_traitsIcESaIcEEEEE10deallocateERS6_PS5_m
FN:461,_ZNSt16allocator_traitsISaIPcEE10deallocateERS1_PS0_m
FN:461,_ZNSt16allocator_traitsISaISt13_Rb_tree_nodeIN5Catch9VerbosityEEEE10deallocateERS4_PS3_m
FN:461,_ZNSt16allocator_traitsISaISt23_Sp_counted_ptr_inplaceIN5Catch8TestSpec10TagPatternESaIS3_ELN9__gnu_cxx12_Lock_policyE2EEEE10deallocateERS8_PS7_m
FN:461,_ZNSt16allocator_traitsISaISt10shared_ptrIN5Catch22CumulativeReporterBaseINS1_13JunitReporterEE4NodeINS1_13TestCaseStatsENS4_11SectionNodeEEEEEE10deallocateERSA_PS9_m
FN:461,_ZNSt16allocator_traitsISaISt23_Sp_counted_ptr_inplaceIN5Catch5clara6detail13BoundValueRefINSt7__cxx1112basic_stringIcSt11char_traitsIcESaIcEEEEESaISB_ELN9__gnu_cxx12_Lock_policyE2EEEE10deallocateERSG_PSF_m
FN:461,_ZNSt16allocator_traitsISaISt13_Rb_tree_nodeINSt7__cxx1112basic_stringIcSt11char_traitsIcESaIcEEEEEE10deallocateERS8_PS7_m
FN:461,_ZNSt16allocator_traitsISaISt23_Sp_counted_ptr_inplaceIN5Catch5clara6detail15BoundFlagLambdaIZNS1_21makeCommandLineParserERNS1_10ConfigDataEEUlbE7_EESaIS8_ELN9__gnu_cxx12_Lock_policyE2EEEE10deallocateERSD_PSC_m
FN:461,_ZNSt16allocator_traitsISaISt23_Sp_counted_ptr_inplaceIN5Catch5clara6detail11BoundLambdaIZNS1_21makeCommandLineParserERNS1_10ConfigDataEEUlRKNSt7__cxx1112basic_stringIcSt11char_traitsIcESaIcEEEE1_EESaISG_ELN9__gnu_cxx12_Lock_policyE2EEEE10deallocateERSL_PSK_m
FN:461,_ZNSt16allocator_traitsISaISt10shared_ptrIN5Catch16TestCaseTracking8ITrackerEEEE10deallocateERS5_PS4_m
FN:461,_ZNSt16allocator_traitsISaISt23_Sp_counted_ptr_inplaceIN5Catch5clara6detail13BoundValueRefISt6vectorINSt7__cxx1112basic_stringIcSt11char_traitsIcESaIcEEESaISB_EEEESaISE_ELN9__gnu_cxx12_Lock_policyE2EEEE10deallocateERSJ_PSI_m
FN:461,_ZNSt16allocator_traitsISaISt10shared_ptrIN5Catch16IReporterFactoryEEEE10deallocateERS4_PS3_m
FN:461,_ZNSt16allocator_traitsISaISt23_Sp_counted_ptr_inplaceIN5Catch22CumulativeReporterBaseINS1_13JunitReporterEE11SectionNodeESaIS5_ELN9__gnu_cxx12_Lock_policyE2EEEE10deallocateERSA_PS9_m
FN:461,_ZNSt16allocator_traitsISaISt4pairIiN5Catch9StringRefEEEE10deallocateERS4_PS3_m
FN:461,_ZNSt16allocator_traitsISaIPN5Catch16TestCaseTracking8ITrackerEEE10deallocateERS4_PS3_m
FN:461,_ZNSt16allocator_traitsISaISt10shared_ptrIN5Catch22CumulativeReporterBaseINS1_13JunitReporterEE4NodeINS1_12TestRunStatsENS5_INS1_14TestGroupStatsENS5_INS1_13TestCaseStatsENS4_11SectionNodeEEEEEEEEEE10deallocateERSE_PSD_m
FN:461,_ZNSt16allocator_traitsISaISt23_Sp_counted_ptr_inplaceIN5Catch5clara6detail11BoundLambdaIZNS1_21makeCommandLineParserERNS1_10ConfigDataEEUlRKNSt7__cxx1112basic_stringIcSt11char_traitsIcESaIcEEEE5_EESaISG_ELN9__gnu_cxx12_Lock_policyE2EEEE10deallocateERSL_PSK_m
FN:461,_ZNSt16allocator_traitsISaINSt7__cxx1112regex_traitsIcE10_RegexMaskEEE10deallocateERS4_PS3_m
FN:461,_ZNSt16allocator_traitsISaISt23_Sp_counted_ptr_inplaceIN5Catch5clara6detail11BoundLambdaIZNS1_21makeCommandLineParserERNS1_10ConfigDataEEUlRKNSt7__cxx1112basic_stringIcSt11char_traitsIcESaIcEEEE0_EESaISG_ELN9__gnu_cxx12_Lock_policyE2EEEE10deallocateERSL_PSK_m
FN:461,_ZNSt16allocator_traitsISaIN5Catch5clara8TextFlow6ColumnEEE10deallocateERS4_PS3_m
FN:461,_ZNSt16allocator_traitsISaISt23_Sp_counted_ptr_inplaceIN5Catch8TestSpec15ExcludedPatternESaIS3_ELN9__gnu_cxx12_Lock_policyE2EEEE10deallocateERS8_PS7_m
FN:461,_ZNSt16allocator_traitsISaISt13_Rb_tree_nodeISt4pairIKNSt7__cxx1112basic_stringIcSt11char_traitsIcESaIcEEESt10shared_ptrIN5Catch16IReporterFactoryEEEEEE10deallocateERSF_PSE_m
FN:461,_ZNSt16allocator_traitsISaIN5Catch5clara8TextFlow6Column8iteratorEEE10deallocateERS5_PS4_m
FN:461,_ZNSt16allocator_traitsISaISt23_Sp_counted_ptr_inplaceIN5Catch17ReporterRegistrarINS1_13JunitReporterEE15ReporterFactoryESaIS5_ELN9__gnu_cxx12_Lock_policyE2EEEE10deallocateERSA_PS9_m
FN:461,_ZNSt16allocator_traitsISaISt4pairIN9__gnu_cxx17__normal_iteratorIPKcNSt7__cxx1112basic_stringIcSt11char_traitsIcESaIcEEEEEiEEE10deallocateERSD_PSC_m
FN:461,_ZNSt16allocator_traitsISaISt23_Sp_counted_ptr_inplaceIN5Catch5clara6detail11BoundLambdaIZNS1_21makeCommandLineParserERNS1_10ConfigDataEEUlRKNSt7__cxx1112basic_stringIcSt11char_traitsIcESaIcEEEE_EESaISG_ELN9__gnu_cxx12_Lock_policyE2EEEE10deallocateERSL_PSK_m
FN:474,_ZNSt16allocator_traitsISaIN5Catch8TestSpec10TagPatternEEE9constructIS2_JRA2_KcRNSt7__cxx1112basic_stringIcSt11char_traitsIcESaIcEEEEEEvRS3_PT_DpOT0_
FN:474,_ZNSt16allocator_traitsISaIN5Catch8TestCaseEEE9constructIS1_JRKS1_EEEvRS2_PT_DpOT0_
FN:474,_ZNSt16allocator_traitsISaISt13_Rb_tree_nodeIPKN5Catch8TestCaseEEEE9constructIS4_JS4_EEEvRS6_PT_DpOT0_
FN:474,_ZNSt16allocator_traitsISaIN5Catch10Generators16GeneratorTrackerEEE9constructIS2_JRKNS0_16TestCaseTracking15NameAndLocationERNS6_14TrackerContextEPNS6_8ITrackerEEEEvRS3_PT_DpOT0_
FN:474,_ZNSt16allocator_traitsISaINSt7__cxx1112regex_traitsIcE10_RegexMaskEEE9constructIS3_JRKS3_EEEvRS4_PT_DpOT0_
FN:474,_ZNSt16allocator_traitsISaIN5Catch6ConfigEEE9constructIS1_JRNS0_10ConfigDataEEEEvRS2_PT_DpOT0_
FN:474,_ZNSt16allocator_traitsISaIN5Catch5clara6detail11BoundLambdaIZNS0_21makeCommandLineParserERNS0_10ConfigDataEEUlRKNSt7__cxx1112basic_stringIcSt11char_traitsIcESaIcEEEE5_EEEE9constructISF_JRKSE_EEEvRSG_PT_DpOT0_
FN:474,_ZNSt16allocator_traitsISaIN5Catch17ReporterRegistrarINS0_15ConsoleReporterEE15ReporterFactoryEEE9constructIS4_JEEEvRS5_PT_DpOT0_
FN:474,_ZNSt16allocator_traitsISaIN5Catch5clara6detail11BoundLambdaIZNS0_21makeCommandLineParserERNS0_10ConfigDataEEUlbE9_EEEE9constructIS7_JRKS6_EEEvRS8_PT_DpOT0_
FN:474,_ZNSt16allocator_traitsISaIN5Catch5clara6detail13BoundValueRefISt6vectorINSt7__cxx1112basic_stringIcSt11char_traitsIcESaIcEEESaISA_EEEEEE9constructISD_JRSC_EEEvRSE_PT_DpOT0_
FN:474,_ZNSt16allocator_traitsISaISt10unique_ptrIN5Catch6Detail8EnumInfoESt14default_deleteIS3_EEEE9constructIS6_JS6_EEEvRS7_PT_DpOT0_
FN:474,_ZNSt16allocator_traitsISaIlEE9constructIlJRKlEEEvRS0_PT_DpOT0_
FN:474,_ZNSt16allocator_traitsISaISt4pairIccEEE9constructIS1_JS1_EEEvRS2_PT_DpOT0_
FN:474,_ZNSt16allocator_traitsISaIN5Catch16TestCaseTracking14SectionTrackerEEE9constructIS2_JRKNS1_15NameAndLocationERNS1_14TrackerContextEPNS1_8ITrackerEEEEvRS3_PT_DpOT0_
FN:474,_ZNSt16allocator_traitsISaISt4pairIlSt6vectorINSt7__cxx119sub_matchIN9__gnu_cxx17__normal_iteratorIPKcNS2_12basic_stringIcSt11char_traitsIcESaIcEEEEEEESaISE_EEEEE9constructISH_JRlRKSG_EEEvRSI_PT_DpOT0_
FN:474,_ZNSt16allocator_traitsISaIN5Catch13ScopedMessageEEE9constructIS1_JRKNS0_14MessageBuilderEEEEvRS2_PT_DpOT0_
FN:474,_ZNSt16allocator_traitsISaIN5Catch5clara6detail15BoundFlagLambdaIZNS0_21makeCommandLineParserERNS0_10ConfigDataEEUlbE7_EEEE9constructIS7_JRKS6_EEEvRS8_PT_DpOT0_
FN:474,_ZNSt16allocator_traitsISaISt10shared_ptrIN5Catch16TestCaseTracking8ITrackerEEEE9constructIS4_JRKS4_EEEvRS5_PT_DpOT0_
FN:474,_ZNSt16allocator_traitsISaISt4pairIiN5Catch9StringRefEEEE9constructIS3_JS3_EEEvRS4_PT_DpOT0_
FN:474,_ZNSt16allocator_traitsISaIN5Catch14AssertionStatsEEE9constructIS1_JRKS1_EEEvRS2_PT_DpOT0_
FN:474,_ZNSt16allocator_traitsISaIN5Catch5clara6detail11BoundLambdaIZNS0_21makeCommandLineParserERNS0_10ConfigDataEEUlRKNSt7__cxx1112basic_stringIcSt11char_traitsIcESaIcEEEE3_EEEE9constructISF_JRKSE_EEEvRSG_PT_DpOT0_
FN:474,_ZNSt16allocator_traitsISaINSt7__cxx1112basic_stringIcSt11char_traitsIcESaIcEEEEE9constructIS5_JRA13_KcEEEvRS6_PT_DpOT0_
FN:474,_ZNSt16allocator_traitsISaIN5Catch8TestSpec10TagPatternEEE9constructIS2_JRNSt7__cxx1112basic_stringIcSt11char_traitsIcESaIcEEESC_EEEvRS3_PT_DpOT0_
FN:474,_ZNSt16allocator_traitsISaIN5Catch8TestSpec15ExcludedPatternEEE9constructIS2_JRSt10shared_ptrINS1_7PatternEEEEEvRS3_PT_DpOT0_
FN:474,_ZNSt16allocator_traitsISaINSt7__cxx1112basic_stringIcSt11char_traitsIcESaIcEEEEE9constructIS5_JRKS5_EEEvRS6_PT_DpOT0_
FN:474,_ZNSt16allocator_traitsISaIN5Catch16TestCaseTracking14SectionTrackerEEE9constructIS2_JNS1_15NameAndLocationERNS1_14TrackerContextEDnEEEvRS3_PT_DpOT0_
FN:474,_ZNSt16allocator_traitsISaISt13_Rb_tree_nodeIN5Catch8TestCaseEEEE9constructIS2_JRKS2_EEEvRS4_PT_DpOT0_
FN:474,_ZNSt16allocator_traitsISaIN5Catch11SectionInfoEEE9constructIS1_JRKS1_EEEvRS2_PT_DpOT0_
FN:474,_ZNSt16allocator_traitsISaIPKN5Catch8TestCaseEEE9constructIS3_JS3_EEEvRS4_PT_DpOT0_
FN:474,_ZNSt16allocator_traitsISaIN5Catch22CumulativeReporterBaseINS0_13JunitReporterEE4NodeINS0_13TestCaseStatsENS3_11SectionNodeEEEEE9constructIS7_JRKS5_EEEvRS8_PT_DpOT0_
FN:474,_ZNSt16allocator_traitsISaIN5Catch5clara6detail5TokenEEE9constructIS3_JS3_EEEvRS4_PT_DpOT0_
FN:474,_ZNSt16allocator_traitsISaISt10shared_ptrIN5Catch8TestSpec7PatternEEEE9constructIS4_JRKS4_EEEvRS5_PT_DpOT0_
FN:474,_ZNSt16allocator_traitsISaINSt8__detail9_StateSeqINSt7__cxx1112regex_traitsIcEEEEEE9constructIS5_JRKS5_EEEvRS6_PT_DpOT0_
FN:474,_ZNSt16allocator_traitsISaIPN5Catch10ISingletonEEE9constructIS2_JRKS2_EEEvRS3_PT_DpOT0_
FN:474,_ZNSt16allocator_traitsISaIN5Catch22CumulativeReporterBaseINS0_13JunitReporterEE11SectionNodeEEE9constructIS4_JRNS0_12SectionStatsEEEEvRS5_PT_DpOT0_
FN:474,_ZNSt16allocator_traitsISaISt10shared_ptrIN5Catch22CumulativeReporterBaseINS1_13JunitReporterEE4NodeINS1_14TestGroupStatsENS5_INS1_13TestCaseStatsENS4_11SectionNodeEEEEEEEE9constructISB_JRKSB_EEEvRSC_PT_DpOT0_
FN:474,_ZNSt16allocator_traitsISaIN5Catch5clara6detail13BoundValueRefIdEEEE9constructIS4_JRdEEEvRS5_PT_DpOT0_
FN:474,_ZNSt16allocator_traitsISaISt13_Rb_tree_nodeIPKN5Catch8TestCaseEEEE9constructIS4_JRKS4_EEEvRS6_PT_DpOT0_
FN:474,_ZNSt16allocator_traitsISaIN5Catch5clara6detail13BoundValueRefINSt7__cxx1112basic_stringIcSt11char_traitsIcESaIcEEEEEEE9constructISA_JRS9_EEEvRSB_PT_DpOT0_
FN:474,_ZNSt16allocator_traitsISaIN5Catch8TestSpec11NamePatternEEE9constructIS2_JRNSt7__cxx1112basic_stringIcSt11char_traitsIcESaIcEEESC_EEEvRS3_PT_DpOT0_
FN:474,_ZNSt16allocator_traitsISaIN5Catch11MessageInfoEEE9constructIS1_JRNS0_9StringRefERKNS0_14SourceLineInfoERNS0_9ResultWas6OfTypeEEEEvRS2_PT_DpOT0_
FN:474,_ZNSt16allocator_traitsISaIPN5Catch16TestCaseTracking8ITrackerEEE9constructIS3_JS3_EEEvRS4_PT_DpOT0_
FN:474,_ZNSt16allocator_traitsISaISt10shared_ptrIN5Catch22CumulativeReporterBaseINS1_13JunitReporterEE11SectionNodeEEEE9constructIS6_JRKS6_EEEvRS7_PT_DpOT0_
FN:474,_ZNSt16allocator_traitsISaISt13_Rb_tree_nodeISt4pairIKllEEEE9constructIS3_JRKSt21piecewise_construct_tSt5tupleIJRS2_EESB_IJEEEEEvRS5_PT_DpOT0_
FN:474,_ZNSt16allocator_traitsISaISt13_Rb_tree_nodeISt4pairIKNSt7__cxx1112basic_stringIcSt11char_traitsIcESaIcEEESt10shared_ptrIN5Catch16IReporterFactoryEEEEEE9constructISD_JRS8_RKSC_EEEvRSF_PT_DpOT0_
FN:474,_ZNSt16allocator_traitsISaISt10unique_ptrIN5Catch18IStreamingReporterESt14default_deleteIS2_EEEE9constructIS5_JS5_EEEvRS6_PT_DpOT0_
FN:474,_ZNSt16allocator_traitsISaISt4pairINSt7__cxx1112basic_stringIcSt11char_traitsIcESaIcEEES6_EEE9constructIS7_JS7_EEEvRS8_PT_DpOT0_
FN:474,_ZNSt16allocator_traitsISaIN5Catch14SectionEndInfoEEE9constructIS1_JRKS1_EEEvRS2_PT_DpOT0_
FN:474,_ZNSt16allocator_traitsISaIN5Catch22CumulativeReporterBaseINS0_13JunitReporterEE4NodeINS0_14TestGroupStatsENS4_INS0_13TestCaseStatsENS3_11SectionNodeEEEEEEE9constructIS9_JRKS5_EEEvRSA_PT_DpOT0_
FN:474,_ZNSt16allocator_traitsISaIN5Catch13SummaryColumnEEE9constructIS1_JS1_EEEvRS2_PT_DpOT0_
FN:474,_ZNSt16allocator_traitsISaImEE9constructImJRKmEEEvRS0_PT_DpOT0_
FN:474,_ZNSt16allocator_traitsISaIcEE9constructIcJRKcEEEvRS0_PT_DpOT0_
FN:474,_ZNSt16allocator_traitsISaIcEE9constructIcJcEEEvRS0_PT_DpOT0_
FN:474,_ZNSt16allocator_traitsISaIN5Catch5clara6detail11BoundLambdaIZNS0_21makeCommandLineParserERNS0_10ConfigDataEEUlRKNSt7__cxx1112basic_stringIcSt11char_traitsIcESaIcEEEE_EEEE9constructISF_JRKSE_EEEvRSG_PT_DpOT0_
FN:474,_ZNSt16allocator_traitsISaIN5Catch5clara8TextFlow6ColumnEEE9constructIS3_JRKS3_EEEvRS4_PT_DpOT0_
FN:474,_ZNSt16allocator_traitsISaIN5Catch17ReporterRegistrarINS0_13JunitReporterEE15ReporterFactoryEEE9constructIS4_JEEEvRS5_PT_DpOT0_
FN:474,_ZNSt16allocator_traitsISaIN5Catch5clara6detail11BoundLambdaIZNS0_21makeCommandLineParserERNS0_10ConfigDataEEUlRKNSt7__cxx1112basic_stringIcSt11char_traitsIcESaIcEEEE0_EEEE9constructISF_JRKSE_EEEvRSG_PT_DpOT0_
FN:474,_ZNSt16allocator_traitsISaIN5Catch5clara6detail11BoundLambdaIZNS0_21makeCommandLineParserERNS0_10ConfigDataEEUlRKNSt7__cxx1112basic_stringIcSt11char_traitsIcESaIcEEEE6_EEEE9constructISF_JRKSE_EEEvRSG_PT_DpOT0_
FN:474,_ZNSt16allocator_traitsISaIN5Catch5clara6detail15BoundFlagLambdaIZNS2_4HelpC4ERbEUlbE_EEEE9constructIS7_JRKS6_EEEvRS8_PT_DpOT0_
FN:474,_ZNSt16allocator_traitsISaINSt8__detail9_StateSeqINSt7__cxx1112regex_traitsIcEEEEEE9constructIS5_JS5_EEEvRS6_PT_DpOT0_
FN:474,_ZNSt16allocator_traitsISaIN5Catch5clara6detail11BoundLambdaIZNS0_21makeCommandLineParserERNS0_10ConfigDataEEUliE8_EEEE9constructIS7_JRKS6_EEEvRS8_PT_DpOT0_
FN:474,_ZNSt16allocator_traitsISaISt13_Rb_tree_nodeINSt7__cxx1112basic_stringIcSt11char_traitsIcESaIcEEEEEE9constructIS6_JRKS6_EEEvRS8_PT_DpOT0_
FN:474,_ZNSt16allocator_traitsISaINSt8__detail6_StateIcEEEE9constructIS2_JS2_EEEvRS3_PT_DpOT0_
FN:474,_ZNSt16allocator_traitsISaISt10shared_ptrIN5Catch16IReporterFactoryEEEE9constructIS3_JRKS3_EEEvRS4_PT_DpOT0_
FN:474,_ZNSt16allocator_traitsISaIN5Catch22CumulativeReporterBaseINS0_13JunitReporterEE4NodeINS0_12TestRunStatsENS4_INS0_14TestGroupStatsENS4_INS0_13TestCaseStatsENS3_11SectionNodeEEEEEEEEE9constructISB_JRKS5_EEEvRSC_PT_DpOT0_
FN:474,_ZNSt16allocator_traitsISaISt13_Rb_tree_nodeISt4pairIKNSt7__cxx1112basic_stringIcSt11char_traitsIcESaIcEEEN5Catch8TagAliasEEEEE9constructISB_JS1_IS7_SA_EEEEvRSD_PT_DpOT0_
FN:474,_ZNSt16allocator_traitsISaIN5Catch5clara6detail11BoundLambdaIZNS0_21makeCommandLineParserERNS0_10ConfigDataEEUlRKNSt7__cxx1112basic_stringIcSt11char_traitsIcESaIcEEEE4_EEEE9constructISF_JRKSE_EEEvRSG_PT_DpOT0_
FN:474,_ZNSt16allocator_traitsISaIN5Catch11MessageInfoEEE9constructIS1_JRKS1_EEEvRS2_PT_DpOT0_
FN:474,_ZNSt16allocator_traitsISaISt10shared_ptrIN5Catch22CumulativeReporterBaseINS1_13JunitReporterEE4NodeINS1_13TestCaseStatsENS4_11SectionNodeEEEEEE9constructIS9_JRKS9_EEEvRSA_PT_DpOT0_
FN:474,_ZNSt16allocator_traitsISaISt10unique_ptrIKN5Catch20IExceptionTranslatorESt14default_deleteIS3_EEEE9constructIS6_JS6_EEEvRS7_PT_DpOT0_
FN:474,_ZNSt16allocator_traitsISaINSt8__detail4_NFAINSt7__cxx1112regex_traitsIcEEEEEE9constructIS5_JRKSt6localeRNSt15regex_constants18syntax_option_typeEEEEvRS6_PT_DpOT0_
FN:474,_ZNSt16allocator_traitsISaISt10shared_ptrIN5Catch22CumulativeReporterBaseINS1_13JunitReporterEE4NodeINS1_12TestRunStatsENS5_INS1_14TestGroupStatsENS5_INS1_13TestCaseStatsENS4_11SectionNodeEEEEEEEEEE9constructISD_JRKSD_EEEvRSE_PT_DpOT0_
FN:474,_ZNSt16allocator_traitsISaIN5Catch9StringRefEEE9constructIS1_JS1_EEEvRS2_PT_DpOT0_
FN:474,_ZNSt16allocator_traitsISaIN5Catch5clara6detail11BoundLambdaIZNS0_21makeCommandLineParserERNS0_10ConfigDataEEUlRKNSt7__cxx1112basic_stringIcSt11char_traitsIcESaIcEEEE1_EEEE9constructISF_JRKSE_EEEvRSG_PT_DpOT0_
FN:474,_ZNSt16allocator_traitsISaIN5Catch17ReporterRegistrarINS0_11XmlReporterEE15ReporterFactoryEEE9constructIS4_JEEEvRS5_PT_DpOT0_
FN:474,_ZNSt16allocator_traitsISaIN5Catch5clara6detail11BoundLambdaIZNS0_21makeCommandLineParserERNS0_10ConfigDataEEUlRKNSt7__cxx1112basic_stringIcSt11char_traitsIcESaIcEEEE2_EEEE9constructISF_JRKSE_EEEvRSG_PT_DpOT0_
FN:474,_ZNSt16allocator_traitsISaIN5Catch17ReporterRegistrarINS0_15CompactReporterEE15ReporterFactoryEEE9constructIS4_JEEEvRS5_PT_DpOT0_
FN:474,_ZNSt16allocator_traitsISaISt13_Rb_tree_nodeIN5Catch9VerbosityEEEE9constructIS2_JRKS2_EEEvRS4_PT_DpOT0_
FN:474,_ZNSt16allocator_traitsISaINSt15__exception_ptr13exception_ptrEEE9constructIS1_JRKS1_EEEvRS2_PT_DpOT0_
FN:474,_ZNSt16allocator_traitsISaIN5Catch5clara6detail3ArgEEE9constructIS3_JRKS3_EEEvRS4_PT_DpOT0_
FN:474,_ZNSt16allocator_traitsISaIN5Catch5clara8TextFlow6Column8iteratorEEE9constructIS4_JS4_EEEvRS5_PT_DpOT0_
FN:474,_ZNSt16allocator_traitsISaISt13_Rb_tree_nodeISt4pairIKNSt7__cxx1112basic_stringIcSt11char_traitsIcESaIcEEEN5Catch7TagInfoEEEEE9constructISB_JS1_IS7_SA_EEEEvRSD_PT_DpOT0_
FN:474,_ZNSt16allocator_traitsISaISt10unique_ptrINSt7__cxx1119basic_ostringstreamIcSt11char_traitsIcESaIcEEESt14default_deleteIS6_EEEE9constructIS9_JS9_EEEvRSA_PT_DpOT0_
FN:474,_ZNSt16allocator_traitsISaIN5Catch8TestSpec6FilterEEE9constructIS2_JRKS2_EEEvRS3_PT_DpOT0_
FN:474,_ZNSt16allocator_traitsISaIN5Catch5clara6detail13BoundValueRefIjEEEE9constructIS4_JRjEEEvRS5_PT_DpOT0_
FN:474,_ZNSt16allocator_traitsISaIN5Catch5clara6detail3OptEEE9constructIS3_JRKS3_EEEvRS4_PT_DpOT0_
FN:474,_ZNSt16allocator_traitsISaIN5Catch5clara6detail12BoundFlagRefEEE9constructIS3_JRbEEEvRS4_PT_DpOT0_
FN:474,_ZNSt16allocator_traitsISaINSt7__cxx1112basic_stringIcSt11char_traitsIcESaIcEEEEE9constructIS5_JS5_EEEvRS6_PT_DpOT0_
FN:486,_ZNSt16allocator_traitsISaIN5Catch5clara6detail3OptEEE7destroyIS3_EEvRS4_PT_
FN:486,_ZNSt16allocator_traitsISaIN5Catch5clara6detail15BoundFlagLambdaIZNS2_4HelpC4ERbEUlbE_EEEE7destroyIS7_EEvRS8_PT_
FN:486,_ZNSt16allocator_traitsISaISt4pairINSt7__cxx1112basic_stringIcSt11char_traitsIcESaIcEEES6_EEE7destroyIS7_EEvRS8_PT_
FN:486,_ZNSt16allocator_traitsISaIN5Catch5clara6detail11BoundLambdaIZNS0_21makeCommandLineParserERNS0_10ConfigDataEEUlRKNSt7__cxx1112basic_stringIcSt11char_traitsIcESaIcEEEE6_EEEE7destroyISF_EEvRSG_PT_
FN:486,_ZNSt16allocator_traitsISaIN5Catch5clara6detail13BoundValueRefISt6vectorINSt7__cxx1112basic_stringIcSt11char_traitsIcESaIcEEESaISA_EEEEEE7destroyISD_EEvRSE_PT_
FN:486,_ZNSt16allocator_traitsISaIN5Catch5clara6detail11BoundLambdaIZNS0_21makeCommandLineParserERNS0_10ConfigDataEEUlRKNSt7__cxx1112basic_stringIcSt11char_traitsIcESaIcEEEE3_EEEE7destroyISF_EEvRSG_PT_
FN:486,_ZNSt16allocator_traitsISaISt10unique_ptrIN5Catch6Detail8EnumInfoESt14default_deleteIS3_EEEE7destroyIS6_EEvRS7_PT_
FN:486,_ZNSt16allocator_traitsISaISt13_Rb_tree_nodeIN5Catch9VerbosityEEEE7destroyIS2_EEvRS4_PT_
FN:486,_ZNSt16allocator_traitsISaIN5Catch6ConfigEEE7destroyIS1_EEvRS2_PT_
FN:486,_ZNSt16allocator_traitsISaIN5Catch10Generators16GeneratorTrackerEEE7destroyIS2_EEvRS3_PT_
FN:486,_ZNSt16allocator_traitsISaIlEE7destroyIlEEvRS0_PT_
FN:486,_ZNSt16allocator_traitsISaIN5Catch5clara6detail3ArgEEE7destroyIS3_EEvRS4_PT_
FN:486,_ZNSt16allocator_traitsISaISt10shared_ptrIN5Catch16TestCaseTracking8ITrackerEEEE7destroyIS4_EEvRS5_PT_
FN:486,_ZNSt16allocator_traitsISaIN5Catch17ReporterRegistrarINS0_15ConsoleReporterEE15ReporterFactoryEEE7destroyIS4_EEvRS5_PT_
FN:486,_ZNSt16allocator_traitsISaIN5Catch8TestCaseEEE7destroyIS1_EEvRS2_PT_
FN:486,_ZNSt16allocator_traitsISaIN5Catch5clara6detail11BoundLambdaIZNS0_21makeCommandLineParserERNS0_10ConfigDataEEUlRKNSt7__cxx1112basic_stringIcSt11char_traitsIcESaIcEEEE5_EEEE7destroyISF_EEvRSG_PT_
FN:486,_ZNSt16allocator_traitsISaIN5Catch5clara6detail13BoundValueRefIjEEEE7destroyIS4_EEvRS5_PT_
FN:486,_ZNSt16allocator_traitsISaIN5Catch22CumulativeReporterBaseINS0_13JunitReporterEE4NodeINS0_13TestCaseStatsENS3_11SectionNodeEEEEE7destroyIS7_EEvRS8_PT_
FN:486,_ZNSt16allocator_traitsISaIN5Catch13ScopedMessageEEE7destroyIS1_EEvRS2_PT_
FN:486,_ZNSt16allocator_traitsISaIN5Catch5clara6detail13BoundValueRefINSt7__cxx1112basic_stringIcSt11char_traitsIcESaIcEEEEEEE7destroyISA_EEvRSB_PT_
FN:486,_ZNSt16allocator_traitsISaINSt7__cxx1112regex_traitsIcE10_RegexMaskEEE7destroyIS3_EEvRS4_PT_
FN:486,_ZNSt16allocator_traitsISaIN5Catch11SectionInfoEEE7destroyIS1_EEvRS2_PT_
FN:486,_ZNSt16allocator_traitsISaISt4pairIccEEE7destroyIS1_EEvRS2_PT_
FN:486,_ZNSt16allocator_traitsISaISt13_Rb_tree_nodeISt4pairIKllEEEE7destroyIS3_EEvRS5_PT_
FN:486,_ZNSt16allocator_traitsISaIcEE7destroyIcEEvRS0_PT_
FN:486,_ZNSt16allocator_traitsISaISt10shared_ptrIN5Catch22CumulativeReporterBaseINS1_13JunitReporterEE11SectionNodeEEEE7destroyIS6_EEvRS7_PT_
FN:486,_ZNSt16allocator_traitsISaISt10unique_ptrIKN5Catch20IExceptionTranslatorESt14default_deleteIS3_EEEE7destroyIS6_EEvRS7_PT_
FN:486,_ZNSt16allocator_traitsISaIN5Catch17ReporterRegistrarINS0_13JunitReporterEE15ReporterFactoryEEE7destroyIS4_EEvRS5_PT_
FN:486,_ZNSt16allocator_traitsISaIPN5Catch10ISingletonEEE7destroyIS2_EEvRS3_PT_
FN:486,_ZNSt16allocator_traitsISaIN5Catch5clara6detail11BoundLambdaIZNS0_21makeCommandLineParserERNS0_10ConfigDataEEUlRKNSt7__cxx1112basic_stringIcSt11char_traitsIcESaIcEEEE_EEEE7destroyISF_EEvRSG_PT_
FN:486,_ZNSt16allocator_traitsISaISt13_Rb_tree_nodeINSt7__cxx1112basic_stringIcSt11char_traitsIcESaIcEEEEEE7destroyIS6_EEvRS8_PT_
FN:486,_ZNSt16allocator_traitsISaIN5Catch5clara8TextFlow6Column8iteratorEEE7destroyIS4_EEvRS5_PT_
FN:486,_ZNSt16allocator_traitsISaIN5Catch8TestSpec6FilterEEE7destroyIS2_EEvRS3_PT_
FN:486,_ZNSt16allocator_traitsISaIN5Catch11MessageInfoEEE7destroyIS1_EEvRS2_PT_
FN:486,_ZNSt16allocator_traitsISaIPKN5Catch8TestCaseEEE7destroyIS3_EEvRS4_PT_
FN:486,_ZNSt16allocator_traitsISaISt10shared_ptrIN5Catch22CumulativeReporterBaseINS1_13JunitReporterEE4NodeINS1_14TestGroupStatsENS5_INS1_13TestCaseStatsENS4_11SectionNodeEEEEEEEE7destroyISB_EEvRSC_PT_
FN:486,_ZNSt16allocator_traitsISaIN5Catch22CumulativeReporterBaseINS0_13JunitReporterEE4NodeINS0_12TestRunStatsENS4_INS0_14TestGroupStatsENS4_INS0_13TestCaseStatsENS3_11SectionNodeEEEEEEEEE7destroyISB_EEvRSC_PT_
FN:486,_ZNSt16allocator_traitsISaIN5Catch8TestSpec10TagPatternEEE7destroyIS2_EEvRS3_PT_
FN:486,_ZNSt16allocator_traitsISaIN5Catch14SectionEndInfoEEE7destroyIS1_EEvRS2_PT_
FN:486,_ZNSt16allocator_traitsISaIN5Catch8TestSpec15ExcludedPatternEEE7destroyIS2_EEvRS3_PT_
FN:486,_ZNSt16allocator_traitsISaIN5Catch5clara6detail11BoundLambdaIZNS0_21makeCommandLineParserERNS0_10ConfigDataEEUlRKNSt7__cxx1112basic_stringIcSt11char_traitsIcESaIcEEEE1_EEEE7destroyISF_EEvRSG_PT_
FN:486,_ZNSt16allocator_traitsISaINSt8__detail4_NFAINSt7__cxx1112regex_traitsIcEEEEEE7destroyIS5_EEvRS6_PT_
FN:486,_ZNSt16allocator_traitsISaIN5Catch5clara6detail11BoundLambdaIZNS0_21makeCommandLineParserERNS0_10ConfigDataEEUlbE9_EEEE7destroyIS7_EEvRS8_PT_
FN:486,_ZNSt16allocator_traitsISaIN5Catch5clara6detail11BoundLambdaIZNS0_21makeCommandLineParserERNS0_10ConfigDataEEUlRKNSt7__cxx1112basic_stringIcSt11char_traitsIcESaIcEEEE4_EEEE7destroyISF_EEvRSG_PT_
FN:486,_ZNSt16allocator_traitsISaISt10shared_ptrIN5Catch22CumulativeReporterBaseINS1_13JunitReporterEE4NodeINS1_12TestRunStatsENS5_INS1_14TestGroupStatsENS5_INS1_13TestCaseStatsENS4_11SectionNodeEEEEEEEEEE7destroyISD_EEvRSE_PT_
FN:486,_ZNSt16allocator_traitsISaIN5Catch5clara6detail15BoundFlagLambdaIZNS0_21makeCommandLineParserERNS0_10ConfigDataEEUlbE7_EEEE7destroyIS7_EEvRS8_PT_
FN:486,_ZNSt16allocator_traitsISaINSt7__cxx1112basic_stringIcSt11char_traitsIcESaIcEEEEE7destroyIS5_EEvRS6_PT_
FN:486,_ZNSt16allocator_traitsISaISt10unique_ptrINSt7__cxx1119basic_ostringstreamIcSt11char_traitsIcESaIcEEESt14default_deleteIS6_EEEE7destroyIS9_EEvRSA_PT_
FN:486,_ZNSt16allocator_traitsISaIN5Catch5clara6detail12BoundFlagRefEEE7destroyIS3_EEvRS4_PT_
FN:486,_ZNSt16allocator_traitsISaISt10shared_ptrIN5Catch16IReporterFactoryEEEE7destroyIS3_EEvRS4_PT_
FN:486,_ZNSt16allocator_traitsISaIN5Catch5clara6detail5TokenEEE7destroyIS3_EEvRS4_PT_
FN:486,_ZNSt16allocator_traitsISaISt13_Rb_tree_nodeISt4pairIKNSt7__cxx1112basic_stringIcSt11char_traitsIcESaIcEEEN5Catch8TagAliasEEEEE7destroyISB_EEvRSD_PT_
FN:486,_ZNSt16allocator_traitsISaISt4pairIlSt6vectorINSt7__cxx119sub_matchIN9__gnu_cxx17__normal_iteratorIPKcNS2_12basic_stringIcSt11char_traitsIcESaIcEEEEEEESaISE_EEEEE7destroyISH_EEvRSI_PT_
FN:486,_ZNSt16allocator_traitsISaIN5Catch17ReporterRegistrarINS0_15CompactReporterEE15ReporterFactoryEEE7destroyIS4_EEvRS5_PT_
FN:486,_ZNSt16allocator_traitsISaIN5Catch22CumulativeReporterBaseINS0_13JunitReporterEE4NodeINS0_14TestGroupStatsENS4_INS0_13TestCaseStatsENS3_11SectionNodeEEEEEEE7destroyIS9_EEvRSA_PT_
FN:486,_ZNSt16allocator_traitsISaIN5Catch17ReporterRegistrarINS0_11XmlReporterEE15ReporterFactoryEEE7destroyIS4_EEvRS5_PT_
FN:486,_ZNSt16allocator_traitsISaIPN5Catch16TestCaseTracking8ITrackerEEE7destroyIS3_EEvRS4_PT_
FN:486,_ZNSt16allocator_traitsISaISt10unique_ptrIN5Catch18IStreamingReporterESt14default_deleteIS2_EEEE7destroyIS5_EEvRS6_PT_
FN:486,_ZNSt16allocator_traitsISaIN5Catch5clara6detail13BoundValueRefIdEEEE7destroyIS4_EEvRS5_PT_
FN:486,_ZNSt16allocator_traitsISaIN5Catch22CumulativeReporterBaseINS0_13JunitReporterEE11SectionNodeEEE7destroyIS4_EEvRS5_PT_
FN:486,_ZNSt16allocator_traitsISaIN5Catch8TestSpec11NamePatternEEE7destroyIS2_EEvRS3_PT_
FN:486,_ZNSt16allocator_traitsISaISt10shared_ptrIN5Catch8TestSpec7PatternEEEE7destroyIS4_EEvRS5_PT_
FN:486,_ZNSt16allocator_traitsISaISt10shared_ptrIN5Catch22CumulativeReporterBaseINS1_13JunitReporterEE4NodeINS1_13TestCaseStatsENS4_11SectionNodeEEEEEE7destroyIS9_EEvRSA_PT_
FN:486,_ZNSt16allocator_traitsISaISt4pairIiN5Catch9StringRefEEEE7destroyIS3_EEvRS4_PT_
FN:486,_ZNSt16allocator_traitsISaIN5Catch16TestCaseTracking14SectionTrackerEEE7destroyIS2_EEvRS3_PT_
FN:486,_ZNSt16allocator_traitsISaIN5Catch14AssertionStatsEEE7destroyIS1_EEvRS2_PT_
FN:486,_ZNSt16allocator_traitsISaISt13_Rb_tree_nodeIPKN5Catch8TestCaseEEEE7destroyIS4_EEvRS6_PT_
FN:486,_ZNSt16allocator_traitsISaINSt8__detail9_StateSeqINSt7__cxx1112regex_traitsIcEEEEEE7destroyIS5_EEvRS6_PT_
FN:486,_ZNSt16allocator_traitsISaIN5Catch5clara6detail11BoundLambdaIZNS0_21makeCommandLineParserERNS0_10ConfigDataEEUlRKNSt7__cxx1112basic_stringIcSt11char_traitsIcESaIcEEEE2_EEEE7destroyISF_EEvRSG_PT_
FN:486,_ZNSt16allocator_traitsISaIN5Catch5clara8TextFlow6ColumnEEE7destroyIS3_EEvRS4_PT_
FN:486,_ZNSt16allocator_traitsISaIN5Catch5clara6detail11BoundLambdaIZNS0_21makeCommandLineParserERNS0_10ConfigDataEEUlRKNSt7__cxx1112basic_stringIcSt11char_traitsIcESaIcEEEE0_EEEE7destroyISF_EEvRSG_PT_
FN:486,_ZNSt16allocator_traitsISaISt13_Rb_tree_nodeISt4pairIKNSt7__cxx1112basic_stringIcSt11char_traitsIcESaIcEEESt10shared_ptrIN5Catch16IReporterFactoryEEEEEE7destroyISD_EEvRSF_PT_
FN:486,_ZNSt16allocator_traitsISaIN5Catch13SummaryColumnEEE7destroyIS1_EEvRS2_PT_
FN:486,_ZNSt16allocator_traitsISaIN5Catch9StringRefEEE7destroyIS1_EEvRS2_PT_
FN:486,_ZNSt16allocator_traitsISaINSt8__detail6_StateIcEEEE7destroyIS2_EEvRS3_PT_
FN:486,_ZNSt16allocator_traitsISaISt13_Rb_tree_nodeIN5Catch8TestCaseEEEE7destroyIS2_EEvRS4_PT_
FN:486,_ZNSt16allocator_traitsISaINSt15__exception_ptr13exception_ptrEEE7destroyIS1_EEvRS2_PT_
FN:486,_ZNSt16allocator_traitsISaImEE7destroyImEEvRS0_PT_
FN:486,_ZNSt16allocator_traitsISaIN5Catch5clara6detail11BoundLambdaIZNS0_21makeCommandLineParserERNS0_10ConfigDataEEUliE8_EEEE7destroyIS7_EEvRS8_PT_
FN:486,_ZNSt16allocator_traitsISaISt13_Rb_tree_nodeISt4pairIKNSt7__cxx1112basic_stringIcSt11char_traitsIcESaIcEEEN5Catch7TagInfoEEEEE7destroyISB_EEvRSD_PT_
FN:495,_ZNSt16allocator_traitsISaISt10shared_ptrIN5Catch22CumulativeReporterBaseINS1_13JunitReporterEE11SectionNodeEEEE8max_sizeERKS7_
FN:495,_ZNSt16allocator_traitsISaIN5Catch5clara8TextFlow6Column8iteratorEEE8max_sizeERKS5_
FN:495,_ZNSt16allocator_traitsISaIN5Catch5clara8TextFlow6ColumnEEE8max_sizeERKS4_
FN:495,_ZNSt16allocator_traitsISaISt4pairIccEEE8max_sizeERKS2_
FN:495,_ZNSt16allocator_traitsISaINSt15__exception_ptr13exception_ptrEEE8max_sizeERKS2_
FN:495,_ZNSt16allocator_traitsISaISt10shared_ptrIN5Catch22CumulativeReporterBaseINS1_13JunitReporterEE4NodeINS1_13TestCaseStatsENS4_11SectionNodeEEEEEE8max_sizeERKSA_
FN:495,_ZNSt16allocator_traitsISaINSt7__cxx1112regex_traitsIcE10_RegexMaskEEE8max_sizeERKS4_
FN:495,_ZNSt16allocator_traitsISaIN5Catch13ScopedMessageEEE8max_sizeERKS2_
FN:495,_ZNSt16allocator_traitsISaIN5Catch8TestSpec6FilterEEE8max_sizeERKS3_
FN:495,_ZNSt16allocator_traitsISaIN5Catch9StringRefEEE8max_sizeERKS2_
FN:495,_ZNSt16allocator_traitsISaINSt7__cxx1112basic_stringIcSt11char_traitsIcESaIcEEEEE8max_sizeERKS6_
FN:495,_ZNSt16allocator_traitsISaIN5Catch8TestCaseEEE8max_sizeERKS2_
FN:495,_ZNSt16allocator_traitsISaIPN5Catch10ISingletonEEE8max_sizeERKS3_
FN:495,_ZNSt16allocator_traitsISaISt4pairIiN5Catch9StringRefEEEE8max_sizeERKS4_
FN:495,_ZNSt16allocator_traitsISaISt4pairINSt7__cxx1112basic_stringIcSt11char_traitsIcESaIcEEES6_EEE8max_sizeERKS8_
FN:495,_ZNSt16allocator_traitsISaImEE8max_sizeERKS0_
FN:495,_ZNSt16allocator_traitsISaIN5Catch5clara6detail3ArgEEE8max_sizeERKS4_
FN:495,_ZNSt16allocator_traitsISaINSt7__cxx119sub_matchIN9__gnu_cxx17__normal_iteratorIPKcNS0_12basic_stringIcSt11char_traitsIcESaIcEEEEEEEEE8max_sizeERKSD_
FN:495,_ZNSt16allocator_traitsISaIcEE8max_sizeERKS0_
FN:495,_ZNSt16allocator_traitsISaIN5Catch11SectionInfoEEE8max_sizeERKS2_
FN:495,_ZNSt16allocator_traitsISaISt10shared_ptrIN5Catch22CumulativeReporterBaseINS1_13JunitReporterEE4NodeINS1_12TestRunStatsENS5_INS1_14TestGroupStatsENS5_INS1_13TestCaseStatsENS4_11SectionNodeEEEEEEEEEE8max_sizeERKSE_
FN:495,_ZNSt16allocator_traitsISaISt10unique_ptrINSt7__cxx1119basic_ostringstreamIcSt11char_traitsIcESaIcEEESt14default_deleteIS6_EEEE8max_sizeERKSA_
FN:495,_ZNSt16allocator_traitsISaINSt8__detail6_StateIcEEEE8max_sizeERKS3_
FN:495,_ZNSt16allocator_traitsISaIN5Catch13SummaryColumnEEE8max_sizeERKS2_
FN:495,_ZNSt16allocator_traitsISaISt10shared_ptrIN5Catch16IReporterFactoryEEEE8max_sizeERKS4_
FN:495,_ZNSt16allocator_traitsISaIN5Catch5clara6detail3OptEEE8max_sizeERKS4_
FN:495,_ZNSt16allocator_traitsISaISt10unique_ptrIKN5Catch20IExceptionTranslatorESt14default_deleteIS3_EEEE8max_sizeERKS7_
FN:495,_ZNSt16allocator_traitsISaISt10shared_ptrIN5Catch22CumulativeReporterBaseINS1_13JunitReporterEE4NodeINS1_14TestGroupStatsENS5_INS1_13TestCaseStatsENS4_11SectionNodeEEEEEEEE8max_sizeERKSC_
FN:495,_ZNSt16allocator_traitsISaISt10unique_ptrIN5Catch18IStreamingReporterESt14default_deleteIS2_EEEE8max_sizeERKS6_
FN:495,_ZNSt16allocator_traitsISaIN5Catch11MessageInfoEEE8max_sizeERKS2_
FN:495,_ZNSt16allocator_traitsISaIPKN5Catch8TestCaseEEE8max_sizeERKS4_
FN:495,_ZNSt16allocator_traitsISaISt10shared_ptrIN5Catch8TestSpec7PatternEEEE8max_sizeERKS5_
FN:495,_ZNSt16allocator_traitsISaIN5Catch14AssertionStatsEEE8max_sizeERKS2_
FN:495,_ZNSt16allocator_traitsISaISt4pairIlSt6vectorINSt7__cxx119sub_matchIN9__gnu_cxx17__normal_iteratorIPKcNS2_12basic_stringIcSt11char_traitsIcESaIcEEEEEEESaISE_EEEEE8max_sizeERKSI_
FN:495,_ZNSt16allocator_traitsISaIPN5Catch16TestCaseTracking8ITrackerEEE8max_sizeERKS4_
FN:495,_ZNSt16allocator_traitsISaISt10shared_ptrIN5Catch16TestCaseTracking8ITrackerEEEE8max_sizeERKS5_
FN:495,_ZNSt16allocator_traitsISaIN5Catch14SectionEndInfoEEE8max_sizeERKS2_
FN:495,_ZNSt16allocator_traitsISaIN5Catch5clara6detail11HelpColumnsEEE8max_sizeERKS4_
FN:495,_ZNSt16allocator_traitsISaISt10unique_ptrIN5Catch6Detail8EnumInfoESt14default_deleteIS3_EEEE8max_sizeERKS7_
FN:495,_ZNSt16allocator_traitsISaIN5Catch5clara6detail5TokenEEE8max_sizeERKS4_
FN:504,_ZNSt16allocator_traitsISaIN5Catch5clara6detail5TokenEEE37select_on_container_copy_constructionERKS4_
FN:504,_ZNSt16allocator_traitsISaIcEE37select_on_container_copy_constructionERKS0_
FN:504,_ZNSt16allocator_traitsISaIPKN5Catch8TestCaseEEE37select_on_container_copy_constructionERKS4_
FN:504,_ZNSt16allocator_traitsISaINSt7__cxx1112regex_traitsIcE10_RegexMaskEEE37select_on_container_copy_constructionERKS4_
FN:504,_ZNSt16allocator_traitsISaISt10shared_ptrIN5Catch8TestSpec7PatternEEEE37select_on_container_copy_constructionERKS5_
FN:504,_ZNSt16allocator_traitsISaIN5Catch5clara6detail3OptEEE37select_on_container_copy_constructionERKS4_
FN:504,_ZNSt16allocator_traitsISaISt4pairIccEEE37select_on_container_copy_constructionERKS2_
FN:504,_ZNSt16allocator_traitsISaIN5Catch8TestCaseEEE37select_on_container_copy_constructionERKS2_
FN:504,_ZNSt16allocator_traitsISaINSt7__cxx1112basic_stringIcSt11char_traitsIcESaIcEEEEE37select_on_container_copy_constructionERKS6_
FN:504,_ZNSt16allocator_traitsISaISt4pairINSt7__cxx1112basic_stringIcSt11char_traitsIcESaIcEEES6_EEE37select_on_container_copy_constructionERKS8_
FN:504,_ZNSt16allocator_traitsISaINSt7__cxx119sub_matchIN9__gnu_cxx17__normal_iteratorIPKcNS0_12basic_stringIcSt11char_traitsIcESaIcEEEEEEEEE37select_on_container_copy_constructionERKSD_
FN:504,_ZNSt16allocator_traitsISaIN5Catch5clara8TextFlow6ColumnEEE37select_on_container_copy_constructionERKS4_
FN:504,_ZNSt16allocator_traitsISaIN5Catch11MessageInfoEEE37select_on_container_copy_constructionERKS2_
FN:504,_ZNSt16allocator_traitsISaIN5Catch8TestSpec6FilterEEE37select_on_container_copy_constructionERKS3_
FN:504,_ZNSt16allocator_traitsISaIN5Catch5clara6detail3ArgEEE37select_on_container_copy_constructionERKS4_
FN:516,_ZSt18__do_alloc_on_copyISaINSt7__cxx1112basic_stringIcSt11char_traitsIcESaIcEEEEEvRT_RKS7_St17integral_constantIbLb0EE
FN:516,_ZSt18__do_alloc_on_copyISaIN5Catch5clara6detail3ArgEEEvRT_RKS5_St17integral_constantIbLb0EE
FN:516,_ZSt18__do_alloc_on_copyISaINSt7__cxx119sub_matchIN9__gnu_cxx17__normal_iteratorIPKcNS0_12basic_stringIcSt11char_traitsIcESaIcEEEEEEEEEvRT_RKSE_St17integral_constantIbLb0EE
FN:516,_ZSt18__do_alloc_on_copyISaIN5Catch5clara6detail3OptEEEvRT_RKS5_St17integral_constantIbLb0EE
FN:520,_ZSt15__alloc_on_copyISaINSt7__cxx119sub_matchIN9__gnu_cxx17__normal_iteratorIPKcNS0_12basic_stringIcSt11char_traitsIcESaIcEEEEEEEEEvRT_RKSE_
FN:520,_ZSt15__alloc_on_copyISaIN5Catch5clara6detail3OptEEEvRT_RKS5_
FN:520,_ZSt15__alloc_on_copyISaIN5Catch5clara6detail3ArgEEEvRT_RKS5_
FN:520,_ZSt15__alloc_on_copyISaINSt7__cxx1112basic_stringIcSt11char_traitsIcESaIcEEEEEvRT_RKS7_
FN:535,_ZSt18__do_alloc_on_moveISaINSt7__cxx1112basic_stringIcSt11char_traitsIcESaIcEEEEEvRT_S8_St17integral_constantIbLb1EE
FN:535,_ZSt18__do_alloc_on_moveISaINSt7__cxx119sub_matchIN9__gnu_cxx17__normal_iteratorIPKcNS0_12basic_stringIcSt11char_traitsIcESaIcEEEEEEEEEvRT_SF_St17integral_constantIbLb1EE
FN:535,_ZSt18__do_alloc_on_moveISaIN5Catch5clara6detail3OptEEEvRT_S6_St17integral_constantIbLb1EE
FN:535,_ZSt18__do_alloc_on_moveISaIN5Catch8TestCaseEEEvRT_S4_St17integral_constantIbLb1EE
FN:535,_ZSt18__do_alloc_on_moveISaIPKN5Catch8TestCaseEEEvRT_S6_St17integral_constantIbLb1EE
FN:535,_ZSt18__do_alloc_on_moveISaIN5Catch8TestSpec6FilterEEEvRT_S5_St17integral_constantIbLb1EE
FN:535,_ZSt18__do_alloc_on_moveISaIN5Catch8TestSpec11FilterMatchEEEvRT_S5_St17integral_constantIbLb1EE
FN:535,_ZSt18__do_alloc_on_moveISaIN5Catch5clara6detail3ArgEEEvRT_S6_St17integral_constantIbLb1EE
FN:535,_ZSt18__do_alloc_on_moveISaISt10shared_ptrIN5Catch8TestSpec7PatternEEEEvRT_S7_St17integral_constantIbLb1EE
FN:543,_ZSt15__alloc_on_moveISaISt10shared_ptrIN5Catch8TestSpec7PatternEEEEvRT_S7_
FN:543,_ZSt15__alloc_on_moveISaIN5Catch5clara6detail3OptEEEvRT_S6_
FN:543,_ZSt15__alloc_on_moveISaINSt7__cxx119sub_matchIN9__gnu_cxx17__normal_iteratorIPKcNS0_12basic_stringIcSt11char_traitsIcESaIcEEEEEEEEEvRT_SF_
FN:543,_ZSt15__alloc_on_moveISaINSt7__cxx1112basic_stringIcSt11char_traitsIcESaIcEEEEEvRT_S8_
FN:543,_ZSt15__alloc_on_moveISaIPKN5Catch8TestCaseEEEvRT_S6_
FN:543,_ZSt15__alloc_on_moveISaIN5Catch5clara6detail3ArgEEEvRT_S6_
FN:543,_ZSt15__alloc_on_moveISaIN5Catch8TestSpec6FilterEEEvRT_S5_
FN:543,_ZSt15__alloc_on_moveISaIN5Catch8TestCaseEEEvRT_S4_
FN:543,_ZSt15__alloc_on_moveISaIN5Catch8TestSpec11FilterMatchEEEvRT_S5_
FN:558,_ZSt18__do_alloc_on_swapISaISt10shared_ptrIN5Catch22CumulativeReporterBaseINS1_13JunitReporterEE4NodeINS1_13TestCaseStatsENS4_11SectionNodeEEEEEEvRT_SC_St17integral_constantIbLb0EE
FN:558,_ZSt18__do_alloc_on_swapISaISt10shared_ptrIN5Catch22CumulativeReporterBaseINS1_13JunitReporterEE4NodeINS1_14TestGroupStatsENS5_INS1_13TestCaseStatsENS4_11SectionNodeEEEEEEEEvRT_SE_St17integral_constantIbLb0EE
FN:562,_ZSt15__alloc_on_swapISaISt10shared_ptrIN5Catch22CumulativeReporterBaseINS1_13JunitReporterEE4NodeINS1_14TestGroupStatsENS5_INS1_13TestCaseStatsENS4_11SectionNodeEEEEEEEEvRT_SE_
FN:562,_ZSt15__alloc_on_swapISaISt10shared_ptrIN5Catch22CumulativeReporterBaseINS1_13JunitReporterEE4NodeINS1_13TestCaseStatsENS4_11SectionNodeEEEEEEvRT_SC_
FNDA:0,_ZNSt16allocator_traitsISaISt23_Sp_counted_ptr_inplaceIN5Catch22CumulativeReporterBaseINS1_13JunitReporterEE4NodeINS1_12TestRunStatsENS5_INS1_14TestGroupStatsENS5_INS1_13TestCaseStatsENS4_11SectionNodeEEEEEEESaISC_ELN9__gnu_cxx12_Lock_policyE2EEEE8allocateERSH_m
FNDA:0,_ZNSt16allocator_traitsISaISt23_Sp_counted_ptr_inplaceIN5Catch22CumulativeReporterBaseINS1_13JunitReporterEE11SectionNodeESaIS5_ELN9__gnu_cxx12_Lock_policyE2EEEE8allocateERSA_m
FNDA:0,_ZNSt16allocator_traitsISaISt10shared_ptrIN5Catch22CumulativeReporterBaseINS1_13JunitReporterEE4NodeINS1_12TestRunStatsENS5_INS1_14TestGroupStatsENS5_INS1_13TestCaseStatsENS4_11SectionNodeEEEEEEEEEE8allocateERSE_m
FNDA:0,_ZNSt16allocator_traitsISaISt4pairINSt7__cxx1112basic_stringIcSt11char_traitsIcESaIcEEES6_EEE8allocateERS8_m
FNDA:0,_ZNSt16allocator_traitsISaISt4pairIccEEE8allocateERS2_m
FNDA:0,_ZNSt16allocator_traitsISaIPlEE8allocateERS1_m
FNDA:0,_ZNSt16allocator_traitsISaISt13_Rb_tree_nodeISt4pairIKllEEEE8allocateERS5_m
FNDA:0,_ZNSt16allocator_traitsISaINSt7__cxx1112regex_traitsIcE10_RegexMaskEEE8allocateERS4_m
FNDA:0,_ZNSt16allocator_traitsISaIlEE8allocateERS0_m
FNDA:0,_ZNSt16allocator_traitsISaISt4pairIlSt6vectorINSt7__cxx119sub_matchIN9__gnu_cxx17__normal_iteratorIPKcNS2_12basic_stringIcSt11char_traitsIcESaIcEEEEEEESaISE_EEEEE8allocateERSI_m
FNDA:0,_ZNSt16allocator_traitsISaINSt8__detail6_StateIcEEEE8allocateERS3_m
FNDA:0,_ZNSt16allocator_traitsISaINSt8__detail9_StateSeqINSt7__cxx1112regex_traitsIcEEEEEE8allocateERS6_m
FNDA:0,_ZNSt16allocator_traitsISaISt23_Sp_counted_ptr_inplaceINSt8__detail4_NFAINSt7__cxx1112regex_traitsIcEEEESaIS6_ELN9__gnu_cxx12_Lock_policyE2EEEE8allocateERSB_m
FNDA:0,_ZNSt16allocator_traitsISaIPNSt8__detail9_StateSeqINSt7__cxx1112regex_traitsIcEEEEEE8allocateERS7_m
FNDA:0,_ZNSt16allocator_traitsISaISt4pairIN9__gnu_cxx17__normal_iteratorIPKcNSt7__cxx1112basic_stringIcSt11char_traitsIcESaIcEEEEEiEEE8allocateERSD_m
FNDA:0,_ZNSt16allocator_traitsISaINSt7__cxx119sub_matchIN9__gnu_cxx17__normal_iteratorIPKcNS0_12basic_stringIcSt11char_traitsIcESaIcEEEEEEEEE8allocateERSD_m
FNDA:49,_ZNSt16allocator_traitsISaISt23_Sp_counted_ptr_inplaceIN5Catch5clara6detail13BoundValueRefIdEESaIS5_ELN9__gnu_cxx12_Lock_policyE2EEEE8allocateERSA_m
FNDA:98,_ZNSt16allocator_traitsISaISt23_Sp_counted_ptr_inplaceIN5Catch5clara6detail13BoundValueRefIjEESaIS5_ELN9__gnu_cxx12_Lock_policyE2EEEE8allocateERSA_m
FNDA:49,_ZNSt16allocator_traitsISaISt23_Sp_counted_ptr_inplaceIN5Catch5clara6detail11BoundLambdaIZNS1_21makeCommandLineParserERNS1_10ConfigDataEEUlRKNSt7__cxx1112basic_stringIcSt11char_traitsIcESaIcEEEE4_EESaISG_ELN9__gnu_cxx12_Lock_policyE2EEEE8allocateERSL_m
FNDA:49,_ZNSt16allocator_traitsISaISt23_Sp_counted_ptr_inplaceIN5Catch5clara6detail11BoundLambdaIZNS1_21makeCommandLineParserERNS1_10ConfigDataEEUlRKNSt7__cxx1112basic_stringIcSt11char_traitsIcESaIcEEEE3_EESaISG_ELN9__gnu_cxx12_Lock_policyE2EEEE8allocateERSL_m
FNDA:49,_ZNSt16allocator_traitsISaISt23_Sp_counted_ptr_inplaceIN5Catch5clara6detail11BoundLambdaIZNS1_21makeCommandLineParserERNS1_10ConfigDataEEUlRKNSt7__cxx1112basic_stringIcSt11char_traitsIcESaIcEEEE2_EESaISG_ELN9__gnu_cxx12_Lock_policyE2EEEE8allocateERSL_m
FNDA:49,_ZNSt16allocator_traitsISaISt23_Sp_counted_ptr_inplaceIN5Catch5clara6detail11BoundLambdaIZNS1_21makeCommandLineParserERNS1_10ConfigDataEEUlRKNSt7__cxx1112basic_stringIcSt11char_traitsIcESaIcEEEE1_EESaISG_ELN9__gnu_cxx12_Lock_policyE2EEEE8allocateERSL_m
FNDA:49,_ZNSt16allocator_traitsISaISt23_Sp_counted_ptr_inplaceIN5Catch5clara6detail11BoundLambdaIZNS1_21makeCommandLineParserERNS1_10ConfigDataEEUlRKNSt7__cxx1112basic_stringIcSt11char_traitsIcESaIcEEEE5_EESaISG_ELN9__gnu_cxx12_Lock_policyE2EEEE8allocateERSL_m
FNDA:49,_ZNSt16allocator_traitsISaISt23_Sp_counted_ptr_inplaceIN5Catch5clara6detail11BoundLambdaIZNS1_21makeCommandLineParserERNS1_10ConfigDataEEUlRKNSt7__cxx1112basic_stringIcSt11char_traitsIcESaIcEEEE0_EESaISG_ELN9__gnu_cxx12_Lock_policyE2EEEE8allocateERSL_m
FNDA:49,_ZNSt16allocator_traitsISaISt23_Sp_counted_ptr_inplaceIN5Catch5clara6detail11BoundLambdaIZNS1_21makeCommandLineParserERNS1_10ConfigDataEEUlbE9_EESaIS8_ELN9__gnu_cxx12_Lock_policyE2EEEE8allocateERSD_m
FNDA:49,_ZNSt16allocator_traitsISaISt23_Sp_counted_ptr_inplaceIN5Catch5clara6detail11BoundLambdaIZNS1_21makeCommandLineParserERNS1_10ConfigDataEEUlRKNSt7__cxx1112basic_stringIcSt11char_traitsIcESaIcEEEE_EESaISG_ELN9__gnu_cxx12_Lock_policyE2EEEE8allocateERSL_m
FNDA:49,_ZNSt16allocator_traitsISaISt23_Sp_counted_ptr_inplaceIN5Catch5clara6detail11BoundLambdaIZNS1_21makeCommandLineParserERNS1_10ConfigDataEEUliE8_EESaIS8_ELN9__gnu_cxx12_Lock_policyE2EEEE8allocateERSD_m
FNDA:49,_ZNSt16allocator_traitsISaISt23_Sp_counted_ptr_inplaceIN5Catch5clara6detail11BoundLambdaIZNS1_21makeCommandLineParserERNS1_10ConfigDataEEUlRKNSt7__cxx1112basic_stringIcSt11char_traitsIcESaIcEEEE6_EESaISG_ELN9__gnu_cxx12_Lock_policyE2EEEE8allocateERSL_m
FNDA:49,_ZNSt16allocator_traitsISaISt23_Sp_counted_ptr_inplaceIN5Catch17ReporterRegistrarINS1_11XmlReporterEE15ReporterFactoryESaIS5_ELN9__gnu_cxx12_Lock_policyE2EEEE8allocateERSA_m
FNDA:49,_ZNSt16allocator_traitsISaISt23_Sp_counted_ptr_inplaceIN5Catch17ReporterRegistrarINS1_13JunitReporterEE15ReporterFactoryESaIS5_ELN9__gnu_cxx12_Lock_policyE2EEEE8allocateERSA_m
FNDA:0,_ZNSt16allocator_traitsISaISt23_Sp_counted_ptr_inplaceIN5Catch22CumulativeReporterBaseINS1_13JunitReporterEE4NodeINS1_14TestGroupStatsENS5_INS1_13TestCaseStatsENS4_11SectionNodeEEEEESaISA_ELN9__gnu_cxx12_Lock_policyE2EEEE8allocateERSF_m
FNDA:0,_ZNSt16allocator_traitsISaISt23_Sp_counted_ptr_inplaceIN5Catch22CumulativeReporterBaseINS1_13JunitReporterEE4NodeINS1_13TestCaseStatsENS4_11SectionNodeEEESaIS8_ELN9__gnu_cxx12_Lock_policyE2EEEE8allocateERSD_m
FNDA:49,_ZNSt16allocator_traitsISaISt23_Sp_counted_ptr_inplaceIN5Catch17ReporterRegistrarINS1_15ConsoleReporterEE15ReporterFactoryESaIS5_ELN9__gnu_cxx12_Lock_policyE2EEEE8allocateERSA_m
FNDA:49,_ZNSt16allocator_traitsISaISt23_Sp_counted_ptr_inplaceIN5Catch17ReporterRegistrarINS1_15CompactReporterEE15ReporterFactoryESaIS5_ELN9__gnu_cxx12_Lock_policyE2EEEE8allocateERSA_m
FNDA:29,_ZNSt16allocator_traitsISaISt13_Rb_tree_nodeIN5Catch9VerbosityEEEE8allocateERS4_m
FNDA:98,_ZNSt16allocator_traitsISaISt23_Sp_counted_ptr_inplaceIN5Catch5clara6detail13BoundValueRefISt6vectorINSt7__cxx1112basic_stringIcSt11char_traitsIcESaIcEEESaISB_EEEESaISE_ELN9__gnu_cxx12_Lock_policyE2EEEE8allocateERSJ_m
FNDA:49,_ZNSt16allocator_traitsISaISt23_Sp_counted_ptr_inplaceIN5Catch5clara6detail15BoundFlagLambdaIZNS1_21makeCommandLineParserERNS1_10ConfigDataEEUlbE7_EESaIS8_ELN9__gnu_cxx12_Lock_policyE2EEEE8allocateERSD_m
FNDA:49,_ZNSt16allocator_traitsISaISt23_Sp_counted_ptr_inplaceIN5Catch5clara6detail15BoundFlagLambdaIZNS3_4HelpC4ERbEUlbE_EESaIS8_ELN9__gnu_cxx12_Lock_policyE2EEEE8allocateERSD_m
FNDA:14,_ZNSt16allocator_traitsISaISt23_Sp_counted_ptr_inplaceIN5Catch8TestSpec10TagPatternESaIS3_ELN9__gnu_cxx12_Lock_policyE2EEEE8allocateERS8_m
FNDA:0,_ZNSt16allocator_traitsISaISt23_Sp_counted_ptr_inplaceIN5Catch8TestSpec15ExcludedPatternESaIS3_ELN9__gnu_cxx12_Lock_policyE2EEEE8allocateERS8_m
FNDA:22,_ZNSt16allocator_traitsISaISt23_Sp_counted_ptr_inplaceIN5Catch8TestSpec11NamePatternESaIS3_ELN9__gnu_cxx12_Lock_policyE2EEEE8allocateERS8_m
FNDA:754,_ZNSt16allocator_traitsISaISt23_Sp_counted_ptr_inplaceIN5Catch16TestCaseTracking14SectionTrackerESaIS3_ELN9__gnu_cxx12_Lock_policyE2EEEE8allocateERS8_m
FNDA:318,_ZNSt16allocator_traitsISaISt13_Rb_tree_nodeIN5Catch8TestCaseEEEE8allocateERS4_m
FNDA:43,_ZNSt16allocator_traitsISaISt23_Sp_counted_ptr_inplaceIN5Catch6ConfigESaIS2_ELN9__gnu_cxx12_Lock_policyE2EEEE8allocateERS7_m
FNDA:21,_ZNSt16allocator_traitsISaISt23_Sp_counted_ptr_inplaceIN5Catch10Generators16GeneratorTrackerESaIS3_ELN9__gnu_cxx12_Lock_policyE2EEEE8allocateERS8_m
FNDA:0,_ZNSt16allocator_traitsISaISt13_Rb_tree_nodeINSt7__cxx1112basic_stringIcSt11char_traitsIcESaIcEEEEEE8allocateERS8_m
FNDA:539,_ZNSt16allocator_traitsISaISt23_Sp_counted_ptr_inplaceIN5Catch5clara6detail12BoundFlagRefESaIS4_ELN9__gnu_cxx12_Lock_policyE2EEEE8allocateERS9_m
FNDA:147,_ZNSt16allocator_traitsISaISt23_Sp_counted_ptr_inplaceIN5Catch5clara6detail13BoundValueRefINSt7__cxx1112basic_stringIcSt11char_traitsIcESaIcEEEEESaISB_ELN9__gnu_cxx12_Lock_policyE2EEEE8allocateERSG_m
FNDA:147,_ZNSt16allocator_traitsISaISt23_Sp_counted_ptr_inplaceINSt7__cxx1112basic_stringIcSt11char_traitsIcESaIcEEESaIS6_ELN9__gnu_cxx12_Lock_policyE2EEEE8allocateERSB_m
FNDA:0,_ZNSt16allocator_traitsISaIPcEE8allocateERS1_m
FNDA:0,_ZNSt16allocator_traitsISaISt10unique_ptrIN5Catch18IStreamingReporterESt14default_deleteIS2_EEEE8allocateERS6_m
FNDA:0,_ZNSt16allocator_traitsISaISt10shared_ptrIN5Catch22CumulativeReporterBaseINS1_13JunitReporterEE4NodeINS1_14TestGroupStatsENS5_INS1_13TestCaseStatsENS4_11SectionNodeEEEEEEEE8allocateERSC_m
FNDA:0,_ZNSt16allocator_traitsISaISt10shared_ptrIN5Catch22CumulativeReporterBaseINS1_13JunitReporterEE4NodeINS1_13TestCaseStatsENS4_11SectionNodeEEEEEE8allocateERSA_m
FNDA:0,_ZNSt16allocator_traitsISaISt10shared_ptrIN5Catch22CumulativeReporterBaseINS1_13JunitReporterEE11SectionNodeEEEE8allocateERS7_m
FNDA:0,_ZNSt16allocator_traitsISaIN5Catch14AssertionStatsEEE8allocateERS2_m
FNDA:9,_ZNSt16allocator_traitsISaIN5Catch13SummaryColumnEEE8allocateERS2_m
FNDA:50,_ZNSt16allocator_traitsISaIN5Catch11SectionInfoEEE8allocateERS2_m
FNDA:8,_ZNSt16allocator_traitsISaIN5Catch8TestSpec11FilterMatchEEE8allocateERS3_m
FNDA:0,_ZNSt16allocator_traitsISaISt13_Rb_tree_nodeISt4pairIKNSt7__cxx1112basic_stringIcSt11char_traitsIcESaIcEEEN5Catch8TagAliasEEEEE8allocateERSD_m
FNDA:88,_ZNSt16allocator_traitsISaISt10unique_ptrINSt7__cxx1119basic_ostringstreamIcSt11char_traitsIcESaIcEEESt14default_deleteIS6_EEEE8allocateERSA_m
FNDA:167,_ZNSt16allocator_traitsISaISt13_Rb_tree_nodeIPKN5Catch8TestCaseEEEE8allocateERS6_m
FNDA:21,_ZNSt16allocator_traitsISaIPN5Catch16TestCaseTracking8ITrackerEEE8allocateERS4_m
FNDA:196,_ZNSt16allocator_traitsISaISt13_Rb_tree_nodeISt4pairIKNSt7__cxx1112basic_stringIcSt11char_traitsIcESaIcEEESt10shared_ptrIN5Catch16IReporterFactoryEEEEEE8allocateERSF_m
FNDA:0,_ZNSt16allocator_traitsISaISt13_Rb_tree_nodeISt4pairIKNSt7__cxx1112basic_stringIcSt11char_traitsIcESaIcEEEN5Catch7TagInfoEEEEE8allocateERSD_m
FNDA:0,_ZNSt16allocator_traitsISaISt10unique_ptrIKN5Catch20IExceptionTranslatorESt14default_deleteIS3_EEEE8allocateERS7_m
FNDA:0,_ZNSt16allocator_traitsISaISt10unique_ptrIN5Catch6Detail8EnumInfoESt14default_deleteIS3_EEEE8allocateERS7_m
FNDA:4,_ZNSt16allocator_traitsISaIN5Catch12_GLOBAL__N_110ColumnInfoEEE8allocateERS3_m
FNDA:136,_ZNSt16allocator_traitsISaISt10shared_ptrIN5Catch8TestSpec7PatternEEEE8allocateERS5_m
FNDA:72,_ZNSt16allocator_traitsISaIN5Catch8TestSpec6FilterEEE8allocateERS3_m
FNDA:16,_ZNSt16allocator_traitsISaIPKN5Catch8TestCaseEEE8allocateERS4_m
FNDA:251,_ZNSt16allocator_traitsISaISt10shared_ptrIN5Catch16TestCaseTracking8ITrackerEEEE8allocateERS5_m
FNDA:253,_ZNSt16allocator_traitsISaIN5Catch8TestCaseEEE8allocateERS2_m
FNDA:88,_ZNSt16allocator_traitsISaImEE8allocateERS0_m
FNDA:0,_ZNSt16allocator_traitsISaINSt15__exception_ptr13exception_ptrEEE8allocateERS2_m
FNDA:91,_ZNSt16allocator_traitsISaIPN5Catch10ISingletonEEE8allocateERS3_m
FNDA:0,_ZNSt16allocator_traitsISaIN5Catch13ScopedMessageEEE8allocateERS2_m
FNDA:0,_ZNSt16allocator_traitsISaIN5Catch14SectionEndInfoEEE8allocateERS2_m
FNDA:0,_ZNSt16allocator_traitsISaISt10shared_ptrIN5Catch16IReporterFactoryEEEE8allocateERS4_m
FNDA:0,_ZNSt16allocator_traitsISaIN5Catch11MessageInfoEEE8allocateERS2_m
FNDA:0,_ZNSt16allocator_traitsISaISt4pairIiN5Catch9StringRefEEEE8allocateERS4_m
FNDA:0,_ZNSt16allocator_traitsISaIN5Catch9StringRefEEE8allocateERS2_m
FNDA:4312,_ZNSt16allocator_traitsISaIN5Catch5clara6detail3OptEEE8allocateERS4_m
FNDA:98,_ZNSt16allocator_traitsISaIN5Catch5clara6detail3ArgEEE8allocateERS4_m
FNDA:210,_ZNSt16allocator_traitsISaIN5Catch5clara6detail11HelpColumnsEEE8allocateERS4_m
FNDA:9094,_ZNSt16allocator_traitsISaIN5Catch5clara6detail5TokenEEE8allocateERS4_m
FNDA:696,_ZNSt16allocator_traitsISaIN5Catch5clara8TextFlow6ColumnEEE8allocateERS4_m
FNDA:348,_ZNSt16allocator_traitsISaIN5Catch5clara8TextFlow6Column8iteratorEEE8allocateERS5_m
FNDA:53854,_ZNSt16allocator_traitsISaINSt7__cxx1112basic_stringIcSt11char_traitsIcESaIcEEEEE8allocateERS6_m
FNDA:0,_ZNSt16allocator_traitsISaIcEE8allocateERS0_m
FNDA:0,_ZNSt16allocator_traitsISaISt23_Sp_counted_ptr_inplaceIN5Catch22CumulativeReporterBaseINS1_13JunitReporterEE4NodeINS1_12TestRunStatsENS5_INS1_14TestGroupStatsENS5_INS1_13TestCaseStatsENS4_11SectionNodeEEEEEEESaISC_ELN9__gnu_cxx12_Lock_policyE2EEEE10deallocateERSH_PSG_m
FNDA:0,_ZNSt16allocator_traitsISaISt23_Sp_counted_ptr_inplaceIN5Catch22CumulativeReporterBaseINS1_13JunitReporterEE11SectionNodeESaIS5_ELN9__gnu_cxx12_Lock_policyE2EEEE10deallocateERSA_PS9_m
FNDA:0,_ZNSt16allocator_traitsISaISt13_Rb_tree_nodeISt4pairIKllEEEE10deallocateERS5_PS4_m
FNDA:0,_ZNSt16allocator_traitsISaIlEE10deallocateERS0_Plm
FNDA:0,_ZNSt16allocator_traitsISaISt4pairINSt7__cxx1112basic_stringIcSt11char_traitsIcESaIcEEES6_EEE10deallocateERS8_PS7_m
FNDA:0,_ZNSt16allocator_traitsISaINSt7__cxx1112regex_traitsIcE10_RegexMaskEEE10deallocateERS4_PS3_m
FNDA:0,_ZNSt16allocator_traitsISaISt4pairIccEEE10deallocateERS2_PS1_m
FNDA:0,_ZNSt16allocator_traitsISaIPlEE10deallocateERS1_PS0_m
FNDA:0,_ZNSt16allocator_traitsISaINSt8__detail6_StateIcEEEE10deallocateERS3_PS2_m
FNDA:0,_ZNSt16allocator_traitsISaISt23_Sp_counted_ptr_inplaceINSt8__detail4_NFAINSt7__cxx1112regex_traitsIcEEEESaIS6_ELN9__gnu_cxx12_Lock_policyE2EEEE10deallocateERSB_PSA_m
FNDA:0,_ZNSt16allocator_traitsISaINSt8__detail9_StateSeqINSt7__cxx1112regex_traitsIcEEEEEE10deallocateERS6_PS5_m
FNDA:49,_ZNSt16allocator_traitsISaISt23_Sp_counted_ptr_inplaceIN5Catch5clara6detail13BoundValueRefIdEESaIS5_ELN9__gnu_cxx12_Lock_policyE2EEEE10deallocateERSA_PS9_m
FNDA:98,_ZNSt16allocator_traitsISaISt23_Sp_counted_ptr_inplaceIN5Catch5clara6detail13BoundValueRefIjEESaIS5_ELN9__gnu_cxx12_Lock_policyE2EEEE10deallocateERSA_PS9_m
FNDA:49,_ZNSt16allocator_traitsISaISt23_Sp_counted_ptr_inplaceIN5Catch5clara6detail11BoundLambdaIZNS1_21makeCommandLineParserERNS1_10ConfigDataEEUlRKNSt7__cxx1112basic_stringIcSt11char_traitsIcESaIcEEEE4_EESaISG_ELN9__gnu_cxx12_Lock_policyE2EEEE10deallocateERSL_PSK_m
FNDA:49,_ZNSt16allocator_traitsISaISt23_Sp_counted_ptr_inplaceIN5Catch5clara6detail11BoundLambdaIZNS1_21makeCommandLineParserERNS1_10ConfigDataEEUlRKNSt7__cxx1112basic_stringIcSt11char_traitsIcESaIcEEEE3_EESaISG_ELN9__gnu_cxx12_Lock_policyE2EEEE10deallocateERSL_PSK_m
FNDA:49,_ZNSt16allocator_traitsISaISt23_Sp_counted_ptr_inplaceIN5Catch5clara6detail11BoundLambdaIZNS1_21makeCommandLineParserERNS1_10ConfigDataEEUlRKNSt7__cxx1112basic_stringIcSt11char_traitsIcESaIcEEEE2_EESaISG_ELN9__gnu_cxx12_Lock_policyE2EEEE10deallocateERSL_PSK_m
FNDA:49,_ZNSt16allocator_traitsISaISt23_Sp_counted_ptr_inplaceIN5Catch5clara6detail11BoundLambdaIZNS1_21makeCommandLineParserERNS1_10ConfigDataEEUlRKNSt7__cxx1112basic_stringIcSt11char_traitsIcESaIcEEEE1_EESaISG_ELN9__gnu_cxx12_Lock_policyE2EEEE10deallocateERSL_PSK_m
FNDA:49,_ZNSt16allocator_traitsISaISt23_Sp_counted_ptr_inplaceIN5Catch5clara6detail11BoundLambdaIZNS1_21makeCommandLineParserERNS1_10ConfigDataEEUlRKNSt7__cxx1112basic_stringIcSt11char_traitsIcESaIcEEEE5_EESaISG_ELN9__gnu_cxx12_Lock_policyE2EEEE10deallocateERSL_PSK_m
FNDA:49,_ZNSt16allocator_traitsISaISt23_Sp_counted_ptr_inplaceIN5Catch5clara6detail11BoundLambdaIZNS1_21makeCommandLineParserERNS1_10ConfigDataEEUlRKNSt7__cxx1112basic_stringIcSt11char_traitsIcESaIcEEEE0_EESaISG_ELN9__gnu_cxx12_Lock_policyE2EEEE10deallocateERSL_PSK_m
FNDA:49,_ZNSt16allocator_traitsISaISt23_Sp_counted_ptr_inplaceIN5Catch5clara6detail11BoundLambdaIZNS1_21makeCommandLineParserERNS1_10ConfigDataEEUlbE9_EESaIS8_ELN9__gnu_cxx12_Lock_policyE2EEEE10deallocateERSD_PSC_m
FNDA:49,_ZNSt16allocator_traitsISaISt23_Sp_counted_ptr_inplaceIN5Catch5clara6detail11BoundLambdaIZNS1_21makeCommandLineParserERNS1_10ConfigDataEEUlRKNSt7__cxx1112basic_stringIcSt11char_traitsIcESaIcEEEE_EESaISG_ELN9__gnu_cxx12_Lock_policyE2EEEE10deallocateERSL_PSK_m
FNDA:49,_ZNSt16allocator_traitsISaISt23_Sp_counted_ptr_inplaceIN5Catch5clara6detail11BoundLambdaIZNS1_21makeCommandLineParserERNS1_10ConfigDataEEUliE8_EESaIS8_ELN9__gnu_cxx12_Lock_policyE2EEEE10deallocateERSD_PSC_m
FNDA:49,_ZNSt16allocator_traitsISaISt23_Sp_counted_ptr_inplaceIN5Catch5clara6detail11BoundLambdaIZNS1_21makeCommandLineParserERNS1_10ConfigDataEEUlRKNSt7__cxx1112basic_stringIcSt11char_traitsIcESaIcEEEE6_EESaISG_ELN9__gnu_cxx12_Lock_policyE2EEEE10deallocateERSL_PSK_m
FNDA:49,_ZNSt16allocator_traitsISaISt23_Sp_counted_ptr_inplaceIN5Catch17ReporterRegistrarINS1_11XmlReporterEE15ReporterFactoryESaIS5_ELN9__gnu_cxx12_Lock_policyE2EEEE10deallocateERSA_PS9_m
FNDA:49,_ZNSt16allocator_traitsISaISt23_Sp_counted_ptr_inplaceIN5Catch17ReporterRegistrarINS1_13JunitReporterEE15ReporterFactoryESaIS5_ELN9__gnu_cxx12_Lock_policyE2EEEE10deallocateERSA_PS9_m
FNDA:0,_ZNSt16allocator_traitsISaISt23_Sp_counted_ptr_inplaceIN5Catch22CumulativeReporterBaseINS1_13JunitReporterEE4NodeINS1_14TestGroupStatsENS5_INS1_13TestCaseStatsENS4_11SectionNodeEEEEESaISA_ELN9__gnu_cxx12_Lock_policyE2EEEE10deallocateERSF_PSE_m
FNDA:0,_ZNSt16allocator_traitsISaISt23_Sp_counted_ptr_inplaceIN5Catch22CumulativeReporterBaseINS1_13JunitReporterEE4NodeINS1_13TestCaseStatsENS4_11SectionNodeEEESaIS8_ELN9__gnu_cxx12_Lock_policyE2EEEE10deallocateERSD_PSC_m
FNDA:49,_ZNSt16allocator_traitsISaISt23_Sp_counted_ptr_inplaceIN5Catch17ReporterRegistrarINS1_15ConsoleReporterEE15ReporterFactoryESaIS5_ELN9__gnu_cxx12_Lock_policyE2EEEE10deallocateERSA_PS9_m
FNDA:49,_ZNSt16allocator_traitsISaISt23_Sp_counted_ptr_inplaceIN5Catch17ReporterRegistrarINS1_15CompactReporterEE15ReporterFactoryESaIS5_ELN9__gnu_cxx12_Lock_policyE2EEEE10deallocateERSA_PS9_m
FNDA:0,_ZNSt16allocator_traitsISaISt4pairIlSt6vectorINSt7__cxx119sub_matchIN9__gnu_cxx17__normal_iteratorIPKcNS2_12basic_stringIcSt11char_traitsIcESaIcEEEEEEESaISE_EEEEE10deallocateERSI_PSH_m
FNDA:0,_ZNSt16allocator_traitsISaISt4pairIN9__gnu_cxx17__normal_iteratorIPKcNSt7__cxx1112basic_stringIcSt11char_traitsIcESaIcEEEEEiEEE10deallocateERSD_PSC_m
FNDA:0,_ZNSt16allocator_traitsISaIPNSt8__detail9_StateSeqINSt7__cxx1112regex_traitsIcEEEEEE10deallocateERS7_PS6_m
FNDA:98,_ZNSt16allocator_traitsISaISt23_Sp_counted_ptr_inplaceIN5Catch5clara6detail13BoundValueRefISt6vectorINSt7__cxx1112basic_stringIcSt11char_traitsIcESaIcEEESaISB_EEEESaISE_ELN9__gnu_cxx12_Lock_policyE2EEEE10deallocateERSJ_PSI_m
FNDA:49,_ZNSt16allocator_traitsISaISt23_Sp_counted_ptr_inplaceIN5Catch5clara6detail15BoundFlagLambdaIZNS1_21makeCommandLineParserERNS1_10ConfigDataEEUlbE7_EESaIS8_ELN9__gnu_cxx12_Lock_policyE2EEEE10deallocateERSD_PSC_m
FNDA:49,_ZNSt16allocator_traitsISaISt23_Sp_counted_ptr_inplaceIN5Catch5clara6detail15BoundFlagLambdaIZNS3_4HelpC4ERbEUlbE_EESaIS8_ELN9__gnu_cxx12_Lock_policyE2EEEE10deallocateERSD_PSC_m
FNDA:14,_ZNSt16allocator_traitsISaISt23_Sp_counted_ptr_inplaceIN5Catch8TestSpec10TagPatternESaIS3_ELN9__gnu_cxx12_Lock_policyE2EEEE10deallocateERS8_PS7_m
FNDA:0,_ZNSt16allocator_traitsISaISt23_Sp_counted_ptr_inplaceIN5Catch8TestSpec15ExcludedPatternESaIS3_ELN9__gnu_cxx12_Lock_policyE2EEEE10deallocateERS8_PS7_m
FNDA:22,_ZNSt16allocator_traitsISaISt23_Sp_counted_ptr_inplaceIN5Catch8TestSpec11NamePatternESaIS3_ELN9__gnu_cxx12_Lock_policyE2EEEE10deallocateERS8_PS7_m
FNDA:754,_ZNSt16allocator_traitsISaISt23_Sp_counted_ptr_inplaceIN5Catch16TestCaseTracking14SectionTrackerESaIS3_ELN9__gnu_cxx12_Lock_policyE2EEEE10deallocateERS8_PS7_m
FNDA:43,_ZNSt16allocator_traitsISaISt23_Sp_counted_ptr_inplaceIN5Catch6ConfigESaIS2_ELN9__gnu_cxx12_Lock_policyE2EEEE10deallocateERS7_PS6_m
FNDA:21,_ZNSt16allocator_traitsISaISt23_Sp_counted_ptr_inplaceIN5Catch10Generators16GeneratorTrackerESaIS3_ELN9__gnu_cxx12_Lock_policyE2EEEE10deallocateERS8_PS7_m
FNDA:0,_ZNSt16allocator_traitsISaINSt7__cxx119sub_matchIN9__gnu_cxx17__normal_iteratorIPKcNS0_12basic_stringIcSt11char_traitsIcESaIcEEEEEEEEE10deallocateERSD_PSC_m
FNDA:539,_ZNSt16allocator_traitsISaISt23_Sp_counted_ptr_inplaceIN5Catch5clara6detail12BoundFlagRefESaIS4_ELN9__gnu_cxx12_Lock_policyE2EEEE10deallocateERS9_PS8_m
FNDA:147,_ZNSt16allocator_traitsISaISt23_Sp_counted_ptr_inplaceIN5Catch5clara6detail13BoundValueRefINSt7__cxx1112basic_stringIcSt11char_traitsIcESaIcEEEEESaISB_ELN9__gnu_cxx12_Lock_policyE2EEEE10deallocateERSG_PSF_m
FNDA:147,_ZNSt16allocator_traitsISaISt23_Sp_counted_ptr_inplaceINSt7__cxx1112basic_stringIcSt11char_traitsIcESaIcEEESaIS6_ELN9__gnu_cxx12_Lock_policyE2EEEE10deallocateERSB_PSA_m
FNDA:29,_ZNSt16allocator_traitsISaISt13_Rb_tree_nodeIN5Catch9VerbosityEEEE10deallocateERS4_PS3_m
FNDA:318,_ZNSt16allocator_traitsISaISt13_Rb_tree_nodeIN5Catch8TestCaseEEEE10deallocateERS4_PS3_m
FNDA:0,_ZNSt16allocator_traitsISaISt13_Rb_tree_nodeISt4pairIKNSt7__cxx1112basic_stringIcSt11char_traitsIcESaIcEEEN5Catch8TagAliasEEEEE10deallocateERSD_PSC_m
FNDA:88,_ZNSt16allocator_traitsISaISt10unique_ptrINSt7__cxx1119basic_ostringstreamIcSt11char_traitsIcESaIcEEESt14default_deleteIS6_EEEE10deallocateERSA_PS9_m
FNDA:167,_ZNSt16allocator_traitsISaISt13_Rb_tree_nodeIPKN5Catch8TestCaseEEEE10deallocateERS6_PS5_m
FNDA:196,_ZNSt16allocator_traitsISaISt13_Rb_tree_nodeISt4pairIKNSt7__cxx1112basic_stringIcSt11char_traitsIcESaIcEEESt10shared_ptrIN5Catch16IReporterFactoryEEEEEE10deallocateERSF_PSE_m
FNDA:0,_ZNSt16allocator_traitsISaISt13_Rb_tree_nodeINSt7__cxx1112basic_stringIcSt11char_traitsIcESaIcEEEEEE10deallocateERS8_PS7_m
FNDA:0,_ZNSt16allocator_traitsISaISt13_Rb_tree_nodeISt4pairIKNSt7__cxx1112basic_stringIcSt11char_traitsIcESaIcEEEN5Catch7TagInfoEEEEE10deallocateERSD_PSC_m
FNDA:0,_ZNSt16allocator_traitsISaISt10unique_ptrIN5Catch6Detail8EnumInfoESt14default_deleteIS3_EEEE10deallocateERS7_PS6_m
FNDA:0,_ZNSt16allocator_traitsISaISt10unique_ptrIN5Catch18IStreamingReporterESt14default_deleteIS2_EEEE10deallocateERS6_PS5_m
FNDA:0,_ZNSt16allocator_traitsISaISt10shared_ptrIN5Catch22CumulativeReporterBaseINS1_13JunitReporterEE11SectionNodeEEEE10deallocateERS7_PS6_m
FNDA:0,_ZNSt16allocator_traitsISaISt10shared_ptrIN5Catch22CumulativeReporterBaseINS1_13JunitReporterEE4NodeINS1_12TestRunStatsENS5_INS1_14TestGroupStatsENS5_INS1_13TestCaseStatsENS4_11SectionNodeEEEEEEEEEE10deallocateERSE_PSD_m
FNDA:0,_ZNSt16allocator_traitsISaISt10shared_ptrIN5Catch22CumulativeReporterBaseINS1_13JunitReporterEE4NodeINS1_14TestGroupStatsENS5_INS1_13TestCaseStatsENS4_11SectionNodeEEEEEEEE10deallocateERSC_PSB_m
FNDA:0,_ZNSt16allocator_traitsISaISt10shared_ptrIN5Catch22CumulativeReporterBaseINS1_13JunitReporterEE4NodeINS1_13TestCaseStatsENS4_11SectionNodeEEEEEE10deallocateERSA_PS9_m
FNDA:0,_ZNSt16allocator_traitsISaISt6vectorISt10shared_ptrIN5Catch22CumulativeReporterBaseINS2_13JunitReporterEE11SectionNodeEESaIS7_EEEE10deallocateERSA_PS9_m
FNDA:0,_ZNSt16allocator_traitsISaIN5Catch14AssertionStatsEEE10deallocateERS2_PS1_m
FNDA:9,_ZNSt16allocator_traitsISaIN5Catch13SummaryColumnEEE10deallocateERS2_PS1_m
FNDA:4,_ZNSt16allocator_traitsISaIN5Catch12_GLOBAL__N_110ColumnInfoEEE10deallocateERS3_PS2_m
FNDA:50,_ZNSt16allocator_traitsISaIN5Catch11SectionInfoEEE10deallocateERS2_PS1_m
FNDA:16,_ZNSt16allocator_traitsISaIPKN5Catch8TestCaseEEE10deallocateERS4_PS3_m
FNDA:0,_ZNSt16allocator_traitsISaINSt15__exception_ptr13exception_ptrEEE10deallocateERS2_PS1_m
FNDA:91,_ZNSt16allocator_traitsISaIPN5Catch10ISingletonEEE10deallocateERS3_PS2_m
FNDA:8,_ZNSt16allocator_traitsISaIN5Catch8TestSpec11FilterMatchEEE10deallocateERS3_PS2_m
FNDA:21,_ZNSt16allocator_traitsISaIPN5Catch16TestCaseTracking8ITrackerEEE10deallocateERS4_PS3_m
FNDA:0,_ZNSt16allocator_traitsISaIN5Catch14SectionEndInfoEEE10deallocateERS2_PS1_m
FNDA:0,_ZNSt16allocator_traitsISaIN5Catch13ScopedMessageEEE10deallocateERS2_PS1_m
FNDA:251,_ZNSt16allocator_traitsISaISt10shared_ptrIN5Catch16TestCaseTracking8ITrackerEEEE10deallocateERS5_PS4_m
FNDA:0,_ZNSt16allocator_traitsISaISt10shared_ptrIN5Catch16IReporterFactoryEEEE10deallocateERS4_PS3_m
FNDA:0,_ZNSt16allocator_traitsISaIPcEE10deallocateERS1_PS0_m
FNDA:0,_ZNSt16allocator_traitsISaIN5Catch11MessageInfoEEE10deallocateERS2_PS1_m
FNDA:0,_ZNSt16allocator_traitsISaISt10unique_ptrIKN5Catch20IExceptionTranslatorESt14default_deleteIS3_EEEE10deallocateERS7_PS6_m
FNDA:136,_ZNSt16allocator_traitsISaISt10shared_ptrIN5Catch8TestSpec7PatternEEEE10deallocateERS5_PS4_m
FNDA:88,_ZNSt16allocator_traitsISaImEE10deallocateERS0_Pmm
FNDA:72,_ZNSt16allocator_traitsISaIN5Catch8TestSpec6FilterEEE10deallocateERS3_PS2_m
FNDA:210,_ZNSt16allocator_traitsISaIN5Catch5clara6detail11HelpColumnsEEE10deallocateERS4_PS3_m
FNDA:9094,_ZNSt16allocator_traitsISaIN5Catch5clara6detail5TokenEEE10deallocateERS4_PS3_m
FNDA:696,_ZNSt16allocator_traitsISaIN5Catch5clara8TextFlow6ColumnEEE10deallocateERS4_PS3_m
FNDA:253,_ZNSt16allocator_traitsISaIN5Catch8TestCaseEEE10deallocateERS2_PS1_m
FNDA:98,_ZNSt16allocator_traitsISaIN5Catch5clara6detail3ArgEEE10deallocateERS4_PS3_m
FNDA:4312,_ZNSt16allocator_traitsISaIN5Catch5clara6detail3OptEEE10deallocateERS4_PS3_m
FNDA:53854,_ZNSt16allocator_traitsISaINSt7__cxx1112basic_stringIcSt11char_traitsIcESaIcEEEEE10deallocateERS6_PS5_m
FNDA:0,_ZNSt16allocator_traitsISaISt4pairIiN5Catch9StringRefEEEE10deallocateERS4_PS3_m
FNDA:0,_ZNSt16allocator_traitsISaIN5Catch9StringRefEEE10deallocateERS2_PS1_m
FNDA:348,_ZNSt16allocator_traitsISaIN5Catch5clara8TextFlow6Column8iteratorEEE10deallocateERS5_PS4_m
FNDA:0,_ZNSt16allocator_traitsISaIcEE10deallocateERS0_Pcm
FNDA:0,_ZNSt16allocator_traitsISaIN5Catch22CumulativeReporterBaseINS0_13JunitReporterEE4NodeINS0_12TestRunStatsENS4_INS0_14TestGroupStatsENS4_INS0_13TestCaseStatsENS3_11SectionNodeEEEEEEEEE9constructISB_JRKS5_EEEvRSC_PT_DpOT0_
FNDA:0,_ZNSt16allocator_traitsISaIN5Catch22CumulativeReporterBaseINS0_13JunitReporterEE11SectionNodeEEE9constructIS4_JRNS0_12SectionStatsEEEEvRS5_PT_DpOT0_
FNDA:0,_ZNSt16allocator_traitsISaISt10shared_ptrIN5Catch22CumulativeReporterBaseINS1_13JunitReporterEE4NodeINS1_12TestRunStatsENS5_INS1_14TestGroupStatsENS5_INS1_13TestCaseStatsENS4_11SectionNodeEEEEEEEEEE9constructISD_JRKSD_EEEvRSE_PT_DpOT0_
FNDA:0,_ZNSt16allocator_traitsISaISt4pairINSt7__cxx1112basic_stringIcSt11char_traitsIcESaIcEEES6_EEE9constructIS7_JS7_EEEvRS8_PT_DpOT0_
FNDA:0,_ZNSt16allocator_traitsISaISt4pairIccEEE9constructIS1_JS1_EEEvRS2_PT_DpOT0_
FNDA:0,_ZNSt16allocator_traitsISaISt13_Rb_tree_nodeISt4pairIKllEEEE9constructIS3_JRKSt21piecewise_construct_tSt5tupleIJRS2_EESB_IJEEEEEvRS5_PT_DpOT0_
FNDA:0,_ZNSt16allocator_traitsISaIcEE9constructIcJcEEEvRS0_PT_DpOT0_
FNDA:0,_ZNSt16allocator_traitsISaINSt7__cxx1112regex_traitsIcE10_RegexMaskEEE9constructIS3_JRKS3_EEEvRS4_PT_DpOT0_
FNDA:0,_ZNSt16allocator_traitsISaIlEE9constructIlJRKlEEEvRS0_PT_DpOT0_
FNDA:0,_ZNSt16allocator_traitsISaINSt8__detail4_NFAINSt7__cxx1112regex_traitsIcEEEEEE9constructIS5_JRKSt6localeRNSt15regex_constants18syntax_option_typeEEEEvRS6_PT_DpOT0_
FNDA:0,_ZNSt16allocator_traitsISaISt4pairIlSt6vectorINSt7__cxx119sub_matchIN9__gnu_cxx17__normal_iteratorIPKcNS2_12basic_stringIcSt11char_traitsIcESaIcEEEEEEESaISE_EEEEE9constructISH_JRlRKSG_EEEvRSI_PT_DpOT0_
FNDA:0,_ZNSt16allocator_traitsISaINSt8__detail9_StateSeqINSt7__cxx1112regex_traitsIcEEEEEE9constructIS5_JS5_EEEvRS6_PT_DpOT0_
FNDA:0,_ZNSt16allocator_traitsISaINSt8__detail9_StateSeqINSt7__cxx1112regex_traitsIcEEEEEE9constructIS5_JRKS5_EEEvRS6_PT_DpOT0_
FNDA:0,_ZNSt16allocator_traitsISaINSt8__detail6_StateIcEEEE9constructIS2_JS2_EEEvRS3_PT_DpOT0_
FNDA:49,_ZNSt16allocator_traitsISaIN5Catch5clara6detail13BoundValueRefIdEEEE9constructIS4_JRdEEEvRS5_PT_DpOT0_
FNDA:98,_ZNSt16allocator_traitsISaIN5Catch5clara6detail13BoundValueRefIjEEEE9constructIS4_JRjEEEvRS5_PT_DpOT0_
FNDA:49,_ZNSt16allocator_traitsISaIN5Catch5clara6detail11BoundLambdaIZNS0_21makeCommandLineParserERNS0_10ConfigDataEEUlRKNSt7__cxx1112basic_stringIcSt11char_traitsIcESaIcEEEE4_EEEE9constructISF_JRKSE_EEEvRSG_PT_DpOT0_
FNDA:49,_ZNSt16allocator_traitsISaIN5Catch5clara6detail11BoundLambdaIZNS0_21makeCommandLineParserERNS0_10ConfigDataEEUlRKNSt7__cxx1112basic_stringIcSt11char_traitsIcESaIcEEEE3_EEEE9constructISF_JRKSE_EEEvRSG_PT_DpOT0_
FNDA:49,_ZNSt16allocator_traitsISaIN5Catch5clara6detail11BoundLambdaIZNS0_21makeCommandLineParserERNS0_10ConfigDataEEUlRKNSt7__cxx1112basic_stringIcSt11char_traitsIcESaIcEEEE2_EEEE9constructISF_JRKSE_EEEvRSG_PT_DpOT0_
FNDA:49,_ZNSt16allocator_traitsISaIN5Catch5clara6detail11BoundLambdaIZNS0_21makeCommandLineParserERNS0_10ConfigDataEEUlRKNSt7__cxx1112basic_stringIcSt11char_traitsIcESaIcEEEE1_EEEE9constructISF_JRKSE_EEEvRSG_PT_DpOT0_
FNDA:49,_ZNSt16allocator_traitsISaIN5Catch5clara6detail11BoundLambdaIZNS0_21makeCommandLineParserERNS0_10ConfigDataEEUlRKNSt7__cxx1112basic_stringIcSt11char_traitsIcESaIcEEEE5_EEEE9constructISF_JRKSE_EEEvRSG_PT_DpOT0_
FNDA:49,_ZNSt16allocator_traitsISaIN5Catch5clara6detail11BoundLambdaIZNS0_21makeCommandLineParserERNS0_10ConfigDataEEUlRKNSt7__cxx1112basic_stringIcSt11char_traitsIcESaIcEEEE0_EEEE9constructISF_JRKSE_EEEvRSG_PT_DpOT0_
FNDA:49,_ZNSt16allocator_traitsISaIN5Catch5clara6detail11BoundLambdaIZNS0_21makeCommandLineParserERNS0_10ConfigDataEEUlbE9_EEEE9constructIS7_JRKS6_EEEvRS8_PT_DpOT0_
FNDA:49,_ZNSt16allocator_traitsISaIN5Catch5clara6detail11BoundLambdaIZNS0_21makeCommandLineParserERNS0_10ConfigDataEEUlRKNSt7__cxx1112basic_stringIcSt11char_traitsIcESaIcEEEE_EEEE9constructISF_JRKSE_EEEvRSG_PT_DpOT0_
FNDA:49,_ZNSt16allocator_traitsISaIN5Catch5clara6detail11BoundLambdaIZNS0_21makeCommandLineParserERNS0_10ConfigDataEEUliE8_EEEE9constructIS7_JRKS6_EEEvRS8_PT_DpOT0_
FNDA:49,_ZNSt16allocator_traitsISaIN5Catch5clara6detail11BoundLambdaIZNS0_21makeCommandLineParserERNS0_10ConfigDataEEUlRKNSt7__cxx1112basic_stringIcSt11char_traitsIcESaIcEEEE6_EEEE9constructISF_JRKSE_EEEvRSG_PT_DpOT0_
FNDA:49,_ZNSt16allocator_traitsISaIN5Catch17ReporterRegistrarINS0_11XmlReporterEE15ReporterFactoryEEE9constructIS4_JEEEvRS5_PT_DpOT0_
FNDA:49,_ZNSt16allocator_traitsISaIN5Catch17ReporterRegistrarINS0_13JunitReporterEE15ReporterFactoryEEE9constructIS4_JEEEvRS5_PT_DpOT0_
FNDA:0,_ZNSt16allocator_traitsISaIN5Catch22CumulativeReporterBaseINS0_13JunitReporterEE4NodeINS0_14TestGroupStatsENS4_INS0_13TestCaseStatsENS3_11SectionNodeEEEEEEE9constructIS9_JRKS5_EEEvRSA_PT_DpOT0_
FNDA:0,_ZNSt16allocator_traitsISaIN5Catch22CumulativeReporterBaseINS0_13JunitReporterEE4NodeINS0_13TestCaseStatsENS3_11SectionNodeEEEEE9constructIS7_JRKS5_EEEvRS8_PT_DpOT0_
FNDA:49,_ZNSt16allocator_traitsISaIN5Catch17ReporterRegistrarINS0_15ConsoleReporterEE15ReporterFactoryEEE9constructIS4_JEEEvRS5_PT_DpOT0_
FNDA:49,_ZNSt16allocator_traitsISaIN5Catch17ReporterRegistrarINS0_15CompactReporterEE15ReporterFactoryEEE9constructIS4_JEEEvRS5_PT_DpOT0_
FNDA:29,_ZNSt16allocator_traitsISaISt13_Rb_tree_nodeIN5Catch9VerbosityEEEE9constructIS2_JRKS2_EEEvRS4_PT_DpOT0_
FNDA:8,_ZNSt16allocator_traitsISaISt13_Rb_tree_nodeIPKN5Catch8TestCaseEEEE9constructIS4_JRKS4_EEEvRS6_PT_DpOT0_
FNDA:98,_ZNSt16allocator_traitsISaIN5Catch5clara6detail13BoundValueRefISt6vectorINSt7__cxx1112basic_stringIcSt11char_traitsIcESaIcEEESaISA_EEEEEE9constructISD_JRSC_EEEvRSE_PT_DpOT0_
FNDA:49,_ZNSt16allocator_traitsISaIN5Catch5clara6detail15BoundFlagLambdaIZNS0_21makeCommandLineParserERNS0_10ConfigDataEEUlbE7_EEEE9constructIS7_JRKS6_EEEvRS8_PT_DpOT0_
FNDA:49,_ZNSt16allocator_traitsISaIN5Catch5clara6detail15BoundFlagLambdaIZNS2_4HelpC4ERbEUlbE_EEEE9constructIS7_JRKS6_EEEvRS8_PT_DpOT0_
FNDA:14,_ZNSt16allocator_traitsISaIN5Catch8TestSpec10TagPatternEEE9constructIS2_JRNSt7__cxx1112basic_stringIcSt11char_traitsIcESaIcEEESC_EEEvRS3_PT_DpOT0_
FNDA:0,_ZNSt16allocator_traitsISaIN5Catch8TestSpec10TagPatternEEE9constructIS2_JRA2_KcRNSt7__cxx1112basic_stringIcSt11char_traitsIcESaIcEEEEEEvRS3_PT_DpOT0_
FNDA:0,_ZNSt16allocator_traitsISaIN5Catch8TestSpec15ExcludedPatternEEE9constructIS2_JRSt10shared_ptrINS1_7PatternEEEEEvRS3_PT_DpOT0_
FNDA:22,_ZNSt16allocator_traitsISaIN5Catch8TestSpec11NamePatternEEE9constructIS2_JRNSt7__cxx1112basic_stringIcSt11char_traitsIcESaIcEEESC_EEEvRS3_PT_DpOT0_
FNDA:587,_ZNSt16allocator_traitsISaIN5Catch16TestCaseTracking14SectionTrackerEEE9constructIS2_JRKNS1_15NameAndLocationERNS1_14TrackerContextEPNS1_8ITrackerEEEEvRS3_PT_DpOT0_
FNDA:167,_ZNSt16allocator_traitsISaIN5Catch16TestCaseTracking14SectionTrackerEEE9constructIS2_JNS1_15NameAndLocationERNS1_14TrackerContextEDnEEEvRS3_PT_DpOT0_
FNDA:318,_ZNSt16allocator_traitsISaISt13_Rb_tree_nodeIN5Catch8TestCaseEEEE9constructIS2_JRKS2_EEEvRS4_PT_DpOT0_
FNDA:43,_ZNSt16allocator_traitsISaIN5Catch6ConfigEEE9constructIS1_JRNS0_10ConfigDataEEEEvRS2_PT_DpOT0_
FNDA:21,_ZNSt16allocator_traitsISaIN5Catch10Generators16GeneratorTrackerEEE9constructIS2_JRKNS0_16TestCaseTracking15NameAndLocationERNS6_14TrackerContextEPNS6_8ITrackerEEEEvRS3_PT_DpOT0_
FNDA:0,_ZNSt16allocator_traitsISaISt13_Rb_tree_nodeINSt7__cxx1112basic_stringIcSt11char_traitsIcESaIcEEEEEE9constructIS6_JRKS6_EEEvRS8_PT_DpOT0_
FNDA:539,_ZNSt16allocator_traitsISaIN5Catch5clara6detail12BoundFlagRefEEE9constructIS3_JRbEEEvRS4_PT_DpOT0_
FNDA:147,_ZNSt16allocator_traitsISaIN5Catch5clara6detail13BoundValueRefINSt7__cxx1112basic_stringIcSt11char_traitsIcESaIcEEEEEEE9constructISA_JRS9_EEEvRSB_PT_DpOT0_
FNDA:147,_ZNSt16allocator_traitsISaINSt7__cxx1112basic_stringIcSt11char_traitsIcESaIcEEEEE9constructIS5_JRA13_KcEEEvRS6_PT_DpOT0_
FNDA:0,_ZNSt16allocator_traitsISaISt13_Rb_tree_nodeISt4pairIKNSt7__cxx1112basic_stringIcSt11char_traitsIcESaIcEEEN5Catch8TagAliasEEEEE9constructISB_JS1_IS7_SA_EEEEvRSD_PT_DpOT0_
FNDA:159,_ZNSt16allocator_traitsISaISt13_Rb_tree_nodeIPKN5Catch8TestCaseEEEE9constructIS4_JS4_EEEvRS6_PT_DpOT0_
FNDA:196,_ZNSt16allocator_traitsISaISt13_Rb_tree_nodeISt4pairIKNSt7__cxx1112basic_stringIcSt11char_traitsIcESaIcEEESt10shared_ptrIN5Catch16IReporterFactoryEEEEEE9constructISD_JRS8_RKSC_EEEvRSF_PT_DpOT0_
FNDA:0,_ZNSt16allocator_traitsISaISt13_Rb_tree_nodeISt4pairIKNSt7__cxx1112basic_stringIcSt11char_traitsIcESaIcEEEN5Catch7TagInfoEEEEE9constructISB_JS1_IS7_SA_EEEEvRSD_PT_DpOT0_
FNDA:0,_ZNSt16allocator_traitsISaISt10unique_ptrIN5Catch18IStreamingReporterESt14default_deleteIS2_EEEE9constructIS5_JS5_EEEvRS6_PT_DpOT0_
FNDA:0,_ZNSt16allocator_traitsISaISt10shared_ptrIN5Catch22CumulativeReporterBaseINS1_13JunitReporterEE4NodeINS1_14TestGroupStatsENS5_INS1_13TestCaseStatsENS4_11SectionNodeEEEEEEEE9constructISB_JRKSB_EEEvRSC_PT_DpOT0_
FNDA:0,_ZNSt16allocator_traitsISaISt10shared_ptrIN5Catch22CumulativeReporterBaseINS1_13JunitReporterEE4NodeINS1_13TestCaseStatsENS4_11SectionNodeEEEEEE9constructIS9_JRKS9_EEEvRSA_PT_DpOT0_
FNDA:0,_ZNSt16allocator_traitsISaISt10shared_ptrIN5Catch22CumulativeReporterBaseINS1_13JunitReporterEE11SectionNodeEEEE9constructIS6_JRKS6_EEEvRS7_PT_DpOT0_
FNDA:0,_ZNSt16allocator_traitsISaIN5Catch14AssertionStatsEEE9constructIS1_JRKS1_EEEvRS2_PT_DpOT0_
FNDA:12,_ZNSt16allocator_traitsISaIN5Catch13SummaryColumnEEE9constructIS1_JS1_EEEvRS2_PT_DpOT0_
FNDA:986,_ZNSt16allocator_traitsISaIN5Catch11SectionInfoEEE9constructIS1_JRKS1_EEEvRS2_PT_DpOT0_
FNDA:98,_ZNSt16allocator_traitsISaISt10unique_ptrINSt7__cxx1119basic_ostringstreamIcSt11char_traitsIcESaIcEEESt14default_deleteIS6_EEEE9constructIS9_JS9_EEEvRSA_PT_DpOT0_
FNDA:420,_ZNSt16allocator_traitsISaIPN5Catch16TestCaseTracking8ITrackerEEE9constructIS3_JS3_EEEvRS4_PT_DpOT0_
FNDA:0,_ZNSt16allocator_traitsISaIcEE9constructIcJRKcEEEvRS0_PT_DpOT0_
FNDA:0,_ZNSt16allocator_traitsISaISt10unique_ptrIKN5Catch20IExceptionTranslatorESt14default_deleteIS3_EEEE9constructIS6_JS6_EEEvRS7_PT_DpOT0_
FNDA:0,_ZNSt16allocator_traitsISaISt10unique_ptrIN5Catch6Detail8EnumInfoESt14default_deleteIS3_EEEE9constructIS6_JS6_EEEvRS7_PT_DpOT0_
FNDA:0,_ZNSt16allocator_traitsISaISt4pairIiN5Catch9StringRefEEEE9constructIS3_JS3_EEEvRS4_PT_DpOT0_
FNDA:0,_ZNSt16allocator_traitsISaIN5Catch9StringRefEEE9constructIS1_JS1_EEEvRS2_PT_DpOT0_
FNDA:0,_ZNSt16allocator_traitsISaINSt7__cxx1112basic_stringIcSt11char_traitsIcESaIcEEEEE9constructIS5_JS5_EEEvRS6_PT_DpOT0_
FNDA:198,_ZNSt16allocator_traitsISaIN5Catch5clara6detail5TokenEEE9constructIS3_JS3_EEEvRS4_PT_DpOT0_
FNDA:1044,_ZNSt16allocator_traitsISaIN5Catch5clara8TextFlow6Column8iteratorEEE9constructIS4_JS4_EEEvRS5_PT_DpOT0_
FNDA:36,_ZNSt16allocator_traitsISaISt10shared_ptrIN5Catch8TestSpec7PatternEEEE9constructIS4_JRKS4_EEEvRS5_PT_DpOT0_
FNDA:36,_ZNSt16allocator_traitsISaIN5Catch8TestSpec6FilterEEE9constructIS2_JRKS2_EEEvRS3_PT_DpOT0_
FNDA:8,_ZNSt16allocator_traitsISaIPKN5Catch8TestCaseEEE9constructIS3_JS3_EEEvRS4_PT_DpOT0_
FNDA:608,_ZNSt16allocator_traitsISaISt10shared_ptrIN5Catch16TestCaseTracking8ITrackerEEEE9constructIS4_JRKS4_EEEvRS5_PT_DpOT0_
FNDA:467,_ZNSt16allocator_traitsISaIN5Catch8TestCaseEEE9constructIS1_JRKS1_EEEvRS2_PT_DpOT0_
FNDA:3715,_ZNSt16allocator_traitsISaImEE9constructImJRKmEEEvRS0_PT_DpOT0_
FNDA:0,_ZNSt16allocator_traitsISaINSt15__exception_ptr13exception_ptrEEE9constructIS1_JRKS1_EEEvRS2_PT_DpOT0_
FNDA:91,_ZNSt16allocator_traitsISaIPN5Catch10ISingletonEEE9constructIS2_JRKS2_EEEvRS3_PT_DpOT0_
FNDA:0,_ZNSt16allocator_traitsISaIN5Catch13ScopedMessageEEE9constructIS1_JRKNS0_14MessageBuilderEEEEvRS2_PT_DpOT0_
FNDA:0,_ZNSt16allocator_traitsISaIN5Catch14SectionEndInfoEEE9constructIS1_JRKS1_EEEvRS2_PT_DpOT0_
FNDA:0,_ZNSt16allocator_traitsISaISt10shared_ptrIN5Catch16IReporterFactoryEEEE9constructIS3_JRKS3_EEEvRS4_PT_DpOT0_
FNDA:0,_ZNSt16allocator_traitsISaIN5Catch11MessageInfoEEE9constructIS1_JRNS0_9StringRefERKNS0_14SourceLineInfoERNS0_9ResultWas6OfTypeEEEEvRS2_PT_DpOT0_
FNDA:0,_ZNSt16allocator_traitsISaIN5Catch11MessageInfoEEE9constructIS1_JRKS1_EEEvRS2_PT_DpOT0_
FNDA:1421,_ZNSt16allocator_traitsISaIN5Catch5clara6detail3OptEEE9constructIS3_JRKS3_EEEvRS4_PT_DpOT0_
FNDA:49,_ZNSt16allocator_traitsISaIN5Catch5clara6detail3ArgEEE9constructIS3_JRKS3_EEEvRS4_PT_DpOT0_
FNDA:522,_ZNSt16allocator_traitsISaIN5Catch5clara8TextFlow6ColumnEEE9constructIS3_JRKS3_EEEvRS4_PT_DpOT0_
FNDA:5146,_ZNSt16allocator_traitsISaINSt7__cxx1112basic_stringIcSt11char_traitsIcESaIcEEEEE9constructIS5_JRKS5_EEEvRS6_PT_DpOT0_
FNDA:0,_ZNSt16allocator_traitsISaIN5Catch22CumulativeReporterBaseINS0_13JunitReporterEE11SectionNodeEEE7destroyIS4_EEvRS5_PT_
FNDA:0,_ZNSt16allocator_traitsISaIN5Catch22CumulativeReporterBaseINS0_13JunitReporterEE4NodeINS0_12TestRunStatsENS4_INS0_14TestGroupStatsENS4_INS0_13TestCaseStatsENS3_11SectionNodeEEEEEEEEE7destroyISB_EEvRSC_PT_
FNDA:0,_ZNSt16allocator_traitsISaISt10shared_ptrIN5Catch22CumulativeReporterBaseINS1_13JunitReporterEE4NodeINS1_12TestRunStatsENS5_INS1_14TestGroupStatsENS5_INS1_13TestCaseStatsENS4_11SectionNodeEEEEEEEEEE7destroyISD_EEvRSE_PT_
FNDA:147,_ZNSt16allocator_traitsISaIN5Catch5clara6detail13BoundValueRefINSt7__cxx1112basic_stringIcSt11char_traitsIcESaIcEEEEEEE7destroyISA_EEvRSB_PT_
FNDA:539,_ZNSt16allocator_traitsISaIN5Catch5clara6detail12BoundFlagRefEEE7destroyIS3_EEvRS4_PT_
FNDA:21,_ZNSt16allocator_traitsISaIN5Catch10Generators16GeneratorTrackerEEE7destroyIS2_EEvRS3_PT_
FNDA:43,_ZNSt16allocator_traitsISaIN5Catch6ConfigEEE7destroyIS1_EEvRS2_PT_
FNDA:754,_ZNSt16allocator_traitsISaIN5Catch16TestCaseTracking14SectionTrackerEEE7destroyIS2_EEvRS3_PT_
FNDA:22,_ZNSt16allocator_traitsISaIN5Catch8TestSpec11NamePatternEEE7destroyIS2_EEvRS3_PT_
FNDA:0,_ZNSt16allocator_traitsISaIN5Catch8TestSpec15ExcludedPatternEEE7destroyIS2_EEvRS3_PT_
FNDA:14,_ZNSt16allocator_traitsISaIN5Catch8TestSpec10TagPatternEEE7destroyIS2_EEvRS3_PT_
FNDA:49,_ZNSt16allocator_traitsISaIN5Catch5clara6detail15BoundFlagLambdaIZNS2_4HelpC4ERbEUlbE_EEEE7destroyIS7_EEvRS8_PT_
FNDA:49,_ZNSt16allocator_traitsISaIN5Catch5clara6detail15BoundFlagLambdaIZNS0_21makeCommandLineParserERNS0_10ConfigDataEEUlbE7_EEEE7destroyIS7_EEvRS8_PT_
FNDA:98,_ZNSt16allocator_traitsISaIN5Catch5clara6detail13BoundValueRefISt6vectorINSt7__cxx1112basic_stringIcSt11char_traitsIcESaIcEEESaISA_EEEEEE7destroyISD_EEvRSE_PT_
FNDA:49,_ZNSt16allocator_traitsISaIN5Catch17ReporterRegistrarINS0_15CompactReporterEE15ReporterFactoryEEE7destroyIS4_EEvRS5_PT_
FNDA:49,_ZNSt16allocator_traitsISaIN5Catch17ReporterRegistrarINS0_15ConsoleReporterEE15ReporterFactoryEEE7destroyIS4_EEvRS5_PT_
FNDA:0,_ZNSt16allocator_traitsISaIN5Catch22CumulativeReporterBaseINS0_13JunitReporterEE4NodeINS0_13TestCaseStatsENS3_11SectionNodeEEEEE7destroyIS7_EEvRS8_PT_
FNDA:0,_ZNSt16allocator_traitsISaIN5Catch22CumulativeReporterBaseINS0_13JunitReporterEE4NodeINS0_14TestGroupStatsENS4_INS0_13TestCaseStatsENS3_11SectionNodeEEEEEEE7destroyIS9_EEvRSA_PT_
FNDA:49,_ZNSt16allocator_traitsISaIN5Catch17ReporterRegistrarINS0_13JunitReporterEE15ReporterFactoryEEE7destroyIS4_EEvRS5_PT_
FNDA:49,_ZNSt16allocator_traitsISaIN5Catch17ReporterRegistrarINS0_11XmlReporterEE15ReporterFactoryEEE7destroyIS4_EEvRS5_PT_
FNDA:49,_ZNSt16allocator_traitsISaIN5Catch5clara6detail11BoundLambdaIZNS0_21makeCommandLineParserERNS0_10ConfigDataEEUlRKNSt7__cxx1112basic_stringIcSt11char_traitsIcESaIcEEEE6_EEEE7destroyISF_EEvRSG_PT_
FNDA:49,_ZNSt16allocator_traitsISaIN5Catch5clara6detail11BoundLambdaIZNS0_21makeCommandLineParserERNS0_10ConfigDataEEUliE8_EEEE7destroyIS7_EEvRS8_PT_
FNDA:49,_ZNSt16allocator_traitsISaIN5Catch5clara6detail11BoundLambdaIZNS0_21makeCommandLineParserERNS0_10ConfigDataEEUlRKNSt7__cxx1112basic_stringIcSt11char_traitsIcESaIcEEEE_EEEE7destroyISF_EEvRSG_PT_
FNDA:49,_ZNSt16allocator_traitsISaIN5Catch5clara6detail11BoundLambdaIZNS0_21makeCommandLineParserERNS0_10ConfigDataEEUlbE9_EEEE7destroyIS7_EEvRS8_PT_
FNDA:49,_ZNSt16allocator_traitsISaIN5Catch5clara6detail11BoundLambdaIZNS0_21makeCommandLineParserERNS0_10ConfigDataEEUlRKNSt7__cxx1112basic_stringIcSt11char_traitsIcESaIcEEEE0_EEEE7destroyISF_EEvRSG_PT_
FNDA:49,_ZNSt16allocator_traitsISaIN5Catch5clara6detail11BoundLambdaIZNS0_21makeCommandLineParserERNS0_10ConfigDataEEUlRKNSt7__cxx1112basic_stringIcSt11char_traitsIcESaIcEEEE5_EEEE7destroyISF_EEvRSG_PT_
FNDA:49,_ZNSt16allocator_traitsISaIN5Catch5clara6detail11BoundLambdaIZNS0_21makeCommandLineParserERNS0_10ConfigDataEEUlRKNSt7__cxx1112basic_stringIcSt11char_traitsIcESaIcEEEE1_EEEE7destroyISF_EEvRSG_PT_
FNDA:49,_ZNSt16allocator_traitsISaIN5Catch5clara6detail11BoundLambdaIZNS0_21makeCommandLineParserERNS0_10ConfigDataEEUlRKNSt7__cxx1112basic_stringIcSt11char_traitsIcESaIcEEEE2_EEEE7destroyISF_EEvRSG_PT_
FNDA:49,_ZNSt16allocator_traitsISaIN5Catch5clara6detail11BoundLambdaIZNS0_21makeCommandLineParserERNS0_10ConfigDataEEUlRKNSt7__cxx1112basic_stringIcSt11char_traitsIcESaIcEEEE3_EEEE7destroyISF_EEvRSG_PT_
FNDA:49,_ZNSt16allocator_traitsISaIN5Catch5clara6detail11BoundLambdaIZNS0_21makeCommandLineParserERNS0_10ConfigDataEEUlRKNSt7__cxx1112basic_stringIcSt11char_traitsIcESaIcEEEE4_EEEE7destroyISF_EEvRSG_PT_
FNDA:98,_ZNSt16allocator_traitsISaIN5Catch5clara6detail13BoundValueRefIjEEEE7destroyIS4_EEvRS5_PT_
FNDA:49,_ZNSt16allocator_traitsISaIN5Catch5clara6detail13BoundValueRefIdEEEE7destroyIS4_EEvRS5_PT_
FNDA:0,_ZNSt16allocator_traitsISaINSt8__detail4_NFAINSt7__cxx1112regex_traitsIcEEEEEE7destroyIS5_EEvRS6_PT_
FNDA:0,_ZNSt16allocator_traitsISaISt4pairINSt7__cxx1112basic_stringIcSt11char_traitsIcESaIcEEES6_EEE7destroyIS7_EEvRS8_PT_
FNDA:0,_ZNSt16allocator_traitsISaISt4pairIccEEE7destroyIS1_EEvRS2_PT_
FNDA:0,_ZNSt16allocator_traitsISaISt13_Rb_tree_nodeISt4pairIKllEEEE7destroyIS3_EEvRS5_PT_
FNDA:0,_ZNSt16allocator_traitsISaINSt7__cxx1112regex_traitsIcE10_RegexMaskEEE7destroyIS3_EEvRS4_PT_
FNDA:0,_ZNSt16allocator_traitsISaIlEE7destroyIlEEvRS0_PT_
FNDA:0,_ZNSt16allocator_traitsISaISt4pairIlSt6vectorINSt7__cxx119sub_matchIN9__gnu_cxx17__normal_iteratorIPKcNS2_12basic_stringIcSt11char_traitsIcESaIcEEEEEEESaISE_EEEEE7destroyISH_EEvRSI_PT_
FNDA:0,_ZNSt16allocator_traitsISaINSt8__detail6_StateIcEEEE7destroyIS2_EEvRS3_PT_
FNDA:0,_ZNSt16allocator_traitsISaINSt8__detail9_StateSeqINSt7__cxx1112regex_traitsIcEEEEEE7destroyIS5_EEvRS6_PT_
FNDA:29,_ZNSt16allocator_traitsISaISt13_Rb_tree_nodeIN5Catch9VerbosityEEEE7destroyIS2_EEvRS4_PT_
FNDA:318,_ZNSt16allocator_traitsISaISt13_Rb_tree_nodeIN5Catch8TestCaseEEEE7destroyIS2_EEvRS4_PT_
FNDA:0,_ZNSt16allocator_traitsISaISt13_Rb_tree_nodeISt4pairIKNSt7__cxx1112basic_stringIcSt11char_traitsIcESaIcEEEN5Catch8TagAliasEEEEE7destroyISB_EEvRSD_PT_
FNDA:167,_ZNSt16allocator_traitsISaISt13_Rb_tree_nodeIPKN5Catch8TestCaseEEEE7destroyIS4_EEvRS6_PT_
FNDA:196,_ZNSt16allocator_traitsISaISt13_Rb_tree_nodeISt4pairIKNSt7__cxx1112basic_stringIcSt11char_traitsIcESaIcEEESt10shared_ptrIN5Catch16IReporterFactoryEEEEEE7destroyISD_EEvRSF_PT_
FNDA:0,_ZNSt16allocator_traitsISaISt13_Rb_tree_nodeINSt7__cxx1112basic_stringIcSt11char_traitsIcESaIcEEEEEE7destroyIS6_EEvRS8_PT_
FNDA:0,_ZNSt16allocator_traitsISaISt13_Rb_tree_nodeISt4pairIKNSt7__cxx1112basic_stringIcSt11char_traitsIcESaIcEEEN5Catch7TagInfoEEEEE7destroyISB_EEvRSD_PT_
FNDA:0,_ZNSt16allocator_traitsISaISt10unique_ptrIN5Catch18IStreamingReporterESt14default_deleteIS2_EEEE7destroyIS5_EEvRS6_PT_
FNDA:0,_ZNSt16allocator_traitsISaISt10shared_ptrIN5Catch22CumulativeReporterBaseINS1_13JunitReporterEE4NodeINS1_14TestGroupStatsENS5_INS1_13TestCaseStatsENS4_11SectionNodeEEEEEEEE7destroyISB_EEvRSC_PT_
FNDA:0,_ZNSt16allocator_traitsISaISt10shared_ptrIN5Catch22CumulativeReporterBaseINS1_13JunitReporterEE4NodeINS1_13TestCaseStatsENS4_11SectionNodeEEEEEE7destroyIS9_EEvRSA_PT_
FNDA:0,_ZNSt16allocator_traitsISaISt10shared_ptrIN5Catch22CumulativeReporterBaseINS1_13JunitReporterEE11SectionNodeEEEE7destroyIS6_EEvRS7_PT_
FNDA:0,_ZNSt16allocator_traitsISaIN5Catch14AssertionStatsEEE7destroyIS1_EEvRS2_PT_
FNDA:0,_ZNSt16allocator_traitsISaIN5Catch13SummaryColumnEEE7destroyIS1_EEvRS2_PT_
FNDA:0,_ZNSt16allocator_traitsISaISt10unique_ptrINSt7__cxx1119basic_ostringstreamIcSt11char_traitsIcESaIcEEESt14default_deleteIS6_EEEE7destroyIS9_EEvRSA_PT_
FNDA:0,_ZNSt16allocator_traitsISaISt10unique_ptrIKN5Catch20IExceptionTranslatorESt14default_deleteIS3_EEEE7destroyIS6_EEvRS7_PT_
FNDA:0,_ZNSt16allocator_traitsISaISt10unique_ptrIN5Catch6Detail8EnumInfoESt14default_deleteIS3_EEEE7destroyIS6_EEvRS7_PT_
FNDA:0,_ZNSt16allocator_traitsISaISt4pairIiN5Catch9StringRefEEEE7destroyIS3_EEvRS4_PT_
FNDA:0,_ZNSt16allocator_traitsISaIN5Catch9StringRefEEE7destroyIS1_EEvRS2_PT_
FNDA:0,_ZNSt16allocator_traitsISaIN5Catch5clara8TextFlow6Column8iteratorEEE7destroyIS4_EEvRS5_PT_
FNDA:986,_ZNSt16allocator_traitsISaIN5Catch11SectionInfoEEE7destroyIS1_EEvRS2_PT_
FNDA:0,_ZNSt16allocator_traitsISaISt10shared_ptrIN5Catch8TestSpec7PatternEEEE7destroyIS4_EEvRS5_PT_
FNDA:0,_ZNSt16allocator_traitsISaIN5Catch8TestSpec6FilterEEE7destroyIS2_EEvRS3_PT_
FNDA:0,_ZNSt16allocator_traitsISaIPKN5Catch8TestCaseEEE7destroyIS3_EEvRS4_PT_
FNDA:0,_ZNSt16allocator_traitsISaISt10shared_ptrIN5Catch16TestCaseTracking8ITrackerEEEE7destroyIS4_EEvRS5_PT_
FNDA:0,_ZNSt16allocator_traitsISaIN5Catch8TestCaseEEE7destroyIS1_EEvRS2_PT_
FNDA:0,_ZNSt16allocator_traitsISaINSt15__exception_ptr13exception_ptrEEE7destroyIS1_EEvRS2_PT_
FNDA:0,_ZNSt16allocator_traitsISaIPN5Catch10ISingletonEEE7destroyIS2_EEvRS3_PT_
FNDA:0,_ZNSt16allocator_traitsISaIN5Catch13ScopedMessageEEE7destroyIS1_EEvRS2_PT_
FNDA:0,_ZNSt16allocator_traitsISaIN5Catch14SectionEndInfoEEE7destroyIS1_EEvRS2_PT_
FNDA:0,_ZNSt16allocator_traitsISaISt10shared_ptrIN5Catch16IReporterFactoryEEEE7destroyIS3_EEvRS4_PT_
FNDA:0,_ZNSt16allocator_traitsISaIcEE7destroyIcEEvRS0_PT_
FNDA:0,_ZNSt16allocator_traitsISaIN5Catch11MessageInfoEEE7destroyIS1_EEvRS2_PT_
FNDA:0,_ZNSt16allocator_traitsISaIN5Catch5clara6detail3OptEEE7destroyIS3_EEvRS4_PT_
FNDA:0,_ZNSt16allocator_traitsISaIN5Catch5clara6detail3ArgEEE7destroyIS3_EEvRS4_PT_
FNDA:0,_ZNSt16allocator_traitsISaIN5Catch5clara6detail5TokenEEE7destroyIS3_EEvRS4_PT_
FNDA:0,_ZNSt16allocator_traitsISaIN5Catch5clara8TextFlow6ColumnEEE7destroyIS3_EEvRS4_PT_
FNDA:1227,_ZNSt16allocator_traitsISaINSt7__cxx1112basic_stringIcSt11char_traitsIcESaIcEEEEE7destroyIS5_EEvRS6_PT_
FNDA:3617,_ZNSt16allocator_traitsISaImEE7destroyImEEvRS0_PT_
FNDA:420,_ZNSt16allocator_traitsISaIPN5Catch16TestCaseTracking8ITrackerEEE7destroyIS3_EEvRS4_PT_
FNDA:0,_ZNSt16allocator_traitsISaISt10shared_ptrIN5Catch22CumulativeReporterBaseINS1_13JunitReporterEE4NodeINS1_12TestRunStatsENS5_INS1_14TestGroupStatsENS5_INS1_13TestCaseStatsENS4_11SectionNodeEEEEEEEEEE8max_sizeERKSE_
FNDA:0,_ZNSt16allocator_traitsISaISt4pairINSt7__cxx1112basic_stringIcSt11char_traitsIcESaIcEEES6_EEE8max_sizeERKS8_
FNDA:0,_ZNSt16allocator_traitsISaISt4pairIccEEE8max_sizeERKS2_
FNDA:0,_ZNSt16allocator_traitsISaINSt7__cxx1112regex_traitsIcE10_RegexMaskEEE8max_sizeERKS4_
FNDA:0,_ZNSt16allocator_traitsISaISt4pairIlSt6vectorINSt7__cxx119sub_matchIN9__gnu_cxx17__normal_iteratorIPKcNS2_12basic_stringIcSt11char_traitsIcESaIcEEEEEEESaISE_EEEEE8max_sizeERKSI_
FNDA:0,_ZNSt16allocator_traitsISaINSt8__detail6_StateIcEEEE8max_sizeERKS3_
FNDA:0,_ZNSt16allocator_traitsISaINSt7__cxx119sub_matchIN9__gnu_cxx17__normal_iteratorIPKcNS0_12basic_stringIcSt11char_traitsIcESaIcEEEEEEEEE8max_sizeERKSD_
FNDA:0,_ZNSt16allocator_traitsISaISt10unique_ptrIN5Catch18IStreamingReporterESt14default_deleteIS2_EEEE8max_sizeERKS6_
FNDA:0,_ZNSt16allocator_traitsISaISt10shared_ptrIN5Catch22CumulativeReporterBaseINS1_13JunitReporterEE4NodeINS1_14TestGroupStatsENS5_INS1_13TestCaseStatsENS4_11SectionNodeEEEEEEEE8max_sizeERKSC_
FNDA:0,_ZNSt16allocator_traitsISaISt10shared_ptrIN5Catch22CumulativeReporterBaseINS1_13JunitReporterEE4NodeINS1_13TestCaseStatsENS4_11SectionNodeEEEEEE8max_sizeERKSA_
FNDA:0,_ZNSt16allocator_traitsISaISt10shared_ptrIN5Catch22CumulativeReporterBaseINS1_13JunitReporterEE11SectionNodeEEEE8max_sizeERKS7_
FNDA:0,_ZNSt16allocator_traitsISaIN5Catch14AssertionStatsEEE8max_sizeERKS2_
FNDA:18,_ZNSt16allocator_traitsISaIN5Catch13SummaryColumnEEE8max_sizeERKS2_
FNDA:100,_ZNSt16allocator_traitsISaIN5Catch11SectionInfoEEE8max_sizeERKS2_
FNDA:176,_ZNSt16allocator_traitsISaISt10unique_ptrINSt7__cxx1119basic_ostringstreamIcSt11char_traitsIcESaIcEEESt14default_deleteIS6_EEEE8max_sizeERKSA_
FNDA:42,_ZNSt16allocator_traitsISaIPN5Catch16TestCaseTracking8ITrackerEEE8max_sizeERKS4_
FNDA:0,_ZNSt16allocator_traitsISaISt10unique_ptrIKN5Catch20IExceptionTranslatorESt14default_deleteIS3_EEEE8max_sizeERKS7_
FNDA:0,_ZNSt16allocator_traitsISaISt10unique_ptrIN5Catch6Detail8EnumInfoESt14default_deleteIS3_EEEE8max_sizeERKS7_
FNDA:72,_ZNSt16allocator_traitsISaIN5Catch5clara6detail11HelpColumnsEEE8max_sizeERKS4_
FNDA:72,_ZNSt16allocator_traitsISaISt10shared_ptrIN5Catch8TestSpec7PatternEEEE8max_sizeERKS5_
FNDA:72,_ZNSt16allocator_traitsISaIN5Catch8TestSpec6FilterEEE8max_sizeERKS3_
FNDA:16,_ZNSt16allocator_traitsISaIPKN5Catch8TestCaseEEE8max_sizeERKS4_
FNDA:502,_ZNSt16allocator_traitsISaISt10shared_ptrIN5Catch16TestCaseTracking8ITrackerEEEE8max_sizeERKS5_
FNDA:176,_ZNSt16allocator_traitsISaImEE8max_sizeERKS0_
FNDA:0,_ZNSt16allocator_traitsISaINSt15__exception_ptr13exception_ptrEEE8max_sizeERKS2_
FNDA:182,_ZNSt16allocator_traitsISaIPN5Catch10ISingletonEEE8max_sizeERKS3_
FNDA:0,_ZNSt16allocator_traitsISaIN5Catch13ScopedMessageEEE8max_sizeERKS2_
FNDA:0,_ZNSt16allocator_traitsISaIN5Catch14SectionEndInfoEEE8max_sizeERKS2_
FNDA:0,_ZNSt16allocator_traitsISaISt10shared_ptrIN5Catch16IReporterFactoryEEEE8max_sizeERKS4_
FNDA:0,_ZNSt16allocator_traitsISaIN5Catch11MessageInfoEEE8max_sizeERKS2_
FNDA:2842,_ZNSt16allocator_traitsISaIN5Catch5clara6detail3OptEEE8max_sizeERKS4_
FNDA:98,_ZNSt16allocator_traitsISaIN5Catch5clara6detail3ArgEEE8max_sizeERKS4_
FNDA:90,_ZNSt16allocator_traitsISaIN5Catch5clara6detail5TokenEEE8max_sizeERKS4_
FNDA:1044,_ZNSt16allocator_traitsISaIN5Catch5clara8TextFlow6ColumnEEE8max_sizeERKS4_
FNDA:0,_ZNSt16allocator_traitsISaIcEE8max_sizeERKS0_
FNDA:8318,_ZNSt16allocator_traitsISaINSt7__cxx1112basic_stringIcSt11char_traitsIcESaIcEEEEE8max_sizeERKS6_
FNDA:406,_ZNSt16allocator_traitsISaIN5Catch8TestCaseEEE8max_sizeERKS2_
FNDA:0,_ZNSt16allocator_traitsISaISt4pairIiN5Catch9StringRefEEEE8max_sizeERKS4_
FNDA:0,_ZNSt16allocator_traitsISaIN5Catch9StringRefEEE8max_sizeERKS2_
FNDA:348,_ZNSt16allocator_traitsISaIN5Catch5clara8TextFlow6Column8iteratorEEE8max_sizeERKS5_
FNDA:0,_ZNSt16allocator_traitsISaISt4pairINSt7__cxx1112basic_stringIcSt11char_traitsIcESaIcEEES6_EEE37select_on_container_copy_constructionERKS8_
FNDA:0,_ZNSt16allocator_traitsISaINSt7__cxx1112regex_traitsIcE10_RegexMaskEEE37select_on_container_copy_constructionERKS4_
FNDA:0,_ZNSt16allocator_traitsISaISt4pairIccEEE37select_on_container_copy_constructionERKS2_
FNDA:0,_ZNSt16allocator_traitsISaINSt7__cxx119sub_matchIN9__gnu_cxx17__normal_iteratorIPKcNS0_12basic_stringIcSt11char_traitsIcESaIcEEEEEEEEE37select_on_container_copy_constructionERKSD_
FNDA:100,_ZNSt16allocator_traitsISaISt10shared_ptrIN5Catch8TestSpec7PatternEEEE37select_on_container_copy_constructionERKS5_
FNDA:3038,_ZNSt16allocator_traitsISaIN5Catch5clara6detail3ArgEEE37select_on_container_copy_constructionERKS4_
FNDA:3038,_ZNSt16allocator_traitsISaIN5Catch5clara6detail3OptEEE37select_on_container_copy_constructionERKS4_
FNDA:8,_ZNSt16allocator_traitsISaIPKN5Catch8TestCaseEEE37select_on_container_copy_constructionERKS4_
FNDA:43,_ZNSt16allocator_traitsISaIN5Catch8TestCaseEEE37select_on_container_copy_constructionERKS2_
FNDA:57,_ZNSt16allocator_traitsISaIN5Catch8TestSpec6FilterEEE37select_on_container_copy_constructionERKS3_
FNDA:2754,_ZNSt16allocator_traitsISaIN5Catch11MessageInfoEEE37select_on_container_copy_constructionERKS2_
FNDA:49771,_ZNSt16allocator_traitsISaINSt7__cxx1112basic_stringIcSt11char_traitsIcESaIcEEEEE37select_on_container_copy_constructionERKS6_
FNDA:9260,_ZNSt16allocator_traitsISaIN5Catch5clara6detail5TokenEEE37select_on_container_copy_constructionERKS4_
FNDA:174,_ZNSt16allocator_traitsISaIN5Catch5clara8TextFlow6ColumnEEE37select_on_container_copy_constructionERKS4_
FNDA:0,_ZNSt16allocator_traitsISaIcEE37select_on_container_copy_constructionERKS0_
FNDA:0,_ZSt18__do_alloc_on_copyISaINSt7__cxx119sub_matchIN9__gnu_cxx17__normal_iteratorIPKcNS0_12basic_stringIcSt11char_traitsIcESaIcEEEEEEEEEvRT_RKSE_St17integral_constantIbLb0EE
FNDA:0,_ZSt18__do_alloc_on_copyISaIN5Catch5clara6detail3ArgEEEvRT_RKS5_St17integral_constantIbLb0EE
FNDA:0,_ZSt18__do_alloc_on_copyISaIN5Catch5clara6detail3OptEEEvRT_RKS5_St17integral_constantIbLb0EE
FNDA:0,_ZSt18__do_alloc_on_copyISaINSt7__cxx1112basic_stringIcSt11char_traitsIcESaIcEEEEEvRT_RKS7_St17integral_constantIbLb0EE
FNDA:0,_ZSt15__alloc_on_copyISaINSt7__cxx119sub_matchIN9__gnu_cxx17__normal_iteratorIPKcNS0_12basic_stringIcSt11char_traitsIcESaIcEEEEEEEEEvRT_RKSE_
FNDA:0,_ZSt15__alloc_on_copyISaIN5Catch5clara6detail3ArgEEEvRT_RKS5_
FNDA:0,_ZSt15__alloc_on_copyISaIN5Catch5clara6detail3OptEEEvRT_RKS5_
FNDA:0,_ZSt15__alloc_on_copyISaINSt7__cxx1112basic_stringIcSt11char_traitsIcESaIcEEEEEvRT_RKS7_
FNDA:0,_ZSt18__do_alloc_on_moveISaINSt7__cxx119sub_matchIN9__gnu_cxx17__normal_iteratorIPKcNS0_12basic_stringIcSt11char_traitsIcESaIcEEEEEEEEEvRT_SF_St17integral_constantIbLb1EE
FNDA:8,_ZSt18__do_alloc_on_moveISaIPKN5Catch8TestCaseEEEvRT_S6_St17integral_constantIbLb1EE
FNDA:36,_ZSt18__do_alloc_on_moveISaISt10shared_ptrIN5Catch8TestSpec7PatternEEEEvRT_S7_St17integral_constantIbLb1EE
FNDA:43,_ZSt18__do_alloc_on_moveISaIN5Catch8TestCaseEEEvRT_S4_St17integral_constantIbLb1EE
FNDA:49,_ZSt18__do_alloc_on_moveISaIN5Catch5clara6detail3ArgEEEvRT_S6_St17integral_constantIbLb1EE
FNDA:49,_ZSt18__do_alloc_on_moveISaIN5Catch5clara6detail3OptEEEvRT_S6_St17integral_constantIbLb1EE
FNDA:29,_ZSt18__do_alloc_on_moveISaIN5Catch8TestSpec11FilterMatchEEEvRT_S5_St17integral_constantIbLb1EE
FNDA:407,_ZSt18__do_alloc_on_moveISaINSt7__cxx1112basic_stringIcSt11char_traitsIcESaIcEEEEEvRT_S8_St17integral_constantIbLb1EE
FNDA:43,_ZSt18__do_alloc_on_moveISaIN5Catch8TestSpec6FilterEEEvRT_S5_St17integral_constantIbLb1EE
FNDA:0,_ZSt15__alloc_on_moveISaINSt7__cxx119sub_matchIN9__gnu_cxx17__normal_iteratorIPKcNS0_12basic_stringIcSt11char_traitsIcESaIcEEEEEEEEEvRT_SF_
FNDA:8,_ZSt15__alloc_on_moveISaIPKN5Catch8TestCaseEEEvRT_S6_
FNDA:36,_ZSt15__alloc_on_moveISaISt10shared_ptrIN5Catch8TestSpec7PatternEEEEvRT_S7_
FNDA:43,_ZSt15__alloc_on_moveISaIN5Catch8TestCaseEEEvRT_S4_
FNDA:49,_ZSt15__alloc_on_moveISaIN5Catch5clara6detail3ArgEEEvRT_S6_
FNDA:49,_ZSt15__alloc_on_moveISaIN5Catch5clara6detail3OptEEEvRT_S6_
FNDA:29,_ZSt15__alloc_on_moveISaIN5Catch8TestSpec11FilterMatchEEEvRT_S5_
FNDA:407,_ZSt15__alloc_on_moveISaINSt7__cxx1112basic_stringIcSt11char_traitsIcESaIcEEEEEvRT_S8_
FNDA:43,_ZSt15__alloc_on_moveISaIN5Catch8TestSpec6FilterEEEvRT_S5_
FNDA:0,_ZSt18__do_alloc_on_swapISaISt10shared_ptrIN5Catch22CumulativeReporterBaseINS1_13JunitReporterEE4NodeINS1_14TestGroupStatsENS5_INS1_13TestCaseStatsENS4_11SectionNodeEEEEEEEEvRT_SE_St17integral_constantIbLb0EE
FNDA:0,_ZSt18__do_alloc_on_swapISaISt10shared_ptrIN5Catch22CumulativeReporterBaseINS1_13JunitReporterEE4NodeINS1_13TestCaseStatsENS4_11SectionNodeEEEEEEvRT_SC_St17integral_constantIbLb0EE
FNDA:0,_ZSt15__alloc_on_swapISaISt10shared_ptrIN5Catch22CumulativeReporterBaseINS1_13JunitReporterEE4NodeINS1_14TestGroupStatsENS5_INS1_13TestCaseStatsENS4_11SectionNodeEEEEEEEEvRT_SE_
FNDA:0,_ZSt15__alloc_on_swapISaISt10shared_ptrIN5Catch22CumulativeReporterBaseINS1_13JunitReporterEE4NodeINS1_13TestCaseStatsENS4_11SectionNodeEEEEEEvRT_SC_
FNF:432
FNH:230
DA:435,73125
DA:436,73125
DA:461,73125
DA:462,73125
DA:474,18283
DA:475,18283
DA:486,9529
DA:487,9529
DA:495,14574
DA:496,14574
DA:504,68243
DA:505,68243
DA:516,0
DA:517,0
DA:520,0
DA:524,0
DA:525,0
DA:535,664
DA:536,664
DA:543,664
DA:547,664
DA:548,664
DA:558,0
DA:559,0
DA:562,0
DA:566,0
DA:567,0
LF:27
LH:17
end_of_record
SF:/usr/include/c++/7/bits/allocated_ptr.h
FN:52,_ZNSt15__allocated_ptrISaISt23_Sp_counted_ptr_inplaceIN5Catch16TestCaseTracking14SectionTrackerESaIS3_ELN9__gnu_cxx12_Lock_policyE2EEEEC2ERS8_PS7_
FN:52,_ZNSt15__allocated_ptrISaISt23_Sp_counted_ptr_inplaceIN5Catch5clara6detail11BoundLambdaIZNS1_21makeCommandLineParserERNS1_10ConfigDataEEUlRKNSt7__cxx1112basic_stringIcSt11char_traitsIcESaIcEEEE3_EESaISG_ELN9__gnu_cxx12_Lock_policyE2EEEEC2ERSL_PSK_
FN:52,_ZNSt15__allocated_ptrISaISt23_Sp_counted_ptr_inplaceIN5Catch22CumulativeReporterBaseINS1_13JunitReporterEE4NodeINS1_14TestGroupStatsENS5_INS1_13TestCaseStatsENS4_11SectionNodeEEEEESaISA_ELN9__gnu_cxx12_Lock_policyE2EEEEC2ERSF_PSE_
FN:52,_ZNSt15__allocated_ptrISaISt23_Sp_counted_ptr_inplaceIN5Catch5clara6detail11BoundLambdaIZNS1_21makeCommandLineParserERNS1_10ConfigDataEEUlbE9_EESaIS8_ELN9__gnu_cxx12_Lock_policyE2EEEEC2ERSD_PSC_
FN:52,_ZNSt15__allocated_ptrISaISt23_Sp_counted_ptr_inplaceIN5Catch5clara6detail11BoundLambdaIZNS1_21makeCommandLineParserERNS1_10ConfigDataEEUlRKNSt7__cxx1112basic_stringIcSt11char_traitsIcESaIcEEEE_EESaISG_ELN9__gnu_cxx12_Lock_policyE2EEEEC2ERSL_PSK_
FN:52,_ZNSt15__allocated_ptrISaISt23_Sp_counted_ptr_inplaceIN5Catch5clara6detail13BoundValueRefISt6vectorINSt7__cxx1112basic_stringIcSt11char_traitsIcESaIcEEESaISB_EEEESaISE_ELN9__gnu_cxx12_Lock_policyE2EEEEC2ERSJ_PSI_
FN:52,_ZNSt15__allocated_ptrISaISt23_Sp_counted_ptr_inplaceIN5Catch8TestSpec15ExcludedPatternESaIS3_ELN9__gnu_cxx12_Lock_policyE2EEEEC2ERS8_PS7_
FN:52,_ZNSt15__allocated_ptrISaISt23_Sp_counted_ptr_inplaceIN5Catch17ReporterRegistrarINS1_15CompactReporterEE15ReporterFactoryESaIS5_ELN9__gnu_cxx12_Lock_policyE2EEEEC2ERSA_PS9_
FN:52,_ZNSt15__allocated_ptrISaISt23_Sp_counted_ptr_inplaceIN5Catch10Generators16GeneratorTrackerESaIS3_ELN9__gnu_cxx12_Lock_policyE2EEEEC2ERS8_PS7_
FN:52,_ZNSt15__allocated_ptrISaISt23_Sp_counted_ptr_inplaceINSt7__cxx1112basic_stringIcSt11char_traitsIcESaIcEEESaIS6_ELN9__gnu_cxx12_Lock_policyE2EEEEC2ERSB_PSA_
FN:52,_ZNSt15__allocated_ptrISaISt23_Sp_counted_ptr_inplaceIN5Catch5clara6detail11BoundLambdaIZNS1_21makeCommandLineParserERNS1_10ConfigDataEEUlRKNSt7__cxx1112basic_stringIcSt11char_traitsIcESaIcEEEE1_EESaISG_ELN9__gnu_cxx12_Lock_policyE2EEEEC2ERSL_PSK_
FN:52,_ZNSt15__allocated_ptrISaISt23_Sp_counted_ptr_inplaceIN5Catch22CumulativeReporterBaseINS1_13JunitReporterEE11SectionNodeESaIS5_ELN9__gnu_cxx12_Lock_policyE2EEEEC2ERSA_PS9_
FN:52,_ZNSt15__allocated_ptrISaISt23_Sp_counted_ptr_inplaceIN5Catch22CumulativeReporterBaseINS1_13JunitReporterEE4NodeINS1_12TestRunStatsENS5_INS1_14TestGroupStatsENS5_INS1_13TestCaseStatsENS4_11SectionNodeEEEEEEESaISC_ELN9__gnu_cxx12_Lock_policyE2EEEEC2ERSH_PSG_
FN:52,_ZNSt15__allocated_ptrISaISt23_Sp_counted_ptr_inplaceIN5Catch5clara6detail12BoundFlagRefESaIS4_ELN9__gnu_cxx12_Lock_policyE2EEEEC2ERS9_PS8_
FN:52,_ZNSt15__allocated_ptrISaISt23_Sp_counted_ptr_inplaceIN5Catch8TestSpec11NamePatternESaIS3_ELN9__gnu_cxx12_Lock_policyE2EEEEC2ERS8_PS7_
FN:52,_ZNSt15__allocated_ptrISaISt23_Sp_counted_ptr_inplaceIN5Catch5clara6detail11BoundLambdaIZNS1_21makeCommandLineParserERNS1_10ConfigDataEEUlRKNSt7__cxx1112basic_stringIcSt11char_traitsIcESaIcEEEE4_EESaISG_ELN9__gnu_cxx12_Lock_policyE2EEEEC2ERSL_PSK_
FN:52,_ZNSt15__allocated_ptrISaISt23_Sp_counted_ptr_inplaceIN5Catch6ConfigESaIS2_ELN9__gnu_cxx12_Lock_policyE2EEEEC2ERS7_PS6_
FN:52,_ZNSt15__allocated_ptrISaISt23_Sp_counted_ptr_inplaceIN5Catch8TestSpec10TagPatternESaIS3_ELN9__gnu_cxx12_Lock_policyE2EEEEC2ERS8_PS7_
FN:52,_ZNSt15__allocated_ptrISaISt23_Sp_counted_ptr_inplaceIN5Catch5clara6detail11BoundLambdaIZNS1_21makeCommandLineParserERNS1_10ConfigDataEEUlRKNSt7__cxx1112basic_stringIcSt11char_traitsIcESaIcEEEE2_EESaISG_ELN9__gnu_cxx12_Lock_policyE2EEEEC2ERSL_PSK_
FN:52,_ZNSt15__allocated_ptrISaISt23_Sp_counted_ptr_inplaceIN5Catch17ReporterRegistrarINS1_11XmlReporterEE15ReporterFactoryESaIS5_ELN9__gnu_cxx12_Lock_policyE2EEEEC2ERSA_PS9_
FN:52,_ZNSt15__allocated_ptrISaISt23_Sp_counted_ptr_inplaceIN5Catch5clara6detail11BoundLambdaIZNS1_21makeCommandLineParserERNS1_10ConfigDataEEUlRKNSt7__cxx1112basic_stringIcSt11char_traitsIcESaIcEEEE0_EESaISG_ELN9__gnu_cxx12_Lock_policyE2EEEEC2ERSL_PSK_
FN:52,_ZNSt15__allocated_ptrISaISt23_Sp_counted_ptr_inplaceIN5Catch5clara6detail11BoundLambdaIZNS1_21makeCommandLineParserERNS1_10ConfigDataEEUlRKNSt7__cxx1112basic_stringIcSt11char_traitsIcESaIcEEEE6_EESaISG_ELN9__gnu_cxx12_Lock_policyE2EEEEC2ERSL_PSK_
FN:52,_ZNSt15__allocated_ptrISaISt23_Sp_counted_ptr_inplaceIN5Catch17ReporterRegistrarINS1_15ConsoleReporterEE15ReporterFactoryESaIS5_ELN9__gnu_cxx12_Lock_policyE2EEEEC2ERSA_PS9_
FN:52,_ZNSt15__allocated_ptrISaISt23_Sp_counted_ptr_inplaceIN5Catch5clara6detail11BoundLambdaIZNS1_21makeCommandLineParserERNS1_10ConfigDataEEUliE8_EESaIS8_ELN9__gnu_cxx12_Lock_policyE2EEEEC2ERSD_PSC_
FN:52,_ZNSt15__allocated_ptrISaISt23_Sp_counted_ptr_inplaceIN5Catch5clara6detail11BoundLambdaIZNS1_21makeCommandLineParserERNS1_10ConfigDataEEUlRKNSt7__cxx1112basic_stringIcSt11char_traitsIcESaIcEEEE5_EESaISG_ELN9__gnu_cxx12_Lock_policyE2EEEEC2ERSL_PSK_
FN:52,_ZNSt15__allocated_ptrISaISt23_Sp_counted_ptr_inplaceIN5Catch22CumulativeReporterBaseINS1_13JunitReporterEE4NodeINS1_13TestCaseStatsENS4_11SectionNodeEEESaIS8_ELN9__gnu_cxx12_Lock_policyE2EEEEC2ERSD_PSC_
FN:52,_ZNSt15__allocated_ptrISaISt23_Sp_counted_ptr_inplaceINSt8__detail4_NFAINSt7__cxx1112regex_traitsIcEEEESaIS6_ELN9__gnu_cxx12_Lock_policyE2EEEEC2ERSB_PSA_
FN:52,_ZNSt15__allocated_ptrISaISt23_Sp_counted_ptr_inplaceIN5Catch5clara6detail15BoundFlagLambdaIZNS1_21makeCommandLineParserERNS1_10ConfigDataEEUlbE7_EESaIS8_ELN9__gnu_cxx12_Lock_policyE2EEEEC2ERSD_PSC_
FN:52,_ZNSt15__allocated_ptrISaISt23_Sp_counted_ptr_inplaceIN5Catch5clara6detail13BoundValueRefINSt7__cxx1112basic_stringIcSt11char_traitsIcESaIcEEEEESaISB_ELN9__gnu_cxx12_Lock_policyE2EEEEC2ERSG_PSF_
FN:52,_ZNSt15__allocated_ptrISaISt23_Sp_counted_ptr_inplaceIN5Catch5clara6detail13BoundValueRefIdEESaIS5_ELN9__gnu_cxx12_Lock_policyE2EEEEC2ERSA_PS9_
FN:52,_ZNSt15__allocated_ptrISaISt23_Sp_counted_ptr_inplaceIN5Catch17ReporterRegistrarINS1_13JunitReporterEE15ReporterFactoryESaIS5_ELN9__gnu_cxx12_Lock_policyE2EEEEC2ERSA_PS9_
FN:52,_ZNSt15__allocated_ptrISaISt23_Sp_counted_ptr_inplaceIN5Catch5clara6detail13BoundValueRefIjEESaIS5_ELN9__gnu_cxx12_Lock_policyE2EEEEC2ERSA_PS9_
FN:52,_ZNSt15__allocated_ptrISaISt23_Sp_counted_ptr_inplaceIN5Catch5clara6detail15BoundFlagLambdaIZNS3_4HelpC4ERbEUlbE_EESaIS8_ELN9__gnu_cxx12_Lock_policyE2EEEEC2ERSD_PSC_
FN:70,_ZNSt15__allocated_ptrISaISt23_Sp_counted_ptr_inplaceIN5Catch8TestSpec11NamePatternESaIS3_ELN9__gnu_cxx12_Lock_policyE2EEEED2Ev
FN:70,_ZNSt15__allocated_ptrISaISt23_Sp_counted_ptr_inplaceIN5Catch5clara6detail11BoundLambdaIZNS1_21makeCommandLineParserERNS1_10ConfigDataEEUlbE9_EESaIS8_ELN9__gnu_cxx12_Lock_policyE2EEEED2Ev
FN:70,_ZNSt15__allocated_ptrISaISt23_Sp_counted_ptr_inplaceINSt8__detail4_NFAINSt7__cxx1112regex_traitsIcEEEESaIS6_ELN9__gnu_cxx12_Lock_policyE2EEEED2Ev
FN:70,_ZNSt15__allocated_ptrISaISt23_Sp_counted_ptr_inplaceIN5Catch5clara6detail13BoundValueRefISt6vectorINSt7__cxx1112basic_stringIcSt11char_traitsIcESaIcEEESaISB_EEEESaISE_ELN9__gnu_cxx12_Lock_policyE2EEEED2Ev
FN:70,_ZNSt15__allocated_ptrISaISt23_Sp_counted_ptr_inplaceIN5Catch5clara6detail11BoundLambdaIZNS1_21makeCommandLineParserERNS1_10ConfigDataEEUlRKNSt7__cxx1112basic_stringIcSt11char_traitsIcESaIcEEEE_EESaISG_ELN9__gnu_cxx12_Lock_policyE2EEEED2Ev
FN:70,_ZNSt15__allocated_ptrISaISt23_Sp_counted_ptr_inplaceIN5Catch17ReporterRegistrarINS1_13JunitReporterEE15ReporterFactoryESaIS5_ELN9__gnu_cxx12_Lock_policyE2EEEED2Ev
FN:70,_ZNSt15__allocated_ptrISaISt23_Sp_counted_ptr_inplaceIN5Catch5clara6detail11BoundLambdaIZNS1_21makeCommandLineParserERNS1_10ConfigDataEEUliE8_EESaIS8_ELN9__gnu_cxx12_Lock_policyE2EEEED2Ev
FN:70,_ZNSt15__allocated_ptrISaISt23_Sp_counted_ptr_inplaceIN5Catch22CumulativeReporterBaseINS1_13JunitReporterEE4NodeINS1_12TestRunStatsENS5_INS1_14TestGroupStatsENS5_INS1_13TestCaseStatsENS4_11SectionNodeEEEEEEESaISC_ELN9__gnu_cxx12_Lock_policyE2EEEED2Ev
FN:70,_ZNSt15__allocated_ptrISaISt23_Sp_counted_ptr_inplaceIN5Catch5clara6detail15BoundFlagLambdaIZNS3_4HelpC4ERbEUlbE_EESaIS8_ELN9__gnu_cxx12_Lock_policyE2EEEED2Ev
FN:70,_ZNSt15__allocated_ptrISaISt23_Sp_counted_ptr_inplaceIN5Catch8TestSpec10TagPatternESaIS3_ELN9__gnu_cxx12_Lock_policyE2EEEED2Ev
FN:70,_ZNSt15__allocated_ptrISaISt23_Sp_counted_ptr_inplaceIN5Catch6ConfigESaIS2_ELN9__gnu_cxx12_Lock_policyE2EEEED2Ev
FN:70,_ZNSt15__allocated_ptrISaISt23_Sp_counted_ptr_inplaceIN5Catch5clara6detail12BoundFlagRefESaIS4_ELN9__gnu_cxx12_Lock_policyE2EEEED2Ev
FN:70,_ZNSt15__allocated_ptrISaISt23_Sp_counted_ptr_inplaceIN5Catch17ReporterRegistrarINS1_11XmlReporterEE15ReporterFactoryESaIS5_ELN9__gnu_cxx12_Lock_policyE2EEEED2Ev
FN:70,_ZNSt15__allocated_ptrISaISt23_Sp_counted_ptr_inplaceIN5Catch5clara6detail11BoundLambdaIZNS1_21makeCommandLineParserERNS1_10ConfigDataEEUlRKNSt7__cxx1112basic_stringIcSt11char_traitsIcESaIcEEEE4_EESaISG_ELN9__gnu_cxx12_Lock_policyE2EEEED2Ev
FN:70,_ZNSt15__allocated_ptrISaISt23_Sp_counted_ptr_inplaceIN5Catch16TestCaseTracking14SectionTrackerESaIS3_ELN9__gnu_cxx12_Lock_policyE2EEEED2Ev
FN:70,_ZNSt15__allocated_ptrISaISt23_Sp_counted_ptr_inplaceIN5Catch5clara6detail11BoundLambdaIZNS1_21makeCommandLineParserERNS1_10ConfigDataEEUlRKNSt7__cxx1112basic_stringIcSt11char_traitsIcESaIcEEEE2_EESaISG_ELN9__gnu_cxx12_Lock_policyE2EEEED2Ev
FN:70,_ZNSt15__allocated_ptrISaISt23_Sp_counted_ptr_inplaceIN5Catch22CumulativeReporterBaseINS1_13JunitReporterEE4NodeINS1_14TestGroupStatsENS5_INS1_13TestCaseStatsENS4_11SectionNodeEEEEESaISA_ELN9__gnu_cxx12_Lock_policyE2EEEED2Ev
FN:70,_ZNSt15__allocated_ptrISaISt23_Sp_counted_ptr_inplaceIN5Catch5clara6detail13BoundValueRefIjEESaIS5_ELN9__gnu_cxx12_Lock_policyE2EEEED2Ev
FN:70,_ZNSt15__allocated_ptrISaISt23_Sp_counted_ptr_inplaceIN5Catch22CumulativeReporterBaseINS1_13JunitReporterEE4NodeINS1_13TestCaseStatsENS4_11SectionNodeEEESaIS8_ELN9__gnu_cxx12_Lock_policyE2EEEED2Ev
FN:70,_ZNSt15__allocated_ptrISaISt23_Sp_counted_ptr_inplaceIN5Catch17ReporterRegistrarINS1_15ConsoleReporterEE15ReporterFactoryESaIS5_ELN9__gnu_cxx12_Lock_policyE2EEEED2Ev
FN:70,_ZNSt15__allocated_ptrISaISt23_Sp_counted_ptr_inplaceIN5Catch22CumulativeReporterBaseINS1_13JunitReporterEE11SectionNodeESaIS5_ELN9__gnu_cxx12_Lock_policyE2EEEED2Ev
FN:70,_ZNSt15__allocated_ptrISaISt23_Sp_counted_ptr_inplaceINSt7__cxx1112basic_stringIcSt11char_traitsIcESaIcEEESaIS6_ELN9__gnu_cxx12_Lock_policyE2EEEED2Ev
FN:70,_ZNSt15__allocated_ptrISaISt23_Sp_counted_ptr_inplaceIN5Catch5clara6detail11BoundLambdaIZNS1_21makeCommandLineParserERNS1_10ConfigDataEEUlRKNSt7__cxx1112basic_stringIcSt11char_traitsIcESaIcEEEE1_EESaISG_ELN9__gnu_cxx12_Lock_policyE2EEEED2Ev
FN:70,_ZNSt15__allocated_ptrISaISt23_Sp_counted_ptr_inplaceIN5Catch5clara6detail11BoundLambdaIZNS1_21makeCommandLineParserERNS1_10ConfigDataEEUlRKNSt7__cxx1112basic_stringIcSt11char_traitsIcESaIcEEEE5_EESaISG_ELN9__gnu_cxx12_Lock_policyE2EEEED2Ev
FN:70,_ZNSt15__allocated_ptrISaISt23_Sp_counted_ptr_inplaceIN5Catch8TestSpec15ExcludedPatternESaIS3_ELN9__gnu_cxx12_Lock_policyE2EEEED2Ev
FN:70,_ZNSt15__allocated_ptrISaISt23_Sp_counted_ptr_inplaceIN5Catch5clara6detail15BoundFlagLambdaIZNS1_21makeCommandLineParserERNS1_10ConfigDataEEUlbE7_EESaIS8_ELN9__gnu_cxx12_Lock_policyE2EEEED2Ev
FN:70,_ZNSt15__allocated_ptrISaISt23_Sp_counted_ptr_inplaceIN5Catch5clara6detail11BoundLambdaIZNS1_21makeCommandLineParserERNS1_10ConfigDataEEUlRKNSt7__cxx1112basic_stringIcSt11char_traitsIcESaIcEEEE0_EESaISG_ELN9__gnu_cxx12_Lock_policyE2EEEED2Ev
FN:70,_ZNSt15__allocated_ptrISaISt23_Sp_counted_ptr_inplaceIN5Catch5clara6detail11BoundLambdaIZNS1_21makeCommandLineParserERNS1_10ConfigDataEEUlRKNSt7__cxx1112basic_stringIcSt11char_traitsIcESaIcEEEE3_EESaISG_ELN9__gnu_cxx12_Lock_policyE2EEEED2Ev
FN:70,_ZNSt15__allocated_ptrISaISt23_Sp_counted_ptr_inplaceIN5Catch10Generators16GeneratorTrackerESaIS3_ELN9__gnu_cxx12_Lock_policyE2EEEED2Ev
FN:70,_ZNSt15__allocated_ptrISaISt23_Sp_counted_ptr_inplaceIN5Catch5clara6detail13BoundValueRefIdEESaIS5_ELN9__gnu_cxx12_Lock_policyE2EEEED2Ev
FN:70,_ZNSt15__allocated_ptrISaISt23_Sp_counted_ptr_inplaceIN5Catch5clara6detail13BoundValueRefINSt7__cxx1112basic_stringIcSt11char_traitsIcESaIcEEEEESaISB_ELN9__gnu_cxx12_Lock_policyE2EEEED2Ev
FN:70,_ZNSt15__allocated_ptrISaISt23_Sp_counted_ptr_inplaceIN5Catch17ReporterRegistrarINS1_15CompactReporterEE15ReporterFactoryESaIS5_ELN9__gnu_cxx12_Lock_policyE2EEEED2Ev
FN:70,_ZNSt15__allocated_ptrISaISt23_Sp_counted_ptr_inplaceIN5Catch5clara6detail11BoundLambdaIZNS1_21makeCommandLineParserERNS1_10ConfigDataEEUlRKNSt7__cxx1112basic_stringIcSt11char_traitsIcESaIcEEEE6_EESaISG_ELN9__gnu_cxx12_Lock_policyE2EEEED2Ev
FN:78,_ZNSt15__allocated_ptrISaISt23_Sp_counted_ptr_inplaceIN5Catch5clara6detail11BoundLambdaIZNS1_21makeCommandLineParserERNS1_10ConfigDataEEUlRKNSt7__cxx1112basic_stringIcSt11char_traitsIcESaIcEEEE6_EESaISG_ELN9__gnu_cxx12_Lock_policyE2EEEEaSEDn
FN:78,_ZNSt15__allocated_ptrISaISt23_Sp_counted_ptr_inplaceIN5Catch5clara6detail12BoundFlagRefESaIS4_ELN9__gnu_cxx12_Lock_policyE2EEEEaSEDn
FN:78,_ZNSt15__allocated_ptrISaISt23_Sp_counted_ptr_inplaceIN5Catch5clara6detail11BoundLambdaIZNS1_21makeCommandLineParserERNS1_10ConfigDataEEUlRKNSt7__cxx1112basic_stringIcSt11char_traitsIcESaIcEEEE_EESaISG_ELN9__gnu_cxx12_Lock_policyE2EEEEaSEDn
FN:78,_ZNSt15__allocated_ptrISaISt23_Sp_counted_ptr_inplaceIN5Catch17ReporterRegistrarINS1_15ConsoleReporterEE15ReporterFactoryESaIS5_ELN9__gnu_cxx12_Lock_policyE2EEEEaSEDn
FN:78,_ZNSt15__allocated_ptrISaISt23_Sp_counted_ptr_inplaceIN5Catch17ReporterRegistrarINS1_15CompactReporterEE15ReporterFactoryESaIS5_ELN9__gnu_cxx12_Lock_policyE2EEEEaSEDn
FN:78,_ZNSt15__allocated_ptrISaISt23_Sp_counted_ptr_inplaceIN5Catch22CumulativeReporterBaseINS1_13JunitReporterEE4NodeINS1_13TestCaseStatsENS4_11SectionNodeEEESaIS8_ELN9__gnu_cxx12_Lock_policyE2EEEEaSEDn
FN:78,_ZNSt15__allocated_ptrISaISt23_Sp_counted_ptr_inplaceIN5Catch5clara6detail13BoundValueRefIjEESaIS5_ELN9__gnu_cxx12_Lock_policyE2EEEEaSEDn
FN:78,_ZNSt15__allocated_ptrISaISt23_Sp_counted_ptr_inplaceINSt7__cxx1112basic_stringIcSt11char_traitsIcESaIcEEESaIS6_ELN9__gnu_cxx12_Lock_policyE2EEEEaSEDn
FN:78,_ZNSt15__allocated_ptrISaISt23_Sp_counted_ptr_inplaceIN5Catch22CumulativeReporterBaseINS1_13JunitReporterEE4NodeINS1_12TestRunStatsENS5_INS1_14TestGroupStatsENS5_INS1_13TestCaseStatsENS4_11SectionNodeEEEEEEESaISC_ELN9__gnu_cxx12_Lock_policyE2EEEEaSEDn
FN:78,_ZNSt15__allocated_ptrISaISt23_Sp_counted_ptr_inplaceIN5Catch16TestCaseTracking14SectionTrackerESaIS3_ELN9__gnu_cxx12_Lock_policyE2EEEEaSEDn
FN:78,_ZNSt15__allocated_ptrISaISt23_Sp_counted_ptr_inplaceIN5Catch5clara6detail11BoundLambdaIZNS1_21makeCommandLineParserERNS1_10ConfigDataEEUlRKNSt7__cxx1112basic_stringIcSt11char_traitsIcESaIcEEEE0_EESaISG_ELN9__gnu_cxx12_Lock_policyE2EEEEaSEDn
FN:78,_ZNSt15__allocated_ptrISaISt23_Sp_counted_ptr_inplaceIN5Catch8TestSpec15ExcludedPatternESaIS3_ELN9__gnu_cxx12_Lock_policyE2EEEEaSEDn
FN:78,_ZNSt15__allocated_ptrISaISt23_Sp_counted_ptr_inplaceIN5Catch6ConfigESaIS2_ELN9__gnu_cxx12_Lock_policyE2EEEEaSEDn
FN:78,_ZNSt15__allocated_ptrISaISt23_Sp_counted_ptr_inplaceIN5Catch5clara6detail13BoundValueRefINSt7__cxx1112basic_stringIcSt11char_traitsIcESaIcEEEEESaISB_ELN9__gnu_cxx12_Lock_policyE2EEEEaSEDn
FN:78,_ZNSt15__allocated_ptrISaISt23_Sp_counted_ptr_inplaceIN5Catch5clara6detail11BoundLambdaIZNS1_21makeCommandLineParserERNS1_10ConfigDataEEUliE8_EESaIS8_ELN9__gnu_cxx12_Lock_policyE2EEEEaSEDn
FN:78,_ZNSt15__allocated_ptrISaISt23_Sp_counted_ptr_inplaceIN5Catch5clara6detail15BoundFlagLambdaIZNS1_21makeCommandLineParserERNS1_10ConfigDataEEUlbE7_EESaIS8_ELN9__gnu_cxx12_Lock_policyE2EEEEaSEDn
FN:78,_ZNSt15__allocated_ptrISaISt23_Sp_counted_ptr_inplaceIN5Catch5clara6detail11BoundLambdaIZNS1_21makeCommandLineParserERNS1_10ConfigDataEEUlRKNSt7__cxx1112basic_stringIcSt11char_traitsIcESaIcEEEE2_EESaISG_ELN9__gnu_cxx12_Lock_policyE2EEEEaSEDn
FN:78,_ZNSt15__allocated_ptrISaISt23_Sp_counted_ptr_inplaceIN5Catch17ReporterRegistrarINS1_13JunitReporterEE15ReporterFactoryESaIS5_ELN9__gnu_cxx12_Lock_policyE2EEEEaSEDn
FN:78,_ZNSt15__allocated_ptrISaISt23_Sp_counted_ptr_inplaceIN5Catch5clara6detail11BoundLambdaIZNS1_21makeCommandLineParserERNS1_10ConfigDataEEUlRKNSt7__cxx1112basic_stringIcSt11char_traitsIcESaIcEEEE5_EESaISG_ELN9__gnu_cxx12_Lock_policyE2EEEEaSEDn
FN:78,_ZNSt15__allocated_ptrISaISt23_Sp_counted_ptr_inplaceIN5Catch22CumulativeReporterBaseINS1_13JunitReporterEE4NodeINS1_14TestGroupStatsENS5_INS1_13TestCaseStatsENS4_11SectionNodeEEEEESaISA_ELN9__gnu_cxx12_Lock_policyE2EEEEaSEDn
FN:78,_ZNSt15__allocated_ptrISaISt23_Sp_counted_ptr_inplaceIN5Catch5clara6detail11BoundLambdaIZNS1_21makeCommandLineParserERNS1_10ConfigDataEEUlRKNSt7__cxx1112basic_stringIcSt11char_traitsIcESaIcEEEE3_EESaISG_ELN9__gnu_cxx12_Lock_policyE2EEEEaSEDn
FN:78,_ZNSt15__allocated_ptrISaISt23_Sp_counted_ptr_inplaceIN5Catch22CumulativeReporterBaseINS1_13JunitReporterEE11SectionNodeESaIS5_ELN9__gnu_cxx12_Lock_policyE2EEEEaSEDn
FN:78,_ZNSt15__allocated_ptrISaISt23_Sp_counted_ptr_inplaceIN5Catch10Generators16GeneratorTrackerESaIS3_ELN9__gnu_cxx12_Lock_policyE2EEEEaSEDn
FN:78,_ZNSt15__allocated_ptrISaISt23_Sp_counted_ptr_inplaceIN5Catch5clara6detail15BoundFlagLambdaIZNS3_4HelpC4ERbEUlbE_EESaIS8_ELN9__gnu_cxx12_Lock_policyE2EEEEaSEDn
FN:78,_ZNSt15__allocated_ptrISaISt23_Sp_counted_ptr_inplaceIN5Catch8TestSpec10TagPatternESaIS3_ELN9__gnu_cxx12_Lock_policyE2EEEEaSEDn
FN:78,_ZNSt15__allocated_ptrISaISt23_Sp_counted_ptr_inplaceIN5Catch8TestSpec11NamePatternESaIS3_ELN9__gnu_cxx12_Lock_policyE2EEEEaSEDn
FN:78,_ZNSt15__allocated_ptrISaISt23_Sp_counted_ptr_inplaceIN5Catch17ReporterRegistrarINS1_11XmlReporterEE15ReporterFactoryESaIS5_ELN9__gnu_cxx12_Lock_policyE2EEEEaSEDn
FN:78,_ZNSt15__allocated_ptrISaISt23_Sp_counted_ptr_inplaceIN5Catch5clara6detail13BoundValueRefIdEESaIS5_ELN9__gnu_cxx12_Lock_policyE2EEEEaSEDn
FN:78,_ZNSt15__allocated_ptrISaISt23_Sp_counted_ptr_inplaceINSt8__detail4_NFAINSt7__cxx1112regex_traitsIcEEEESaIS6_ELN9__gnu_cxx12_Lock_policyE2EEEEaSEDn
FN:78,_ZNSt15__allocated_ptrISaISt23_Sp_counted_ptr_inplaceIN5Catch5clara6detail11BoundLambdaIZNS1_21makeCommandLineParserERNS1_10ConfigDataEEUlRKNSt7__cxx1112basic_stringIcSt11char_traitsIcESaIcEEEE4_EESaISG_ELN9__gnu_cxx12_Lock_policyE2EEEEaSEDn
FN:78,_ZNSt15__allocated_ptrISaISt23_Sp_counted_ptr_inplaceIN5Catch5clara6detail13BoundValueRefISt6vectorINSt7__cxx1112basic_stringIcSt11char_traitsIcESaIcEEESaISB_EEEESaISE_ELN9__gnu_cxx12_Lock_policyE2EEEEaSEDn
FN:78,_ZNSt15__allocated_ptrISaISt23_Sp_counted_ptr_inplaceIN5Catch5clara6detail11BoundLambdaIZNS1_21makeCommandLineParserERNS1_10ConfigDataEEUlbE9_EESaIS8_ELN9__gnu_cxx12_Lock_policyE2EEEEaSEDn
FN:78,_ZNSt15__allocated_ptrISaISt23_Sp_counted_ptr_inplaceIN5Catch5clara6detail11BoundLambdaIZNS1_21makeCommandLineParserERNS1_10ConfigDataEEUlRKNSt7__cxx1112basic_stringIcSt11char_traitsIcESaIcEEEE1_EESaISG_ELN9__gnu_cxx12_Lock_policyE2EEEEaSEDn
FN:85,_ZNSt15__allocated_ptrISaISt23_Sp_counted_ptr_inplaceIN5Catch22CumulativeReporterBaseINS1_13JunitReporterEE4NodeINS1_13TestCaseStatsENS4_11SectionNodeEEESaIS8_ELN9__gnu_cxx12_Lock_policyE2EEEE3getEv
FN:85,_ZNSt15__allocated_ptrISaISt23_Sp_counted_ptr_inplaceIN5Catch17ReporterRegistrarINS1_11XmlReporterEE15ReporterFactoryESaIS5_ELN9__gnu_cxx12_Lock_policyE2EEEE3getEv
FN:85,_ZNSt15__allocated_ptrISaISt23_Sp_counted_ptr_inplaceIN5Catch5clara6detail11BoundLambdaIZNS1_21makeCommandLineParserERNS1_10ConfigDataEEUlRKNSt7__cxx1112basic_stringIcSt11char_traitsIcESaIcEEEE_EESaISG_ELN9__gnu_cxx12_Lock_policyE2EEEE3getEv
FN:85,_ZNSt15__allocated_ptrISaISt23_Sp_counted_ptr_inplaceIN5Catch5clara6detail11BoundLambdaIZNS1_21makeCommandLineParserERNS1_10ConfigDataEEUliE8_EESaIS8_ELN9__gnu_cxx12_Lock_policyE2EEEE3getEv
FN:85,_ZNSt15__allocated_ptrISaISt23_Sp_counted_ptr_inplaceIN5Catch22CumulativeReporterBaseINS1_13JunitReporterEE11SectionNodeESaIS5_ELN9__gnu_cxx12_Lock_policyE2EEEE3getEv
FN:85,_ZNSt15__allocated_ptrISaISt23_Sp_counted_ptr_inplaceIN5Catch22CumulativeReporterBaseINS1_13JunitReporterEE4NodeINS1_12TestRunStatsENS5_INS1_14TestGroupStatsENS5_INS1_13TestCaseStatsENS4_11SectionNodeEEEEEEESaISC_ELN9__gnu_cxx12_Lock_policyE2EEEE3getEv
FN:85,_ZNSt15__allocated_ptrISaISt23_Sp_counted_ptr_inplaceINSt7__cxx1112basic_stringIcSt11char_traitsIcESaIcEEESaIS6_ELN9__gnu_cxx12_Lock_policyE2EEEE3getEv
FN:85,_ZNSt15__allocated_ptrISaISt23_Sp_counted_ptr_inplaceIN5Catch5clara6detail11BoundLambdaIZNS1_21makeCommandLineParserERNS1_10ConfigDataEEUlRKNSt7__cxx1112basic_stringIcSt11char_traitsIcESaIcEEEE1_EESaISG_ELN9__gnu_cxx12_Lock_policyE2EEEE3getEv
FN:85,_ZNSt15__allocated_ptrISaISt23_Sp_counted_ptr_inplaceIN5Catch5clara6detail12BoundFlagRefESaIS4_ELN9__gnu_cxx12_Lock_policyE2EEEE3getEv
FN:85,_ZNSt15__allocated_ptrISaISt23_Sp_counted_ptr_inplaceIN5Catch5clara6detail11BoundLambdaIZNS1_21makeCommandLineParserERNS1_10ConfigDataEEUlRKNSt7__cxx1112basic_stringIcSt11char_traitsIcESaIcEEEE5_EESaISG_ELN9__gnu_cxx12_Lock_policyE2EEEE3getEv
FN:85,_ZNSt15__allocated_ptrISaISt23_Sp_counted_ptr_inplaceIN5Catch5clara6detail11BoundLambdaIZNS1_21makeCommandLineParserERNS1_10ConfigDataEEUlbE9_EESaIS8_ELN9__gnu_cxx12_Lock_policyE2EEEE3getEv
FN:85,_ZNSt15__allocated_ptrISaISt23_Sp_counted_ptr_inplaceIN5Catch5clara6detail13BoundValueRefIjEESaIS5_ELN9__gnu_cxx12_Lock_policyE2EEEE3getEv
FN:85,_ZNSt15__allocated_ptrISaISt23_Sp_counted_ptr_inplaceIN5Catch5clara6detail15BoundFlagLambdaIZNS3_4HelpC4ERbEUlbE_EESaIS8_ELN9__gnu_cxx12_Lock_policyE2EEEE3getEv
FN:85,_ZNSt15__allocated_ptrISaISt23_Sp_counted_ptr_inplaceIN5Catch17ReporterRegistrarINS1_15CompactReporterEE15ReporterFactoryESaIS5_ELN9__gnu_cxx12_Lock_policyE2EEEE3getEv
FN:85,_ZNSt15__allocated_ptrISaISt23_Sp_counted_ptr_inplaceIN5Catch5clara6detail13BoundValueRefIdEESaIS5_ELN9__gnu_cxx12_Lock_policyE2EEEE3getEv
FN:85,_ZNSt15__allocated_ptrISaISt23_Sp_counted_ptr_inplaceIN5Catch5clara6detail11BoundLambdaIZNS1_21makeCommandLineParserERNS1_10ConfigDataEEUlRKNSt7__cxx1112basic_stringIcSt11char_traitsIcESaIcEEEE2_EESaISG_ELN9__gnu_cxx12_Lock_policyE2EEEE3getEv
FN:85,_ZNSt15__allocated_ptrISaISt23_Sp_counted_ptr_inplaceIN5Catch8TestSpec15ExcludedPatternESaIS3_ELN9__gnu_cxx12_Lock_policyE2EEEE3getEv
FN:85,_ZNSt15__allocated_ptrISaISt23_Sp_counted_ptr_inplaceIN5Catch16TestCaseTracking14SectionTrackerESaIS3_ELN9__gnu_cxx12_Lock_policyE2EEEE3getEv
FN:85,_ZNSt15__allocated_ptrISaISt23_Sp_counted_ptr_inplaceIN5Catch22CumulativeReporterBaseINS1_13JunitReporterEE4NodeINS1_14TestGroupStatsENS5_INS1_13TestCaseStatsENS4_11SectionNodeEEEEESaISA_ELN9__gnu_cxx12_Lock_policyE2EEEE3getEv
FN:85,_ZNSt15__allocated_ptrISaISt23_Sp_counted_ptr_inplaceIN5Catch6ConfigESaIS2_ELN9__gnu_cxx12_Lock_policyE2EEEE3getEv
FN:85,_ZNSt15__allocated_ptrISaISt23_Sp_counted_ptr_inplaceIN5Catch5clara6detail11BoundLambdaIZNS1_21makeCommandLineParserERNS1_10ConfigDataEEUlRKNSt7__cxx1112basic_stringIcSt11char_traitsIcESaIcEEEE4_EESaISG_ELN9__gnu_cxx12_Lock_policyE2EEEE3getEv
FN:85,_ZNSt15__allocated_ptrISaISt23_Sp_counted_ptr_inplaceIN5Catch5clara6detail15BoundFlagLambdaIZNS1_21makeCommandLineParserERNS1_10ConfigDataEEUlbE7_EESaIS8_ELN9__gnu_cxx12_Lock_policyE2EEEE3getEv
FN:85,_ZNSt15__allocated_ptrISaISt23_Sp_counted_ptr_inplaceIN5Catch8TestSpec10TagPatternESaIS3_ELN9__gnu_cxx12_Lock_policyE2EEEE3getEv
FN:85,_ZNSt15__allocated_ptrISaISt23_Sp_counted_ptr_inplaceIN5Catch5clara6detail13BoundValueRefINSt7__cxx1112basic_stringIcSt11char_traitsIcESaIcEEEEESaISB_ELN9__gnu_cxx12_Lock_policyE2EEEE3getEv
FN:85,_ZNSt15__allocated_ptrISaISt23_Sp_counted_ptr_inplaceIN5Catch5clara6detail11BoundLambdaIZNS1_21makeCommandLineParserERNS1_10ConfigDataEEUlRKNSt7__cxx1112basic_stringIcSt11char_traitsIcESaIcEEEE6_EESaISG_ELN9__gnu_cxx12_Lock_policyE2EEEE3getEv
FN:85,_ZNSt15__allocated_ptrISaISt23_Sp_counted_ptr_inplaceIN5Catch5clara6detail11BoundLambdaIZNS1_21makeCommandLineParserERNS1_10ConfigDataEEUlRKNSt7__cxx1112basic_stringIcSt11char_traitsIcESaIcEEEE3_EESaISG_ELN9__gnu_cxx12_Lock_policyE2EEEE3getEv
FN:85,_ZNSt15__allocated_ptrISaISt23_Sp_counted_ptr_inplaceINSt8__detail4_NFAINSt7__cxx1112regex_traitsIcEEEESaIS6_ELN9__gnu_cxx12_Lock_policyE2EEEE3getEv
FN:85,_ZNSt15__allocated_ptrISaISt23_Sp_counted_ptr_inplaceIN5Catch8TestSpec11NamePatternESaIS3_ELN9__gnu_cxx12_Lock_policyE2EEEE3getEv
FN:85,_ZNSt15__allocated_ptrISaISt23_Sp_counted_ptr_inplaceIN5Catch5clara6detail11BoundLambdaIZNS1_21makeCommandLineParserERNS1_10ConfigDataEEUlRKNSt7__cxx1112basic_stringIcSt11char_traitsIcESaIcEEEE0_EESaISG_ELN9__gnu_cxx12_Lock_policyE2EEEE3getEv
FN:85,_ZNSt15__allocated_ptrISaISt23_Sp_counted_ptr_inplaceIN5Catch5clara6detail13BoundValueRefISt6vectorINSt7__cxx1112basic_stringIcSt11char_traitsIcESaIcEEESaISB_EEEESaISE_ELN9__gnu_cxx12_Lock_policyE2EEEE3getEv
FN:85,_ZNSt15__allocated_ptrISaISt23_Sp_counted_ptr_inplaceIN5Catch17ReporterRegistrarINS1_15ConsoleReporterEE15ReporterFactoryESaIS5_ELN9__gnu_cxx12_Lock_policyE2EEEE3getEv
FN:85,_ZNSt15__allocated_ptrISaISt23_Sp_counted_ptr_inplaceIN5Catch10Generators16GeneratorTrackerESaIS3_ELN9__gnu_cxx12_Lock_policyE2EEEE3getEv
FN:85,_ZNSt15__allocated_ptrISaISt23_Sp_counted_ptr_inplaceIN5Catch17ReporterRegistrarINS1_13JunitReporterEE15ReporterFactoryESaIS5_ELN9__gnu_cxx12_Lock_policyE2EEEE3getEv
FN:88,_ZNSt15__allocated_ptrISaISt23_Sp_counted_ptr_inplaceINSt7__cxx1112basic_stringIcSt11char_traitsIcESaIcEEESaIS6_ELN9__gnu_cxx12_Lock_policyE2EEEE10_S_raw_ptrEPSA_
FN:88,_ZNSt15__allocated_ptrISaISt23_Sp_counted_ptr_inplaceIN5Catch8TestSpec10TagPatternESaIS3_ELN9__gnu_cxx12_Lock_policyE2EEEE10_S_raw_ptrEPS7_
FN:88,_ZNSt15__allocated_ptrISaISt23_Sp_counted_ptr_inplaceIN5Catch5clara6detail13BoundValueRefIdEESaIS5_ELN9__gnu_cxx12_Lock_policyE2EEEE10_S_raw_ptrEPS9_
FN:88,_ZNSt15__allocated_ptrISaISt23_Sp_counted_ptr_inplaceIN5Catch22CumulativeReporterBaseINS1_13JunitReporterEE4NodeINS1_13TestCaseStatsENS4_11SectionNodeEEESaIS8_ELN9__gnu_cxx12_Lock_policyE2EEEE10_S_raw_ptrEPSC_
FN:88,_ZNSt15__allocated_ptrISaISt23_Sp_counted_ptr_inplaceIN5Catch17ReporterRegistrarINS1_13JunitReporterEE15ReporterFactoryESaIS5_ELN9__gnu_cxx12_Lock_policyE2EEEE10_S_raw_ptrEPS9_
FN:88,_ZNSt15__allocated_ptrISaISt23_Sp_counted_ptr_inplaceIN5Catch22CumulativeReporterBaseINS1_13JunitReporterEE4NodeINS1_14TestGroupStatsENS5_INS1_13TestCaseStatsENS4_11SectionNodeEEEEESaISA_ELN9__gnu_cxx12_Lock_policyE2EEEE10_S_raw_ptrEPSE_
FN:88,_ZNSt15__allocated_ptrISaISt23_Sp_counted_ptr_inplaceIN5Catch6ConfigESaIS2_ELN9__gnu_cxx12_Lock_policyE2EEEE10_S_raw_ptrEPS6_
FN:88,_ZNSt15__allocated_ptrISaISt23_Sp_counted_ptr_inplaceIN5Catch5clara6detail11BoundLambdaIZNS1_21makeCommandLineParserERNS1_10ConfigDataEEUlRKNSt7__cxx1112basic_stringIcSt11char_traitsIcESaIcEEEE3_EESaISG_ELN9__gnu_cxx12_Lock_policyE2EEEE10_S_raw_ptrEPSK_
FN:88,_ZNSt15__allocated_ptrISaISt23_Sp_counted_ptr_inplaceIN5Catch22CumulativeReporterBaseINS1_13JunitReporterEE4NodeINS1_12TestRunStatsENS5_INS1_14TestGroupStatsENS5_INS1_13TestCaseStatsENS4_11SectionNodeEEEEEEESaISC_ELN9__gnu_cxx12_Lock_policyE2EEEE10_S_raw_ptrEPSG_
FN:88,_ZNSt15__allocated_ptrISaISt23_Sp_counted_ptr_inplaceIN5Catch5clara6detail11BoundLambdaIZNS1_21makeCommandLineParserERNS1_10ConfigDataEEUlbE9_EESaIS8_ELN9__gnu_cxx12_Lock_policyE2EEEE10_S_raw_ptrEPSC_
FN:88,_ZNSt15__allocated_ptrISaISt23_Sp_counted_ptr_inplaceIN5Catch5clara6detail11BoundLambdaIZNS1_21makeCommandLineParserERNS1_10ConfigDataEEUliE8_EESaIS8_ELN9__gnu_cxx12_Lock_policyE2EEEE10_S_raw_ptrEPSC_
FN:88,_ZNSt15__allocated_ptrISaISt23_Sp_counted_ptr_inplaceIN5Catch22CumulativeReporterBaseINS1_13JunitReporterEE11SectionNodeESaIS5_ELN9__gnu_cxx12_Lock_policyE2EEEE10_S_raw_ptrEPS9_
FN:88,_ZNSt15__allocated_ptrISaISt23_Sp_counted_ptr_inplaceIN5Catch5clara6detail12BoundFlagRefESaIS4_ELN9__gnu_cxx12_Lock_policyE2EEEE10_S_raw_ptrEPS8_
FN:88,_ZNSt15__allocated_ptrISaISt23_Sp_counted_ptr_inplaceIN5Catch17ReporterRegistrarINS1_15CompactReporterEE15ReporterFactoryESaIS5_ELN9__gnu_cxx12_Lock_policyE2EEEE10_S_raw_ptrEPS9_
FN:88,_ZNSt15__allocated_ptrISaISt23_Sp_counted_ptr_inplaceIN5Catch5clara6detail11BoundLambdaIZNS1_21makeCommandLineParserERNS1_10ConfigDataEEUlRKNSt7__cxx1112basic_stringIcSt11char_traitsIcESaIcEEEE5_EESaISG_ELN9__gnu_cxx12_Lock_policyE2EEEE10_S_raw_ptrEPSK_
FN:88,_ZNSt15__allocated_ptrISaISt23_Sp_counted_ptr_inplaceIN5Catch5clara6detail11BoundLambdaIZNS1_21makeCommandLineParserERNS1_10ConfigDataEEUlRKNSt7__cxx1112basic_stringIcSt11char_traitsIcESaIcEEEE6_EESaISG_ELN9__gnu_cxx12_Lock_policyE2EEEE10_S_raw_ptrEPSK_
FN:88,_ZNSt15__allocated_ptrISaISt23_Sp_counted_ptr_inplaceIN5Catch8TestSpec15ExcludedPatternESaIS3_ELN9__gnu_cxx12_Lock_policyE2EEEE10_S_raw_ptrEPS7_
FN:88,_ZNSt15__allocated_ptrISaISt23_Sp_counted_ptr_inplaceIN5Catch5clara6detail13BoundValueRefIjEESaIS5_ELN9__gnu_cxx12_Lock_policyE2EEEE10_S_raw_ptrEPS9_
FN:88,_ZNSt15__allocated_ptrISaISt23_Sp_counted_ptr_inplaceIN5Catch17ReporterRegistrarINS1_11XmlReporterEE15ReporterFactoryESaIS5_ELN9__gnu_cxx12_Lock_policyE2EEEE10_S_raw_ptrEPS9_
FN:88,_ZNSt15__allocated_ptrISaISt23_Sp_counted_ptr_inplaceIN5Catch5clara6detail11BoundLambdaIZNS1_21makeCommandLineParserERNS1_10ConfigDataEEUlRKNSt7__cxx1112basic_stringIcSt11char_traitsIcESaIcEEEE_EESaISG_ELN9__gnu_cxx12_Lock_policyE2EEEE10_S_raw_ptrEPSK_
FN:88,_ZNSt15__allocated_ptrISaISt23_Sp_counted_ptr_inplaceIN5Catch5clara6detail11BoundLambdaIZNS1_21makeCommandLineParserERNS1_10ConfigDataEEUlRKNSt7__cxx1112basic_stringIcSt11char_traitsIcESaIcEEEE0_EESaISG_ELN9__gnu_cxx12_Lock_policyE2EEEE10_S_raw_ptrEPSK_
FN:88,_ZNSt15__allocated_ptrISaISt23_Sp_counted_ptr_inplaceIN5Catch5clara6detail15BoundFlagLambdaIZNS3_4HelpC4ERbEUlbE_EESaIS8_ELN9__gnu_cxx12_Lock_policyE2EEEE10_S_raw_ptrEPSC_
FN:88,_ZNSt15__allocated_ptrISaISt23_Sp_counted_ptr_inplaceIN5Catch8TestSpec11NamePatternESaIS3_ELN9__gnu_cxx12_Lock_policyE2EEEE10_S_raw_ptrEPS7_
FN:88,_ZNSt15__allocated_ptrISaISt23_Sp_counted_ptr_inplaceIN5Catch5clara6detail11BoundLambdaIZNS1_21makeCommandLineParserERNS1_10ConfigDataEEUlRKNSt7__cxx1112basic_stringIcSt11char_traitsIcESaIcEEEE2_EESaISG_ELN9__gnu_cxx12_Lock_policyE2EEEE10_S_raw_ptrEPSK_
FN:88,_ZNSt15__allocated_ptrISaISt23_Sp_counted_ptr_inplaceIN5Catch5clara6detail13BoundValueRefINSt7__cxx1112basic_stringIcSt11char_traitsIcESaIcEEEEESaISB_ELN9__gnu_cxx12_Lock_policyE2EEEE10_S_raw_ptrEPSF_
FN:88,_ZNSt15__allocated_ptrISaISt23_Sp_counted_ptr_inplaceIN5Catch10Generators16GeneratorTrackerESaIS3_ELN9__gnu_cxx12_Lock_policyE2EEEE10_S_raw_ptrEPS7_
FN:88,_ZNSt15__allocated_ptrISaISt23_Sp_counted_ptr_inplaceIN5Catch5clara6detail13BoundValueRefISt6vectorINSt7__cxx1112basic_stringIcSt11char_traitsIcESaIcEEESaISB_EEEESaISE_ELN9__gnu_cxx12_Lock_policyE2EEEE10_S_raw_ptrEPSI_
FN:88,_ZNSt15__allocated_ptrISaISt23_Sp_counted_ptr_inplaceINSt8__detail4_NFAINSt7__cxx1112regex_traitsIcEEEESaIS6_ELN9__gnu_cxx12_Lock_policyE2EEEE10_S_raw_ptrEPSA_
FN:88,_ZNSt15__allocated_ptrISaISt23_Sp_counted_ptr_inplaceIN5Catch5clara6detail11BoundLambdaIZNS1_21makeCommandLineParserERNS1_10ConfigDataEEUlRKNSt7__cxx1112basic_stringIcSt11char_traitsIcESaIcEEEE1_EESaISG_ELN9__gnu_cxx12_Lock_policyE2EEEE10_S_raw_ptrEPSK_
FN:88,_ZNSt15__allocated_ptrISaISt23_Sp_counted_ptr_inplaceIN5Catch5clara6detail11BoundLambdaIZNS1_21makeCommandLineParserERNS1_10ConfigDataEEUlRKNSt7__cxx1112basic_stringIcSt11char_traitsIcESaIcEEEE4_EESaISG_ELN9__gnu_cxx12_Lock_policyE2EEEE10_S_raw_ptrEPSK_
FN:88,_ZNSt15__allocated_ptrISaISt23_Sp_counted_ptr_inplaceIN5Catch17ReporterRegistrarINS1_15ConsoleReporterEE15ReporterFactoryESaIS5_ELN9__gnu_cxx12_Lock_policyE2EEEE10_S_raw_ptrEPS9_
FN:88,_ZNSt15__allocated_ptrISaISt23_Sp_counted_ptr_inplaceIN5Catch16TestCaseTracking14SectionTrackerESaIS3_ELN9__gnu_cxx12_Lock_policyE2EEEE10_S_raw_ptrEPS7_
FN:88,_ZNSt15__allocated_ptrISaISt23_Sp_counted_ptr_inplaceIN5Catch5clara6detail15BoundFlagLambdaIZNS1_21makeCommandLineParserERNS1_10ConfigDataEEUlbE7_EESaIS8_ELN9__gnu_cxx12_Lock_policyE2EEEE10_S_raw_ptrEPSC_
FN:102,_ZSt18__allocate_guardedISaISt23_Sp_counted_ptr_inplaceIN5Catch6ConfigESaIS2_ELN9__gnu_cxx12_Lock_policyE2EEEESt15__allocated_ptrIT_ERS9_
FN:102,_ZSt18__allocate_guardedISaISt23_Sp_counted_ptr_inplaceIN5Catch16TestCaseTracking14SectionTrackerESaIS3_ELN9__gnu_cxx12_Lock_policyE2EEEESt15__allocated_ptrIT_ERSA_
FN:102,_ZSt18__allocate_guardedISaISt23_Sp_counted_ptr_inplaceIN5Catch5clara6detail13BoundValueRefISt6vectorINSt7__cxx1112basic_stringIcSt11char_traitsIcESaIcEEESaISB_EEEESaISE_ELN9__gnu_cxx12_Lock_policyE2EEEESt15__allocated_ptrIT_ERSL_
FN:102,_ZSt18__allocate_guardedISaISt23_Sp_counted_ptr_inplaceIN5Catch5clara6detail13BoundValueRefIdEESaIS5_ELN9__gnu_cxx12_Lock_policyE2EEEESt15__allocated_ptrIT_ERSC_
FN:102,_ZSt18__allocate_guardedISaISt23_Sp_counted_ptr_inplaceINSt7__cxx1112basic_stringIcSt11char_traitsIcESaIcEEESaIS6_ELN9__gnu_cxx12_Lock_policyE2EEEESt15__allocated_ptrIT_ERSD_
FN:102,_ZSt18__allocate_guardedISaISt23_Sp_counted_ptr_inplaceIN5Catch17ReporterRegistrarINS1_13JunitReporterEE15ReporterFactoryESaIS5_ELN9__gnu_cxx12_Lock_policyE2EEEESt15__allocated_ptrIT_ERSC_
FN:102,_ZSt18__allocate_guardedISaISt23_Sp_counted_ptr_inplaceIN5Catch22CumulativeReporterBaseINS1_13JunitReporterEE11SectionNodeESaIS5_ELN9__gnu_cxx12_Lock_policyE2EEEESt15__allocated_ptrIT_ERSC_
FN:102,_ZSt18__allocate_guardedISaISt23_Sp_counted_ptr_inplaceIN5Catch22CumulativeReporterBaseINS1_13JunitReporterEE4NodeINS1_14TestGroupStatsENS5_INS1_13TestCaseStatsENS4_11SectionNodeEEEEESaISA_ELN9__gnu_cxx12_Lock_policyE2EEEESt15__allocated_ptrIT_ERSH_
FN:102,_ZSt18__allocate_guardedISaISt23_Sp_counted_ptr_inplaceIN5Catch5clara6detail11BoundLambdaIZNS1_21makeCommandLineParserERNS1_10ConfigDataEEUlRKNSt7__cxx1112basic_stringIcSt11char_traitsIcESaIcEEEE5_EESaISG_ELN9__gnu_cxx12_Lock_policyE2EEEESt15__allocated_ptrIT_ERSN_
FN:102,_ZSt18__allocate_guardedISaISt23_Sp_counted_ptr_inplaceIN5Catch5clara6detail11BoundLambdaIZNS1_21makeCommandLineParserERNS1_10ConfigDataEEUlRKNSt7__cxx1112basic_stringIcSt11char_traitsIcESaIcEEEE0_EESaISG_ELN9__gnu_cxx12_Lock_policyE2EEEESt15__allocated_ptrIT_ERSN_
FN:102,_ZSt18__allocate_guardedISaISt23_Sp_counted_ptr_inplaceIN5Catch5clara6detail11BoundLambdaIZNS1_21makeCommandLineParserERNS1_10ConfigDataEEUlRKNSt7__cxx1112basic_stringIcSt11char_traitsIcESaIcEEEE2_EESaISG_ELN9__gnu_cxx12_Lock_policyE2EEEESt15__allocated_ptrIT_ERSN_
FN:102,_ZSt18__allocate_guardedISaISt23_Sp_counted_ptr_inplaceIN5Catch8TestSpec11NamePatternESaIS3_ELN9__gnu_cxx12_Lock_policyE2EEEESt15__allocated_ptrIT_ERSA_
FN:102,_ZSt18__allocate_guardedISaISt23_Sp_counted_ptr_inplaceIN5Catch17ReporterRegistrarINS1_15CompactReporterEE15ReporterFactoryESaIS5_ELN9__gnu_cxx12_Lock_policyE2EEEESt15__allocated_ptrIT_ERSC_
FN:102,_ZSt18__allocate_guardedISaISt23_Sp_counted_ptr_inplaceIN5Catch5clara6detail13BoundValueRefIjEESaIS5_ELN9__gnu_cxx12_Lock_policyE2EEEESt15__allocated_ptrIT_ERSC_
FN:102,_ZSt18__allocate_guardedISaISt23_Sp_counted_ptr_inplaceIN5Catch5clara6detail11BoundLambdaIZNS1_21makeCommandLineParserERNS1_10ConfigDataEEUlRKNSt7__cxx1112basic_stringIcSt11char_traitsIcESaIcEEEE4_EESaISG_ELN9__gnu_cxx12_Lock_policyE2EEEESt15__allocated_ptrIT_ERSN_
FN:102,_ZSt18__allocate_guardedISaISt23_Sp_counted_ptr_inplaceIN5Catch17ReporterRegistrarINS1_15ConsoleReporterEE15ReporterFactoryESaIS5_ELN9__gnu_cxx12_Lock_policyE2EEEESt15__allocated_ptrIT_ERSC_
FN:102,_ZSt18__allocate_guardedISaISt23_Sp_counted_ptr_inplaceIN5Catch5clara6detail11BoundLambdaIZNS1_21makeCommandLineParserERNS1_10ConfigDataEEUlRKNSt7__cxx1112basic_stringIcSt11char_traitsIcESaIcEEEE6_EESaISG_ELN9__gnu_cxx12_Lock_policyE2EEEESt15__allocated_ptrIT_ERSN_
FN:102,_ZSt18__allocate_guardedISaISt23_Sp_counted_ptr_inplaceIN5Catch10Generators16GeneratorTrackerESaIS3_ELN9__gnu_cxx12_Lock_policyE2EEEESt15__allocated_ptrIT_ERSA_
FN:102,_ZSt18__allocate_guardedISaISt23_Sp_counted_ptr_inplaceIN5Catch5clara6detail11BoundLambdaIZNS1_21makeCommandLineParserERNS1_10ConfigDataEEUlRKNSt7__cxx1112basic_stringIcSt11char_traitsIcESaIcEEEE1_EESaISG_ELN9__gnu_cxx12_Lock_policyE2EEEESt15__allocated_ptrIT_ERSN_
FN:102,_ZSt18__allocate_guardedISaISt23_Sp_counted_ptr_inplaceIN5Catch5clara6detail13BoundValueRefINSt7__cxx1112basic_stringIcSt11char_traitsIcESaIcEEEEESaISB_ELN9__gnu_cxx12_Lock_policyE2EEEESt15__allocated_ptrIT_ERSI_
FN:102,_ZSt18__allocate_guardedISaISt23_Sp_counted_ptr_inplaceIN5Catch5clara6detail11BoundLambdaIZNS1_21makeCommandLineParserERNS1_10ConfigDataEEUliE8_EESaIS8_ELN9__gnu_cxx12_Lock_policyE2EEEESt15__allocated_ptrIT_ERSF_
FN:102,_ZSt18__allocate_guardedISaISt23_Sp_counted_ptr_inplaceIN5Catch5clara6detail12BoundFlagRefESaIS4_ELN9__gnu_cxx12_Lock_policyE2EEEESt15__allocated_ptrIT_ERSB_
FN:102,_ZSt18__allocate_guardedISaISt23_Sp_counted_ptr_inplaceIN5Catch5clara6detail11BoundLambdaIZNS1_21makeCommandLineParserERNS1_10ConfigDataEEUlRKNSt7__cxx1112basic_stringIcSt11char_traitsIcESaIcEEEE_EESaISG_ELN9__gnu_cxx12_Lock_policyE2EEEESt15__allocated_ptrIT_ERSN_
FN:102,_ZSt18__allocate_guardedISaISt23_Sp_counted_ptr_inplaceIN5Catch5clara6detail11BoundLambdaIZNS1_21makeCommandLineParserERNS1_10ConfigDataEEUlbE9_EESaIS8_ELN9__gnu_cxx12_Lock_policyE2EEEESt15__allocated_ptrIT_ERSF_
FN:102,_ZSt18__allocate_guardedISaISt23_Sp_counted_ptr_inplaceINSt8__detail4_NFAINSt7__cxx1112regex_traitsIcEEEESaIS6_ELN9__gnu_cxx12_Lock_policyE2EEEESt15__allocated_ptrIT_ERSD_
FN:102,_ZSt18__allocate_guardedISaISt23_Sp_counted_ptr_inplaceIN5Catch22CumulativeReporterBaseINS1_13JunitReporterEE4NodeINS1_12TestRunStatsENS5_INS1_14TestGroupStatsENS5_INS1_13TestCaseStatsENS4_11SectionNodeEEEEEEESaISC_ELN9__gnu_cxx12_Lock_policyE2EEEESt15__allocated_ptrIT_ERSJ_
FN:102,_ZSt18__allocate_guardedISaISt23_Sp_counted_ptr_inplaceIN5Catch17ReporterRegistrarINS1_11XmlReporterEE15ReporterFactoryESaIS5_ELN9__gnu_cxx12_Lock_policyE2EEEESt15__allocated_ptrIT_ERSC_
FN:102,_ZSt18__allocate_guardedISaISt23_Sp_counted_ptr_inplaceIN5Catch5clara6detail15BoundFlagLambdaIZNS1_21makeCommandLineParserERNS1_10ConfigDataEEUlbE7_EESaIS8_ELN9__gnu_cxx12_Lock_policyE2EEEESt15__allocated_ptrIT_ERSF_
FN:102,_ZSt18__allocate_guardedISaISt23_Sp_counted_ptr_inplaceIN5Catch22CumulativeReporterBaseINS1_13JunitReporterEE4NodeINS1_13TestCaseStatsENS4_11SectionNodeEEESaIS8_ELN9__gnu_cxx12_Lock_policyE2EEEESt15__allocated_ptrIT_ERSF_
FN:102,_ZSt18__allocate_guardedISaISt23_Sp_counted_ptr_inplaceIN5Catch8TestSpec15ExcludedPatternESaIS3_ELN9__gnu_cxx12_Lock_policyE2EEEESt15__allocated_ptrIT_ERSA_
FN:102,_ZSt18__allocate_guardedISaISt23_Sp_counted_ptr_inplaceIN5Catch5clara6detail15BoundFlagLambdaIZNS3_4HelpC4ERbEUlbE_EESaIS8_ELN9__gnu_cxx12_Lock_policyE2EEEESt15__allocated_ptrIT_ERSF_
FN:102,_ZSt18__allocate_guardedISaISt23_Sp_counted_ptr_inplaceIN5Catch8TestSpec10TagPatternESaIS3_ELN9__gnu_cxx12_Lock_policyE2EEEESt15__allocated_ptrIT_ERSA_
FN:102,_ZSt18__allocate_guardedISaISt23_Sp_counted_ptr_inplaceIN5Catch5clara6detail11BoundLambdaIZNS1_21makeCommandLineParserERNS1_10ConfigDataEEUlRKNSt7__cxx1112basic_stringIcSt11char_traitsIcESaIcEEEE3_EESaISG_ELN9__gnu_cxx12_Lock_policyE2EEEESt15__allocated_ptrIT_ERSN_
FNDA:0,_ZNSt15__allocated_ptrISaISt23_Sp_counted_ptr_inplaceIN5Catch22CumulativeReporterBaseINS1_13JunitReporterEE4NodeINS1_12TestRunStatsENS5_INS1_14TestGroupStatsENS5_INS1_13TestCaseStatsENS4_11SectionNodeEEEEEEESaISC_ELN9__gnu_cxx12_Lock_policyE2EEEEC2ERSH_PSG_
FNDA:0,_ZNSt15__allocated_ptrISaISt23_Sp_counted_ptr_inplaceIN5Catch22CumulativeReporterBaseINS1_13JunitReporterEE11SectionNodeESaIS5_ELN9__gnu_cxx12_Lock_policyE2EEEEC2ERSA_PS9_
FNDA:0,_ZNSt15__allocated_ptrISaISt23_Sp_counted_ptr_inplaceINSt8__detail4_NFAINSt7__cxx1112regex_traitsIcEEEESaIS6_ELN9__gnu_cxx12_Lock_policyE2EEEEC2ERSB_PSA_
FNDA:98,_ZNSt15__allocated_ptrISaISt23_Sp_counted_ptr_inplaceIN5Catch5clara6detail13BoundValueRefIdEESaIS5_ELN9__gnu_cxx12_Lock_policyE2EEEEC2ERSA_PS9_
FNDA:196,_ZNSt15__allocated_ptrISaISt23_Sp_counted_ptr_inplaceIN5Catch5clara6detail13BoundValueRefIjEESaIS5_ELN9__gnu_cxx12_Lock_policyE2EEEEC2ERSA_PS9_
FNDA:98,_ZNSt15__allocated_ptrISaISt23_Sp_counted_ptr_inplaceIN5Catch5clara6detail11BoundLambdaIZNS1_21makeCommandLineParserERNS1_10ConfigDataEEUlRKNSt7__cxx1112basic_stringIcSt11char_traitsIcESaIcEEEE4_EESaISG_ELN9__gnu_cxx12_Lock_policyE2EEEEC2ERSL_PSK_
FNDA:98,_ZNSt15__allocated_ptrISaISt23_Sp_counted_ptr_inplaceIN5Catch5clara6detail11BoundLambdaIZNS1_21makeCommandLineParserERNS1_10ConfigDataEEUlRKNSt7__cxx1112basic_stringIcSt11char_traitsIcESaIcEEEE3_EESaISG_ELN9__gnu_cxx12_Lock_policyE2EEEEC2ERSL_PSK_
FNDA:98,_ZNSt15__allocated_ptrISaISt23_Sp_counted_ptr_inplaceIN5Catch5clara6detail11BoundLambdaIZNS1_21makeCommandLineParserERNS1_10ConfigDataEEUlRKNSt7__cxx1112basic_stringIcSt11char_traitsIcESaIcEEEE2_EESaISG_ELN9__gnu_cxx12_Lock_policyE2EEEEC2ERSL_PSK_
FNDA:98,_ZNSt15__allocated_ptrISaISt23_Sp_counted_ptr_inplaceIN5Catch5clara6detail11BoundLambdaIZNS1_21makeCommandLineParserERNS1_10ConfigDataEEUlRKNSt7__cxx1112basic_stringIcSt11char_traitsIcESaIcEEEE1_EESaISG_ELN9__gnu_cxx12_Lock_policyE2EEEEC2ERSL_PSK_
FNDA:98,_ZNSt15__allocated_ptrISaISt23_Sp_counted_ptr_inplaceIN5Catch5clara6detail11BoundLambdaIZNS1_21makeCommandLineParserERNS1_10ConfigDataEEUlRKNSt7__cxx1112basic_stringIcSt11char_traitsIcESaIcEEEE5_EESaISG_ELN9__gnu_cxx12_Lock_policyE2EEEEC2ERSL_PSK_
FNDA:98,_ZNSt15__allocated_ptrISaISt23_Sp_counted_ptr_inplaceIN5Catch5clara6detail11BoundLambdaIZNS1_21makeCommandLineParserERNS1_10ConfigDataEEUlRKNSt7__cxx1112basic_stringIcSt11char_traitsIcESaIcEEEE0_EESaISG_ELN9__gnu_cxx12_Lock_policyE2EEEEC2ERSL_PSK_
FNDA:98,_ZNSt15__allocated_ptrISaISt23_Sp_counted_ptr_inplaceIN5Catch5clara6detail11BoundLambdaIZNS1_21makeCommandLineParserERNS1_10ConfigDataEEUlbE9_EESaIS8_ELN9__gnu_cxx12_Lock_policyE2EEEEC2ERSD_PSC_
FNDA:98,_ZNSt15__allocated_ptrISaISt23_Sp_counted_ptr_inplaceIN5Catch5clara6detail11BoundLambdaIZNS1_21makeCommandLineParserERNS1_10ConfigDataEEUlRKNSt7__cxx1112basic_stringIcSt11char_traitsIcESaIcEEEE_EESaISG_ELN9__gnu_cxx12_Lock_policyE2EEEEC2ERSL_PSK_
FNDA:98,_ZNSt15__allocated_ptrISaISt23_Sp_counted_ptr_inplaceIN5Catch5clara6detail11BoundLambdaIZNS1_21makeCommandLineParserERNS1_10ConfigDataEEUliE8_EESaIS8_ELN9__gnu_cxx12_Lock_policyE2EEEEC2ERSD_PSC_
FNDA:98,_ZNSt15__allocated_ptrISaISt23_Sp_counted_ptr_inplaceIN5Catch5clara6detail11BoundLambdaIZNS1_21makeCommandLineParserERNS1_10ConfigDataEEUlRKNSt7__cxx1112basic_stringIcSt11char_traitsIcESaIcEEEE6_EESaISG_ELN9__gnu_cxx12_Lock_policyE2EEEEC2ERSL_PSK_
FNDA:98,_ZNSt15__allocated_ptrISaISt23_Sp_counted_ptr_inplaceIN5Catch17ReporterRegistrarINS1_11XmlReporterEE15ReporterFactoryESaIS5_ELN9__gnu_cxx12_Lock_policyE2EEEEC2ERSA_PS9_
FNDA:98,_ZNSt15__allocated_ptrISaISt23_Sp_counted_ptr_inplaceIN5Catch17ReporterRegistrarINS1_13JunitReporterEE15ReporterFactoryESaIS5_ELN9__gnu_cxx12_Lock_policyE2EEEEC2ERSA_PS9_
FNDA:0,_ZNSt15__allocated_ptrISaISt23_Sp_counted_ptr_inplaceIN5Catch22CumulativeReporterBaseINS1_13JunitReporterEE4NodeINS1_14TestGroupStatsENS5_INS1_13TestCaseStatsENS4_11SectionNodeEEEEESaISA_ELN9__gnu_cxx12_Lock_policyE2EEEEC2ERSF_PSE_
FNDA:0,_ZNSt15__allocated_ptrISaISt23_Sp_counted_ptr_inplaceIN5Catch22CumulativeReporterBaseINS1_13JunitReporterEE4NodeINS1_13TestCaseStatsENS4_11SectionNodeEEESaIS8_ELN9__gnu_cxx12_Lock_policyE2EEEEC2ERSD_PSC_
FNDA:98,_ZNSt15__allocated_ptrISaISt23_Sp_counted_ptr_inplaceIN5Catch17ReporterRegistrarINS1_15ConsoleReporterEE15ReporterFactoryESaIS5_ELN9__gnu_cxx12_Lock_policyE2EEEEC2ERSA_PS9_
FNDA:98,_ZNSt15__allocated_ptrISaISt23_Sp_counted_ptr_inplaceIN5Catch17ReporterRegistrarINS1_15CompactReporterEE15ReporterFactoryESaIS5_ELN9__gnu_cxx12_Lock_policyE2EEEEC2ERSA_PS9_
FNDA:196,_ZNSt15__allocated_ptrISaISt23_Sp_counted_ptr_inplaceIN5Catch5clara6detail13BoundValueRefISt6vectorINSt7__cxx1112basic_stringIcSt11char_traitsIcESaIcEEESaISB_EEEESaISE_ELN9__gnu_cxx12_Lock_policyE2EEEEC2ERSJ_PSI_
FNDA:98,_ZNSt15__allocated_ptrISaISt23_Sp_counted_ptr_inplaceIN5Catch5clara6detail15BoundFlagLambdaIZNS1_21makeCommandLineParserERNS1_10ConfigDataEEUlbE7_EESaIS8_ELN9__gnu_cxx12_Lock_policyE2EEEEC2ERSD_PSC_
FNDA:98,_ZNSt15__allocated_ptrISaISt23_Sp_counted_ptr_inplaceIN5Catch5clara6detail15BoundFlagLambdaIZNS3_4HelpC4ERbEUlbE_EESaIS8_ELN9__gnu_cxx12_Lock_policyE2EEEEC2ERSD_PSC_
FNDA:28,_ZNSt15__allocated_ptrISaISt23_Sp_counted_ptr_inplaceIN5Catch8TestSpec10TagPatternESaIS3_ELN9__gnu_cxx12_Lock_policyE2EEEEC2ERS8_PS7_
FNDA:0,_ZNSt15__allocated_ptrISaISt23_Sp_counted_ptr_inplaceIN5Catch8TestSpec15ExcludedPatternESaIS3_ELN9__gnu_cxx12_Lock_policyE2EEEEC2ERS8_PS7_
FNDA:44,_ZNSt15__allocated_ptrISaISt23_Sp_counted_ptr_inplaceIN5Catch8TestSpec11NamePatternESaIS3_ELN9__gnu_cxx12_Lock_policyE2EEEEC2ERS8_PS7_
FNDA:1508,_ZNSt15__allocated_ptrISaISt23_Sp_counted_ptr_inplaceIN5Catch16TestCaseTracking14SectionTrackerESaIS3_ELN9__gnu_cxx12_Lock_policyE2EEEEC2ERS8_PS7_
FNDA:86,_ZNSt15__allocated_ptrISaISt23_Sp_counted_ptr_inplaceIN5Catch6ConfigESaIS2_ELN9__gnu_cxx12_Lock_policyE2EEEEC2ERS7_PS6_
FNDA:42,_ZNSt15__allocated_ptrISaISt23_Sp_counted_ptr_inplaceIN5Catch10Generators16GeneratorTrackerESaIS3_ELN9__gnu_cxx12_Lock_policyE2EEEEC2ERS8_PS7_
FNDA:1078,_ZNSt15__allocated_ptrISaISt23_Sp_counted_ptr_inplaceIN5Catch5clara6detail12BoundFlagRefESaIS4_ELN9__gnu_cxx12_Lock_policyE2EEEEC2ERS9_PS8_
FNDA:294,_ZNSt15__allocated_ptrISaISt23_Sp_counted_ptr_inplaceIN5Catch5clara6detail13BoundValueRefINSt7__cxx1112basic_stringIcSt11char_traitsIcESaIcEEEEESaISB_ELN9__gnu_cxx12_Lock_policyE2EEEEC2ERSG_PSF_
FNDA:294,_ZNSt15__allocated_ptrISaISt23_Sp_counted_ptr_inplaceINSt7__cxx1112basic_stringIcSt11char_traitsIcESaIcEEESaIS6_ELN9__gnu_cxx12_Lock_policyE2EEEEC2ERSB_PSA_
FNDA:0,_ZNSt15__allocated_ptrISaISt23_Sp_counted_ptr_inplaceIN5Catch22CumulativeReporterBaseINS1_13JunitReporterEE4NodeINS1_12TestRunStatsENS5_INS1_14TestGroupStatsENS5_INS1_13TestCaseStatsENS4_11SectionNodeEEEEEEESaISC_ELN9__gnu_cxx12_Lock_policyE2EEEED2Ev
FNDA:0,_ZNSt15__allocated_ptrISaISt23_Sp_counted_ptr_inplaceIN5Catch22CumulativeReporterBaseINS1_13JunitReporterEE11SectionNodeESaIS5_ELN9__gnu_cxx12_Lock_policyE2EEEED2Ev
FNDA:0,_ZNSt15__allocated_ptrISaISt23_Sp_counted_ptr_inplaceINSt8__detail4_NFAINSt7__cxx1112regex_traitsIcEEEESaIS6_ELN9__gnu_cxx12_Lock_policyE2EEEED2Ev
FNDA:98,_ZNSt15__allocated_ptrISaISt23_Sp_counted_ptr_inplaceIN5Catch5clara6detail13BoundValueRefIdEESaIS5_ELN9__gnu_cxx12_Lock_policyE2EEEED2Ev
FNDA:196,_ZNSt15__allocated_ptrISaISt23_Sp_counted_ptr_inplaceIN5Catch5clara6detail13BoundValueRefIjEESaIS5_ELN9__gnu_cxx12_Lock_policyE2EEEED2Ev
FNDA:98,_ZNSt15__allocated_ptrISaISt23_Sp_counted_ptr_inplaceIN5Catch5clara6detail11BoundLambdaIZNS1_21makeCommandLineParserERNS1_10ConfigDataEEUlRKNSt7__cxx1112basic_stringIcSt11char_traitsIcESaIcEEEE4_EESaISG_ELN9__gnu_cxx12_Lock_policyE2EEEED2Ev
FNDA:98,_ZNSt15__allocated_ptrISaISt23_Sp_counted_ptr_inplaceIN5Catch5clara6detail11BoundLambdaIZNS1_21makeCommandLineParserERNS1_10ConfigDataEEUlRKNSt7__cxx1112basic_stringIcSt11char_traitsIcESaIcEEEE3_EESaISG_ELN9__gnu_cxx12_Lock_policyE2EEEED2Ev
FNDA:98,_ZNSt15__allocated_ptrISaISt23_Sp_counted_ptr_inplaceIN5Catch5clara6detail11BoundLambdaIZNS1_21makeCommandLineParserERNS1_10ConfigDataEEUlRKNSt7__cxx1112basic_stringIcSt11char_traitsIcESaIcEEEE2_EESaISG_ELN9__gnu_cxx12_Lock_policyE2EEEED2Ev
FNDA:98,_ZNSt15__allocated_ptrISaISt23_Sp_counted_ptr_inplaceIN5Catch5clara6detail11BoundLambdaIZNS1_21makeCommandLineParserERNS1_10ConfigDataEEUlRKNSt7__cxx1112basic_stringIcSt11char_traitsIcESaIcEEEE1_EESaISG_ELN9__gnu_cxx12_Lock_policyE2EEEED2Ev
FNDA:98,_ZNSt15__allocated_ptrISaISt23_Sp_counted_ptr_inplaceIN5Catch5clara6detail11BoundLambdaIZNS1_21makeCommandLineParserERNS1_10ConfigDataEEUlRKNSt7__cxx1112basic_stringIcSt11char_traitsIcESaIcEEEE5_EESaISG_ELN9__gnu_cxx12_Lock_policyE2EEEED2Ev
FNDA:98,_ZNSt15__allocated_ptrISaISt23_Sp_counted_ptr_inplaceIN5Catch5clara6detail11BoundLambdaIZNS1_21makeCommandLineParserERNS1_10ConfigDataEEUlRKNSt7__cxx1112basic_stringIcSt11char_traitsIcESaIcEEEE0_EESaISG_ELN9__gnu_cxx12_Lock_policyE2EEEED2Ev
FNDA:98,_ZNSt15__allocated_ptrISaISt23_Sp_counted_ptr_inplaceIN5Catch5clara6detail11BoundLambdaIZNS1_21makeCommandLineParserERNS1_10ConfigDataEEUlbE9_EESaIS8_ELN9__gnu_cxx12_Lock_policyE2EEEED2Ev
FNDA:98,_ZNSt15__allocated_ptrISaISt23_Sp_counted_ptr_inplaceIN5Catch5clara6detail11BoundLambdaIZNS1_21makeCommandLineParserERNS1_10ConfigDataEEUlRKNSt7__cxx1112basic_stringIcSt11char_traitsIcESaIcEEEE_EESaISG_ELN9__gnu_cxx12_Lock_policyE2EEEED2Ev
FNDA:98,_ZNSt15__allocated_ptrISaISt23_Sp_counted_ptr_inplaceIN5Catch5clara6detail11BoundLambdaIZNS1_21makeCommandLineParserERNS1_10ConfigDataEEUliE8_EESaIS8_ELN9__gnu_cxx12_Lock_policyE2EEEED2Ev
FNDA:98,_ZNSt15__allocated_ptrISaISt23_Sp_counted_ptr_inplaceIN5Catch5clara6detail11BoundLambdaIZNS1_21makeCommandLineParserERNS1_10ConfigDataEEUlRKNSt7__cxx1112basic_stringIcSt11char_traitsIcESaIcEEEE6_EESaISG_ELN9__gnu_cxx12_Lock_policyE2EEEED2Ev
FNDA:98,_ZNSt15__allocated_ptrISaISt23_Sp_counted_ptr_inplaceIN5Catch17ReporterRegistrarINS1_11XmlReporterEE15ReporterFactoryESaIS5_ELN9__gnu_cxx12_Lock_policyE2EEEED2Ev
FNDA:98,_ZNSt15__allocated_ptrISaISt23_Sp_counted_ptr_inplaceIN5Catch17ReporterRegistrarINS1_13JunitReporterEE15ReporterFactoryESaIS5_ELN9__gnu_cxx12_Lock_policyE2EEEED2Ev
FNDA:0,_ZNSt15__allocated_ptrISaISt23_Sp_counted_ptr_inplaceIN5Catch22CumulativeReporterBaseINS1_13JunitReporterEE4NodeINS1_14TestGroupStatsENS5_INS1_13TestCaseStatsENS4_11SectionNodeEEEEESaISA_ELN9__gnu_cxx12_Lock_policyE2EEEED2Ev
FNDA:0,_ZNSt15__allocated_ptrISaISt23_Sp_counted_ptr_inplaceIN5Catch22CumulativeReporterBaseINS1_13JunitReporterEE4NodeINS1_13TestCaseStatsENS4_11SectionNodeEEESaIS8_ELN9__gnu_cxx12_Lock_policyE2EEEED2Ev
FNDA:98,_ZNSt15__allocated_ptrISaISt23_Sp_counted_ptr_inplaceIN5Catch17ReporterRegistrarINS1_15ConsoleReporterEE15ReporterFactoryESaIS5_ELN9__gnu_cxx12_Lock_policyE2EEEED2Ev
FNDA:98,_ZNSt15__allocated_ptrISaISt23_Sp_counted_ptr_inplaceIN5Catch17ReporterRegistrarINS1_15CompactReporterEE15ReporterFactoryESaIS5_ELN9__gnu_cxx12_Lock_policyE2EEEED2Ev
FNDA:196,_ZNSt15__allocated_ptrISaISt23_Sp_counted_ptr_inplaceIN5Catch5clara6detail13BoundValueRefISt6vectorINSt7__cxx1112basic_stringIcSt11char_traitsIcESaIcEEESaISB_EEEESaISE_ELN9__gnu_cxx12_Lock_policyE2EEEED2Ev
FNDA:98,_ZNSt15__allocated_ptrISaISt23_Sp_counted_ptr_inplaceIN5Catch5clara6detail15BoundFlagLambdaIZNS1_21makeCommandLineParserERNS1_10ConfigDataEEUlbE7_EESaIS8_ELN9__gnu_cxx12_Lock_policyE2EEEED2Ev
FNDA:98,_ZNSt15__allocated_ptrISaISt23_Sp_counted_ptr_inplaceIN5Catch5clara6detail15BoundFlagLambdaIZNS3_4HelpC4ERbEUlbE_EESaIS8_ELN9__gnu_cxx12_Lock_policyE2EEEED2Ev
FNDA:28,_ZNSt15__allocated_ptrISaISt23_Sp_counted_ptr_inplaceIN5Catch8TestSpec10TagPatternESaIS3_ELN9__gnu_cxx12_Lock_policyE2EEEED2Ev
FNDA:0,_ZNSt15__allocated_ptrISaISt23_Sp_counted_ptr_inplaceIN5Catch8TestSpec15ExcludedPatternESaIS3_ELN9__gnu_cxx12_Lock_policyE2EEEED2Ev
FNDA:44,_ZNSt15__allocated_ptrISaISt23_Sp_counted_ptr_inplaceIN5Catch8TestSpec11NamePatternESaIS3_ELN9__gnu_cxx12_Lock_policyE2EEEED2Ev
FNDA:1508,_ZNSt15__allocated_ptrISaISt23_Sp_counted_ptr_inplaceIN5Catch16TestCaseTracking14SectionTrackerESaIS3_ELN9__gnu_cxx12_Lock_policyE2EEEED2Ev
FNDA:86,_ZNSt15__allocated_ptrISaISt23_Sp_counted_ptr_inplaceIN5Catch6ConfigESaIS2_ELN9__gnu_cxx12_Lock_policyE2EEEED2Ev
FNDA:42,_ZNSt15__allocated_ptrISaISt23_Sp_counted_ptr_inplaceIN5Catch10Generators16GeneratorTrackerESaIS3_ELN9__gnu_cxx12_Lock_policyE2EEEED2Ev
FNDA:1078,_ZNSt15__allocated_ptrISaISt23_Sp_counted_ptr_inplaceIN5Catch5clara6detail12BoundFlagRefESaIS4_ELN9__gnu_cxx12_Lock_policyE2EEEED2Ev
FNDA:294,_ZNSt15__allocated_ptrISaISt23_Sp_counted_ptr_inplaceIN5Catch5clara6detail13BoundValueRefINSt7__cxx1112basic_stringIcSt11char_traitsIcESaIcEEEEESaISB_ELN9__gnu_cxx12_Lock_policyE2EEEED2Ev
FNDA:294,_ZNSt15__allocated_ptrISaISt23_Sp_counted_ptr_inplaceINSt7__cxx1112basic_stringIcSt11char_traitsIcESaIcEEESaIS6_ELN9__gnu_cxx12_Lock_policyE2EEEED2Ev
FNDA:0,_ZNSt15__allocated_ptrISaISt23_Sp_counted_ptr_inplaceIN5Catch22CumulativeReporterBaseINS1_13JunitReporterEE4NodeINS1_12TestRunStatsENS5_INS1_14TestGroupStatsENS5_INS1_13TestCaseStatsENS4_11SectionNodeEEEEEEESaISC_ELN9__gnu_cxx12_Lock_policyE2EEEEaSEDn
FNDA:0,_ZNSt15__allocated_ptrISaISt23_Sp_counted_ptr_inplaceIN5Catch22CumulativeReporterBaseINS1_13JunitReporterEE11SectionNodeESaIS5_ELN9__gnu_cxx12_Lock_policyE2EEEEaSEDn
FNDA:0,_ZNSt15__allocated_ptrISaISt23_Sp_counted_ptr_inplaceINSt8__detail4_NFAINSt7__cxx1112regex_traitsIcEEEESaIS6_ELN9__gnu_cxx12_Lock_policyE2EEEEaSEDn
FNDA:49,_ZNSt15__allocated_ptrISaISt23_Sp_counted_ptr_inplaceIN5Catch5clara6detail13BoundValueRefIdEESaIS5_ELN9__gnu_cxx12_Lock_policyE2EEEEaSEDn
FNDA:98,_ZNSt15__allocated_ptrISaISt23_Sp_counted_ptr_inplaceIN5Catch5clara6detail13BoundValueRefIjEESaIS5_ELN9__gnu_cxx12_Lock_policyE2EEEEaSEDn
FNDA:49,_ZNSt15__allocated_ptrISaISt23_Sp_counted_ptr_inplaceIN5Catch5clara6detail11BoundLambdaIZNS1_21makeCommandLineParserERNS1_10ConfigDataEEUlRKNSt7__cxx1112basic_stringIcSt11char_traitsIcESaIcEEEE4_EESaISG_ELN9__gnu_cxx12_Lock_policyE2EEEEaSEDn
FNDA:49,_ZNSt15__allocated_ptrISaISt23_Sp_counted_ptr_inplaceIN5Catch5clara6detail11BoundLambdaIZNS1_21makeCommandLineParserERNS1_10ConfigDataEEUlRKNSt7__cxx1112basic_stringIcSt11char_traitsIcESaIcEEEE3_EESaISG_ELN9__gnu_cxx12_Lock_policyE2EEEEaSEDn
FNDA:49,_ZNSt15__allocated_ptrISaISt23_Sp_counted_ptr_inplaceIN5Catch5clara6detail11BoundLambdaIZNS1_21makeCommandLineParserERNS1_10ConfigDataEEUlRKNSt7__cxx1112basic_stringIcSt11char_traitsIcESaIcEEEE2_EESaISG_ELN9__gnu_cxx12_Lock_policyE2EEEEaSEDn
FNDA:49,_ZNSt15__allocated_ptrISaISt23_Sp_counted_ptr_inplaceIN5Catch5clara6detail11BoundLambdaIZNS1_21makeCommandLineParserERNS1_10ConfigDataEEUlRKNSt7__cxx1112basic_stringIcSt11char_traitsIcESaIcEEEE1_EESaISG_ELN9__gnu_cxx12_Lock_policyE2EEEEaSEDn
FNDA:49,_ZNSt15__allocated_ptrISaISt23_Sp_counted_ptr_inplaceIN5Catch5clara6detail11BoundLambdaIZNS1_21makeCommandLineParserERNS1_10ConfigDataEEUlRKNSt7__cxx1112basic_stringIcSt11char_traitsIcESaIcEEEE5_EESaISG_ELN9__gnu_cxx12_Lock_policyE2EEEEaSEDn
FNDA:49,_ZNSt15__allocated_ptrISaISt23_Sp_counted_ptr_inplaceIN5Catch5clara6detail11BoundLambdaIZNS1_21makeCommandLineParserERNS1_10ConfigDataEEUlRKNSt7__cxx1112basic_stringIcSt11char_traitsIcESaIcEEEE0_EESaISG_ELN9__gnu_cxx12_Lock_policyE2EEEEaSEDn
FNDA:49,_ZNSt15__allocated_ptrISaISt23_Sp_counted_ptr_inplaceIN5Catch5clara6detail11BoundLambdaIZNS1_21makeCommandLineParserERNS1_10ConfigDataEEUlbE9_EESaIS8_ELN9__gnu_cxx12_Lock_policyE2EEEEaSEDn
FNDA:49,_ZNSt15__allocated_ptrISaISt23_Sp_counted_ptr_inplaceIN5Catch5clara6detail11BoundLambdaIZNS1_21makeCommandLineParserERNS1_10ConfigDataEEUlRKNSt7__cxx1112basic_stringIcSt11char_traitsIcESaIcEEEE_EESaISG_ELN9__gnu_cxx12_Lock_policyE2EEEEaSEDn
FNDA:49,_ZNSt15__allocated_ptrISaISt23_Sp_counted_ptr_inplaceIN5Catch5clara6detail11BoundLambdaIZNS1_21makeCommandLineParserERNS1_10ConfigDataEEUliE8_EESaIS8_ELN9__gnu_cxx12_Lock_policyE2EEEEaSEDn
FNDA:49,_ZNSt15__allocated_ptrISaISt23_Sp_counted_ptr_inplaceIN5Catch5clara6detail11BoundLambdaIZNS1_21makeCommandLineParserERNS1_10ConfigDataEEUlRKNSt7__cxx1112basic_stringIcSt11char_traitsIcESaIcEEEE6_EESaISG_ELN9__gnu_cxx12_Lock_policyE2EEEEaSEDn
FNDA:49,_ZNSt15__allocated_ptrISaISt23_Sp_counted_ptr_inplaceIN5Catch17ReporterRegistrarINS1_11XmlReporterEE15ReporterFactoryESaIS5_ELN9__gnu_cxx12_Lock_policyE2EEEEaSEDn
FNDA:49,_ZNSt15__allocated_ptrISaISt23_Sp_counted_ptr_inplaceIN5Catch17ReporterRegistrarINS1_13JunitReporterEE15ReporterFactoryESaIS5_ELN9__gnu_cxx12_Lock_policyE2EEEEaSEDn
FNDA:0,_ZNSt15__allocated_ptrISaISt23_Sp_counted_ptr_inplaceIN5Catch22CumulativeReporterBaseINS1_13JunitReporterEE4NodeINS1_14TestGroupStatsENS5_INS1_13TestCaseStatsENS4_11SectionNodeEEEEESaISA_ELN9__gnu_cxx12_Lock_policyE2EEEEaSEDn
FNDA:0,_ZNSt15__allocated_ptrISaISt23_Sp_counted_ptr_inplaceIN5Catch22CumulativeReporterBaseINS1_13JunitReporterEE4NodeINS1_13TestCaseStatsENS4_11SectionNodeEEESaIS8_ELN9__gnu_cxx12_Lock_policyE2EEEEaSEDn
FNDA:49,_ZNSt15__allocated_ptrISaISt23_Sp_counted_ptr_inplaceIN5Catch17ReporterRegistrarINS1_15ConsoleReporterEE15ReporterFactoryESaIS5_ELN9__gnu_cxx12_Lock_policyE2EEEEaSEDn
FNDA:49,_ZNSt15__allocated_ptrISaISt23_Sp_counted_ptr_inplaceIN5Catch17ReporterRegistrarINS1_15CompactReporterEE15ReporterFactoryESaIS5_ELN9__gnu_cxx12_Lock_policyE2EEEEaSEDn
FNDA:98,_ZNSt15__allocated_ptrISaISt23_Sp_counted_ptr_inplaceIN5Catch5clara6detail13BoundValueRefISt6vectorINSt7__cxx1112basic_stringIcSt11char_traitsIcESaIcEEESaISB_EEEESaISE_ELN9__gnu_cxx12_Lock_policyE2EEEEaSEDn
FNDA:49,_ZNSt15__allocated_ptrISaISt23_Sp_counted_ptr_inplaceIN5Catch5clara6detail15BoundFlagLambdaIZNS1_21makeCommandLineParserERNS1_10ConfigDataEEUlbE7_EESaIS8_ELN9__gnu_cxx12_Lock_policyE2EEEEaSEDn
FNDA:49,_ZNSt15__allocated_ptrISaISt23_Sp_counted_ptr_inplaceIN5Catch5clara6detail15BoundFlagLambdaIZNS3_4HelpC4ERbEUlbE_EESaIS8_ELN9__gnu_cxx12_Lock_policyE2EEEEaSEDn
FNDA:14,_ZNSt15__allocated_ptrISaISt23_Sp_counted_ptr_inplaceIN5Catch8TestSpec10TagPatternESaIS3_ELN9__gnu_cxx12_Lock_policyE2EEEEaSEDn
FNDA:0,_ZNSt15__allocated_ptrISaISt23_Sp_counted_ptr_inplaceIN5Catch8TestSpec15ExcludedPatternESaIS3_ELN9__gnu_cxx12_Lock_policyE2EEEEaSEDn
FNDA:22,_ZNSt15__allocated_ptrISaISt23_Sp_counted_ptr_inplaceIN5Catch8TestSpec11NamePatternESaIS3_ELN9__gnu_cxx12_Lock_policyE2EEEEaSEDn
FNDA:754,_ZNSt15__allocated_ptrISaISt23_Sp_counted_ptr_inplaceIN5Catch16TestCaseTracking14SectionTrackerESaIS3_ELN9__gnu_cxx12_Lock_policyE2EEEEaSEDn
FNDA:43,_ZNSt15__allocated_ptrISaISt23_Sp_counted_ptr_inplaceIN5Catch6ConfigESaIS2_ELN9__gnu_cxx12_Lock_policyE2EEEEaSEDn
FNDA:21,_ZNSt15__allocated_ptrISaISt23_Sp_counted_ptr_inplaceIN5Catch10Generators16GeneratorTrackerESaIS3_ELN9__gnu_cxx12_Lock_policyE2EEEEaSEDn
FNDA:539,_ZNSt15__allocated_ptrISaISt23_Sp_counted_ptr_inplaceIN5Catch5clara6detail12BoundFlagRefESaIS4_ELN9__gnu_cxx12_Lock_policyE2EEEEaSEDn
FNDA:147,_ZNSt15__allocated_ptrISaISt23_Sp_counted_ptr_inplaceIN5Catch5clara6detail13BoundValueRefINSt7__cxx1112basic_stringIcSt11char_traitsIcESaIcEEEEESaISB_ELN9__gnu_cxx12_Lock_policyE2EEEEaSEDn
FNDA:147,_ZNSt15__allocated_ptrISaISt23_Sp_counted_ptr_inplaceINSt7__cxx1112basic_stringIcSt11char_traitsIcESaIcEEESaIS6_ELN9__gnu_cxx12_Lock_policyE2EEEEaSEDn
FNDA:0,_ZNSt15__allocated_ptrISaISt23_Sp_counted_ptr_inplaceIN5Catch22CumulativeReporterBaseINS1_13JunitReporterEE4NodeINS1_12TestRunStatsENS5_INS1_14TestGroupStatsENS5_INS1_13TestCaseStatsENS4_11SectionNodeEEEEEEESaISC_ELN9__gnu_cxx12_Lock_policyE2EEEE3getEv
FNDA:0,_ZNSt15__allocated_ptrISaISt23_Sp_counted_ptr_inplaceIN5Catch22CumulativeReporterBaseINS1_13JunitReporterEE11SectionNodeESaIS5_ELN9__gnu_cxx12_Lock_policyE2EEEE3getEv
FNDA:0,_ZNSt15__allocated_ptrISaISt23_Sp_counted_ptr_inplaceINSt8__detail4_NFAINSt7__cxx1112regex_traitsIcEEEESaIS6_ELN9__gnu_cxx12_Lock_policyE2EEEE3getEv
FNDA:49,_ZNSt15__allocated_ptrISaISt23_Sp_counted_ptr_inplaceIN5Catch5clara6detail13BoundValueRefIdEESaIS5_ELN9__gnu_cxx12_Lock_policyE2EEEE3getEv
FNDA:98,_ZNSt15__allocated_ptrISaISt23_Sp_counted_ptr_inplaceIN5Catch5clara6detail13BoundValueRefIjEESaIS5_ELN9__gnu_cxx12_Lock_policyE2EEEE3getEv
FNDA:49,_ZNSt15__allocated_ptrISaISt23_Sp_counted_ptr_inplaceIN5Catch5clara6detail11BoundLambdaIZNS1_21makeCommandLineParserERNS1_10ConfigDataEEUlRKNSt7__cxx1112basic_stringIcSt11char_traitsIcESaIcEEEE4_EESaISG_ELN9__gnu_cxx12_Lock_policyE2EEEE3getEv
FNDA:49,_ZNSt15__allocated_ptrISaISt23_Sp_counted_ptr_inplaceIN5Catch5clara6detail11BoundLambdaIZNS1_21makeCommandLineParserERNS1_10ConfigDataEEUlRKNSt7__cxx1112basic_stringIcSt11char_traitsIcESaIcEEEE3_EESaISG_ELN9__gnu_cxx12_Lock_policyE2EEEE3getEv
FNDA:49,_ZNSt15__allocated_ptrISaISt23_Sp_counted_ptr_inplaceIN5Catch5clara6detail11BoundLambdaIZNS1_21makeCommandLineParserERNS1_10ConfigDataEEUlRKNSt7__cxx1112basic_stringIcSt11char_traitsIcESaIcEEEE2_EESaISG_ELN9__gnu_cxx12_Lock_policyE2EEEE3getEv
FNDA:49,_ZNSt15__allocated_ptrISaISt23_Sp_counted_ptr_inplaceIN5Catch5clara6detail11BoundLambdaIZNS1_21makeCommandLineParserERNS1_10ConfigDataEEUlRKNSt7__cxx1112basic_stringIcSt11char_traitsIcESaIcEEEE1_EESaISG_ELN9__gnu_cxx12_Lock_policyE2EEEE3getEv
FNDA:49,_ZNSt15__allocated_ptrISaISt23_Sp_counted_ptr_inplaceIN5Catch5clara6detail11BoundLambdaIZNS1_21makeCommandLineParserERNS1_10ConfigDataEEUlRKNSt7__cxx1112basic_stringIcSt11char_traitsIcESaIcEEEE5_EESaISG_ELN9__gnu_cxx12_Lock_policyE2EEEE3getEv
FNDA:49,_ZNSt15__allocated_ptrISaISt23_Sp_counted_ptr_inplaceIN5Catch5clara6detail11BoundLambdaIZNS1_21makeCommandLineParserERNS1_10ConfigDataEEUlRKNSt7__cxx1112basic_stringIcSt11char_traitsIcESaIcEEEE0_EESaISG_ELN9__gnu_cxx12_Lock_policyE2EEEE3getEv
FNDA:49,_ZNSt15__allocated_ptrISaISt23_Sp_counted_ptr_inplaceIN5Catch5clara6detail11BoundLambdaIZNS1_21makeCommandLineParserERNS1_10ConfigDataEEUlbE9_EESaIS8_ELN9__gnu_cxx12_Lock_policyE2EEEE3getEv
FNDA:49,_ZNSt15__allocated_ptrISaISt23_Sp_counted_ptr_inplaceIN5Catch5clara6detail11BoundLambdaIZNS1_21makeCommandLineParserERNS1_10ConfigDataEEUlRKNSt7__cxx1112basic_stringIcSt11char_traitsIcESaIcEEEE_EESaISG_ELN9__gnu_cxx12_Lock_policyE2EEEE3getEv
FNDA:49,_ZNSt15__allocated_ptrISaISt23_Sp_counted_ptr_inplaceIN5Catch5clara6detail11BoundLambdaIZNS1_21makeCommandLineParserERNS1_10ConfigDataEEUliE8_EESaIS8_ELN9__gnu_cxx12_Lock_policyE2EEEE3getEv
FNDA:49,_ZNSt15__allocated_ptrISaISt23_Sp_counted_ptr_inplaceIN5Catch5clara6detail11BoundLambdaIZNS1_21makeCommandLineParserERNS1_10ConfigDataEEUlRKNSt7__cxx1112basic_stringIcSt11char_traitsIcESaIcEEEE6_EESaISG_ELN9__gnu_cxx12_Lock_policyE2EEEE3getEv
FNDA:49,_ZNSt15__allocated_ptrISaISt23_Sp_counted_ptr_inplaceIN5Catch17ReporterRegistrarINS1_11XmlReporterEE15ReporterFactoryESaIS5_ELN9__gnu_cxx12_Lock_policyE2EEEE3getEv
FNDA:49,_ZNSt15__allocated_ptrISaISt23_Sp_counted_ptr_inplaceIN5Catch17ReporterRegistrarINS1_13JunitReporterEE15ReporterFactoryESaIS5_ELN9__gnu_cxx12_Lock_policyE2EEEE3getEv
FNDA:0,_ZNSt15__allocated_ptrISaISt23_Sp_counted_ptr_inplaceIN5Catch22CumulativeReporterBaseINS1_13JunitReporterEE4NodeINS1_14TestGroupStatsENS5_INS1_13TestCaseStatsENS4_11SectionNodeEEEEESaISA_ELN9__gnu_cxx12_Lock_policyE2EEEE3getEv
FNDA:0,_ZNSt15__allocated_ptrISaISt23_Sp_counted_ptr_inplaceIN5Catch22CumulativeReporterBaseINS1_13JunitReporterEE4NodeINS1_13TestCaseStatsENS4_11SectionNodeEEESaIS8_ELN9__gnu_cxx12_Lock_policyE2EEEE3getEv
FNDA:49,_ZNSt15__allocated_ptrISaISt23_Sp_counted_ptr_inplaceIN5Catch17ReporterRegistrarINS1_15ConsoleReporterEE15ReporterFactoryESaIS5_ELN9__gnu_cxx12_Lock_policyE2EEEE3getEv
FNDA:49,_ZNSt15__allocated_ptrISaISt23_Sp_counted_ptr_inplaceIN5Catch17ReporterRegistrarINS1_15CompactReporterEE15ReporterFactoryESaIS5_ELN9__gnu_cxx12_Lock_policyE2EEEE3getEv
FNDA:98,_ZNSt15__allocated_ptrISaISt23_Sp_counted_ptr_inplaceIN5Catch5clara6detail13BoundValueRefISt6vectorINSt7__cxx1112basic_stringIcSt11char_traitsIcESaIcEEESaISB_EEEESaISE_ELN9__gnu_cxx12_Lock_policyE2EEEE3getEv
FNDA:49,_ZNSt15__allocated_ptrISaISt23_Sp_counted_ptr_inplaceIN5Catch5clara6detail15BoundFlagLambdaIZNS1_21makeCommandLineParserERNS1_10ConfigDataEEUlbE7_EESaIS8_ELN9__gnu_cxx12_Lock_policyE2EEEE3getEv
FNDA:49,_ZNSt15__allocated_ptrISaISt23_Sp_counted_ptr_inplaceIN5Catch5clara6detail15BoundFlagLambdaIZNS3_4HelpC4ERbEUlbE_EESaIS8_ELN9__gnu_cxx12_Lock_policyE2EEEE3getEv
FNDA:14,_ZNSt15__allocated_ptrISaISt23_Sp_counted_ptr_inplaceIN5Catch8TestSpec10TagPatternESaIS3_ELN9__gnu_cxx12_Lock_policyE2EEEE3getEv
FNDA:0,_ZNSt15__allocated_ptrISaISt23_Sp_counted_ptr_inplaceIN5Catch8TestSpec15ExcludedPatternESaIS3_ELN9__gnu_cxx12_Lock_policyE2EEEE3getEv
FNDA:22,_ZNSt15__allocated_ptrISaISt23_Sp_counted_ptr_inplaceIN5Catch8TestSpec11NamePatternESaIS3_ELN9__gnu_cxx12_Lock_policyE2EEEE3getEv
FNDA:754,_ZNSt15__allocated_ptrISaISt23_Sp_counted_ptr_inplaceIN5Catch16TestCaseTracking14SectionTrackerESaIS3_ELN9__gnu_cxx12_Lock_policyE2EEEE3getEv
FNDA:43,_ZNSt15__allocated_ptrISaISt23_Sp_counted_ptr_inplaceIN5Catch6ConfigESaIS2_ELN9__gnu_cxx12_Lock_policyE2EEEE3getEv
FNDA:21,_ZNSt15__allocated_ptrISaISt23_Sp_counted_ptr_inplaceIN5Catch10Generators16GeneratorTrackerESaIS3_ELN9__gnu_cxx12_Lock_policyE2EEEE3getEv
FNDA:539,_ZNSt15__allocated_ptrISaISt23_Sp_counted_ptr_inplaceIN5Catch5clara6detail12BoundFlagRefESaIS4_ELN9__gnu_cxx12_Lock_policyE2EEEE3getEv
FNDA:147,_ZNSt15__allocated_ptrISaISt23_Sp_counted_ptr_inplaceIN5Catch5clara6detail13BoundValueRefINSt7__cxx1112basic_stringIcSt11char_traitsIcESaIcEEEEESaISB_ELN9__gnu_cxx12_Lock_policyE2EEEE3getEv
FNDA:147,_ZNSt15__allocated_ptrISaISt23_Sp_counted_ptr_inplaceINSt7__cxx1112basic_stringIcSt11char_traitsIcESaIcEEESaIS6_ELN9__gnu_cxx12_Lock_policyE2EEEE3getEv
FNDA:0,_ZNSt15__allocated_ptrISaISt23_Sp_counted_ptr_inplaceIN5Catch22CumulativeReporterBaseINS1_13JunitReporterEE4NodeINS1_12TestRunStatsENS5_INS1_14TestGroupStatsENS5_INS1_13TestCaseStatsENS4_11SectionNodeEEEEEEESaISC_ELN9__gnu_cxx12_Lock_policyE2EEEE10_S_raw_ptrEPSG_
FNDA:0,_ZNSt15__allocated_ptrISaISt23_Sp_counted_ptr_inplaceIN5Catch22CumulativeReporterBaseINS1_13JunitReporterEE11SectionNodeESaIS5_ELN9__gnu_cxx12_Lock_policyE2EEEE10_S_raw_ptrEPS9_
FNDA:0,_ZNSt15__allocated_ptrISaISt23_Sp_counted_ptr_inplaceINSt8__detail4_NFAINSt7__cxx1112regex_traitsIcEEEESaIS6_ELN9__gnu_cxx12_Lock_policyE2EEEE10_S_raw_ptrEPSA_
FNDA:49,_ZNSt15__allocated_ptrISaISt23_Sp_counted_ptr_inplaceIN5Catch5clara6detail13BoundValueRefIdEESaIS5_ELN9__gnu_cxx12_Lock_policyE2EEEE10_S_raw_ptrEPS9_
FNDA:98,_ZNSt15__allocated_ptrISaISt23_Sp_counted_ptr_inplaceIN5Catch5clara6detail13BoundValueRefIjEESaIS5_ELN9__gnu_cxx12_Lock_policyE2EEEE10_S_raw_ptrEPS9_
FNDA:49,_ZNSt15__allocated_ptrISaISt23_Sp_counted_ptr_inplaceIN5Catch5clara6detail11BoundLambdaIZNS1_21makeCommandLineParserERNS1_10ConfigDataEEUlRKNSt7__cxx1112basic_stringIcSt11char_traitsIcESaIcEEEE4_EESaISG_ELN9__gnu_cxx12_Lock_policyE2EEEE10_S_raw_ptrEPSK_
FNDA:49,_ZNSt15__allocated_ptrISaISt23_Sp_counted_ptr_inplaceIN5Catch5clara6detail11BoundLambdaIZNS1_21makeCommandLineParserERNS1_10ConfigDataEEUlRKNSt7__cxx1112basic_stringIcSt11char_traitsIcESaIcEEEE3_EESaISG_ELN9__gnu_cxx12_Lock_policyE2EEEE10_S_raw_ptrEPSK_
FNDA:49,_ZNSt15__allocated_ptrISaISt23_Sp_counted_ptr_inplaceIN5Catch5clara6detail11BoundLambdaIZNS1_21makeCommandLineParserERNS1_10ConfigDataEEUlRKNSt7__cxx1112basic_stringIcSt11char_traitsIcESaIcEEEE2_EESaISG_ELN9__gnu_cxx12_Lock_policyE2EEEE10_S_raw_ptrEPSK_
FNDA:49,_ZNSt15__allocated_ptrISaISt23_Sp_counted_ptr_inplaceIN5Catch5clara6detail11BoundLambdaIZNS1_21makeCommandLineParserERNS1_10ConfigDataEEUlRKNSt7__cxx1112basic_stringIcSt11char_traitsIcESaIcEEEE1_EESaISG_ELN9__gnu_cxx12_Lock_policyE2EEEE10_S_raw_ptrEPSK_
FNDA:49,_ZNSt15__allocated_ptrISaISt23_Sp_counted_ptr_inplaceIN5Catch5clara6detail11BoundLambdaIZNS1_21makeCommandLineParserERNS1_10ConfigDataEEUlRKNSt7__cxx1112basic_stringIcSt11char_traitsIcESaIcEEEE5_EESaISG_ELN9__gnu_cxx12_Lock_policyE2EEEE10_S_raw_ptrEPSK_
FNDA:49,_ZNSt15__allocated_ptrISaISt23_Sp_counted_ptr_inplaceIN5Catch5clara6detail11BoundLambdaIZNS1_21makeCommandLineParserERNS1_10ConfigDataEEUlRKNSt7__cxx1112basic_stringIcSt11char_traitsIcESaIcEEEE0_EESaISG_ELN9__gnu_cxx12_Lock_policyE2EEEE10_S_raw_ptrEPSK_
FNDA:49,_ZNSt15__allocated_ptrISaISt23_Sp_counted_ptr_inplaceIN5Catch5clara6detail11BoundLambdaIZNS1_21makeCommandLineParserERNS1_10ConfigDataEEUlbE9_EESaIS8_ELN9__gnu_cxx12_Lock_policyE2EEEE10_S_raw_ptrEPSC_
FNDA:49,_ZNSt15__allocated_ptrISaISt23_Sp_counted_ptr_inplaceIN5Catch5clara6detail11BoundLambdaIZNS1_21makeCommandLineParserERNS1_10ConfigDataEEUlRKNSt7__cxx1112basic_stringIcSt11char_traitsIcESaIcEEEE_EESaISG_ELN9__gnu_cxx12_Lock_policyE2EEEE10_S_raw_ptrEPSK_
FNDA:49,_ZNSt15__allocated_ptrISaISt23_Sp_counted_ptr_inplaceIN5Catch5clara6detail11BoundLambdaIZNS1_21makeCommandLineParserERNS1_10ConfigDataEEUliE8_EESaIS8_ELN9__gnu_cxx12_Lock_policyE2EEEE10_S_raw_ptrEPSC_
FNDA:49,_ZNSt15__allocated_ptrISaISt23_Sp_counted_ptr_inplaceIN5Catch5clara6detail11BoundLambdaIZNS1_21makeCommandLineParserERNS1_10ConfigDataEEUlRKNSt7__cxx1112basic_stringIcSt11char_traitsIcESaIcEEEE6_EESaISG_ELN9__gnu_cxx12_Lock_policyE2EEEE10_S_raw_ptrEPSK_
FNDA:49,_ZNSt15__allocated_ptrISaISt23_Sp_counted_ptr_inplaceIN5Catch17ReporterRegistrarINS1_11XmlReporterEE15ReporterFactoryESaIS5_ELN9__gnu_cxx12_Lock_policyE2EEEE10_S_raw_ptrEPS9_
FNDA:49,_ZNSt15__allocated_ptrISaISt23_Sp_counted_ptr_inplaceIN5Catch17ReporterRegistrarINS1_13JunitReporterEE15ReporterFactoryESaIS5_ELN9__gnu_cxx12_Lock_policyE2EEEE10_S_raw_ptrEPS9_
FNDA:0,_ZNSt15__allocated_ptrISaISt23_Sp_counted_ptr_inplaceIN5Catch22CumulativeReporterBaseINS1_13JunitReporterEE4NodeINS1_14TestGroupStatsENS5_INS1_13TestCaseStatsENS4_11SectionNodeEEEEESaISA_ELN9__gnu_cxx12_Lock_policyE2EEEE10_S_raw_ptrEPSE_
FNDA:0,_ZNSt15__allocated_ptrISaISt23_Sp_counted_ptr_inplaceIN5Catch22CumulativeReporterBaseINS1_13JunitReporterEE4NodeINS1_13TestCaseStatsENS4_11SectionNodeEEESaIS8_ELN9__gnu_cxx12_Lock_policyE2EEEE10_S_raw_ptrEPSC_
FNDA:49,_ZNSt15__allocated_ptrISaISt23_Sp_counted_ptr_inplaceIN5Catch17ReporterRegistrarINS1_15ConsoleReporterEE15ReporterFactoryESaIS5_ELN9__gnu_cxx12_Lock_policyE2EEEE10_S_raw_ptrEPS9_
FNDA:49,_ZNSt15__allocated_ptrISaISt23_Sp_counted_ptr_inplaceIN5Catch17ReporterRegistrarINS1_15CompactReporterEE15ReporterFactoryESaIS5_ELN9__gnu_cxx12_Lock_policyE2EEEE10_S_raw_ptrEPS9_
FNDA:98,_ZNSt15__allocated_ptrISaISt23_Sp_counted_ptr_inplaceIN5Catch5clara6detail13BoundValueRefISt6vectorINSt7__cxx1112basic_stringIcSt11char_traitsIcESaIcEEESaISB_EEEESaISE_ELN9__gnu_cxx12_Lock_policyE2EEEE10_S_raw_ptrEPSI_
FNDA:49,_ZNSt15__allocated_ptrISaISt23_Sp_counted_ptr_inplaceIN5Catch5clara6detail15BoundFlagLambdaIZNS1_21makeCommandLineParserERNS1_10ConfigDataEEUlbE7_EESaIS8_ELN9__gnu_cxx12_Lock_policyE2EEEE10_S_raw_ptrEPSC_
FNDA:49,_ZNSt15__allocated_ptrISaISt23_Sp_counted_ptr_inplaceIN5Catch5clara6detail15BoundFlagLambdaIZNS3_4HelpC4ERbEUlbE_EESaIS8_ELN9__gnu_cxx12_Lock_policyE2EEEE10_S_raw_ptrEPSC_
FNDA:14,_ZNSt15__allocated_ptrISaISt23_Sp_counted_ptr_inplaceIN5Catch8TestSpec10TagPatternESaIS3_ELN9__gnu_cxx12_Lock_policyE2EEEE10_S_raw_ptrEPS7_
FNDA:0,_ZNSt15__allocated_ptrISaISt23_Sp_counted_ptr_inplaceIN5Catch8TestSpec15ExcludedPatternESaIS3_ELN9__gnu_cxx12_Lock_policyE2EEEE10_S_raw_ptrEPS7_
FNDA:22,_ZNSt15__allocated_ptrISaISt23_Sp_counted_ptr_inplaceIN5Catch8TestSpec11NamePatternESaIS3_ELN9__gnu_cxx12_Lock_policyE2EEEE10_S_raw_ptrEPS7_
FNDA:754,_ZNSt15__allocated_ptrISaISt23_Sp_counted_ptr_inplaceIN5Catch16TestCaseTracking14SectionTrackerESaIS3_ELN9__gnu_cxx12_Lock_policyE2EEEE10_S_raw_ptrEPS7_
FNDA:43,_ZNSt15__allocated_ptrISaISt23_Sp_counted_ptr_inplaceIN5Catch6ConfigESaIS2_ELN9__gnu_cxx12_Lock_policyE2EEEE10_S_raw_ptrEPS6_
FNDA:21,_ZNSt15__allocated_ptrISaISt23_Sp_counted_ptr_inplaceIN5Catch10Generators16GeneratorTrackerESaIS3_ELN9__gnu_cxx12_Lock_policyE2EEEE10_S_raw_ptrEPS7_
FNDA:539,_ZNSt15__allocated_ptrISaISt23_Sp_counted_ptr_inplaceIN5Catch5clara6detail12BoundFlagRefESaIS4_ELN9__gnu_cxx12_Lock_policyE2EEEE10_S_raw_ptrEPS8_
FNDA:147,_ZNSt15__allocated_ptrISaISt23_Sp_counted_ptr_inplaceIN5Catch5clara6detail13BoundValueRefINSt7__cxx1112basic_stringIcSt11char_traitsIcESaIcEEEEESaISB_ELN9__gnu_cxx12_Lock_policyE2EEEE10_S_raw_ptrEPSF_
FNDA:147,_ZNSt15__allocated_ptrISaISt23_Sp_counted_ptr_inplaceINSt7__cxx1112basic_stringIcSt11char_traitsIcESaIcEEESaIS6_ELN9__gnu_cxx12_Lock_policyE2EEEE10_S_raw_ptrEPSA_
FNDA:0,_ZSt18__allocate_guardedISaISt23_Sp_counted_ptr_inplaceIN5Catch22CumulativeReporterBaseINS1_13JunitReporterEE4NodeINS1_12TestRunStatsENS5_INS1_14TestGroupStatsENS5_INS1_13TestCaseStatsENS4_11SectionNodeEEEEEEESaISC_ELN9__gnu_cxx12_Lock_policyE2EEEESt15__allocated_ptrIT_ERSJ_
FNDA:0,_ZSt18__allocate_guardedISaISt23_Sp_counted_ptr_inplaceIN5Catch22CumulativeReporterBaseINS1_13JunitReporterEE11SectionNodeESaIS5_ELN9__gnu_cxx12_Lock_policyE2EEEESt15__allocated_ptrIT_ERSC_
FNDA:0,_ZSt18__allocate_guardedISaISt23_Sp_counted_ptr_inplaceINSt8__detail4_NFAINSt7__cxx1112regex_traitsIcEEEESaIS6_ELN9__gnu_cxx12_Lock_policyE2EEEESt15__allocated_ptrIT_ERSD_
FNDA:49,_ZSt18__allocate_guardedISaISt23_Sp_counted_ptr_inplaceIN5Catch5clara6detail13BoundValueRefIdEESaIS5_ELN9__gnu_cxx12_Lock_policyE2EEEESt15__allocated_ptrIT_ERSC_
FNDA:98,_ZSt18__allocate_guardedISaISt23_Sp_counted_ptr_inplaceIN5Catch5clara6detail13BoundValueRefIjEESaIS5_ELN9__gnu_cxx12_Lock_policyE2EEEESt15__allocated_ptrIT_ERSC_
FNDA:49,_ZSt18__allocate_guardedISaISt23_Sp_counted_ptr_inplaceIN5Catch5clara6detail11BoundLambdaIZNS1_21makeCommandLineParserERNS1_10ConfigDataEEUlRKNSt7__cxx1112basic_stringIcSt11char_traitsIcESaIcEEEE4_EESaISG_ELN9__gnu_cxx12_Lock_policyE2EEEESt15__allocated_ptrIT_ERSN_
FNDA:49,_ZSt18__allocate_guardedISaISt23_Sp_counted_ptr_inplaceIN5Catch5clara6detail11BoundLambdaIZNS1_21makeCommandLineParserERNS1_10ConfigDataEEUlRKNSt7__cxx1112basic_stringIcSt11char_traitsIcESaIcEEEE3_EESaISG_ELN9__gnu_cxx12_Lock_policyE2EEEESt15__allocated_ptrIT_ERSN_
FNDA:49,_ZSt18__allocate_guardedISaISt23_Sp_counted_ptr_inplaceIN5Catch5clara6detail11BoundLambdaIZNS1_21makeCommandLineParserERNS1_10ConfigDataEEUlRKNSt7__cxx1112basic_stringIcSt11char_traitsIcESaIcEEEE2_EESaISG_ELN9__gnu_cxx12_Lock_policyE2EEEESt15__allocated_ptrIT_ERSN_
FNDA:49,_ZSt18__allocate_guardedISaISt23_Sp_counted_ptr_inplaceIN5Catch5clara6detail11BoundLambdaIZNS1_21makeCommandLineParserERNS1_10ConfigDataEEUlRKNSt7__cxx1112basic_stringIcSt11char_traitsIcESaIcEEEE1_EESaISG_ELN9__gnu_cxx12_Lock_policyE2EEEESt15__allocated_ptrIT_ERSN_
FNDA:49,_ZSt18__allocate_guardedISaISt23_Sp_counted_ptr_inplaceIN5Catch5clara6detail11BoundLambdaIZNS1_21makeCommandLineParserERNS1_10ConfigDataEEUlRKNSt7__cxx1112basic_stringIcSt11char_traitsIcESaIcEEEE5_EESaISG_ELN9__gnu_cxx12_Lock_policyE2EEEESt15__allocated_ptrIT_ERSN_
FNDA:49,_ZSt18__allocate_guardedISaISt23_Sp_counted_ptr_inplaceIN5Catch5clara6detail11BoundLambdaIZNS1_21makeCommandLineParserERNS1_10ConfigDataEEUlRKNSt7__cxx1112basic_stringIcSt11char_traitsIcESaIcEEEE0_EESaISG_ELN9__gnu_cxx12_Lock_policyE2EEEESt15__allocated_ptrIT_ERSN_
FNDA:49,_ZSt18__allocate_guardedISaISt23_Sp_counted_ptr_inplaceIN5Catch5clara6detail11BoundLambdaIZNS1_21makeCommandLineParserERNS1_10ConfigDataEEUlbE9_EESaIS8_ELN9__gnu_cxx12_Lock_policyE2EEEESt15__allocated_ptrIT_ERSF_
FNDA:49,_ZSt18__allocate_guardedISaISt23_Sp_counted_ptr_inplaceIN5Catch5clara6detail11BoundLambdaIZNS1_21makeCommandLineParserERNS1_10ConfigDataEEUlRKNSt7__cxx1112basic_stringIcSt11char_traitsIcESaIcEEEE_EESaISG_ELN9__gnu_cxx12_Lock_policyE2EEEESt15__allocated_ptrIT_ERSN_
FNDA:49,_ZSt18__allocate_guardedISaISt23_Sp_counted_ptr_inplaceIN5Catch5clara6detail11BoundLambdaIZNS1_21makeCommandLineParserERNS1_10ConfigDataEEUliE8_EESaIS8_ELN9__gnu_cxx12_Lock_policyE2EEEESt15__allocated_ptrIT_ERSF_
FNDA:49,_ZSt18__allocate_guardedISaISt23_Sp_counted_ptr_inplaceIN5Catch5clara6detail11BoundLambdaIZNS1_21makeCommandLineParserERNS1_10ConfigDataEEUlRKNSt7__cxx1112basic_stringIcSt11char_traitsIcESaIcEEEE6_EESaISG_ELN9__gnu_cxx12_Lock_policyE2EEEESt15__allocated_ptrIT_ERSN_
FNDA:49,_ZSt18__allocate_guardedISaISt23_Sp_counted_ptr_inplaceIN5Catch17ReporterRegistrarINS1_11XmlReporterEE15ReporterFactoryESaIS5_ELN9__gnu_cxx12_Lock_policyE2EEEESt15__allocated_ptrIT_ERSC_
FNDA:49,_ZSt18__allocate_guardedISaISt23_Sp_counted_ptr_inplaceIN5Catch17ReporterRegistrarINS1_13JunitReporterEE15ReporterFactoryESaIS5_ELN9__gnu_cxx12_Lock_policyE2EEEESt15__allocated_ptrIT_ERSC_
FNDA:0,_ZSt18__allocate_guardedISaISt23_Sp_counted_ptr_inplaceIN5Catch22CumulativeReporterBaseINS1_13JunitReporterEE4NodeINS1_14TestGroupStatsENS5_INS1_13TestCaseStatsENS4_11SectionNodeEEEEESaISA_ELN9__gnu_cxx12_Lock_policyE2EEEESt15__allocated_ptrIT_ERSH_
FNDA:0,_ZSt18__allocate_guardedISaISt23_Sp_counted_ptr_inplaceIN5Catch22CumulativeReporterBaseINS1_13JunitReporterEE4NodeINS1_13TestCaseStatsENS4_11SectionNodeEEESaIS8_ELN9__gnu_cxx12_Lock_policyE2EEEESt15__allocated_ptrIT_ERSF_
FNDA:49,_ZSt18__allocate_guardedISaISt23_Sp_counted_ptr_inplaceIN5Catch17ReporterRegistrarINS1_15ConsoleReporterEE15ReporterFactoryESaIS5_ELN9__gnu_cxx12_Lock_policyE2EEEESt15__allocated_ptrIT_ERSC_
FNDA:49,_ZSt18__allocate_guardedISaISt23_Sp_counted_ptr_inplaceIN5Catch17ReporterRegistrarINS1_15CompactReporterEE15ReporterFactoryESaIS5_ELN9__gnu_cxx12_Lock_policyE2EEEESt15__allocated_ptrIT_ERSC_
FNDA:98,_ZSt18__allocate_guardedISaISt23_Sp_counted_ptr_inplaceIN5Catch5clara6detail13BoundValueRefISt6vectorINSt7__cxx1112basic_stringIcSt11char_traitsIcESaIcEEESaISB_EEEESaISE_ELN9__gnu_cxx12_Lock_policyE2EEEESt15__allocated_ptrIT_ERSL_
FNDA:49,_ZSt18__allocate_guardedISaISt23_Sp_counted_ptr_inplaceIN5Catch5clara6detail15BoundFlagLambdaIZNS1_21makeCommandLineParserERNS1_10ConfigDataEEUlbE7_EESaIS8_ELN9__gnu_cxx12_Lock_policyE2EEEESt15__allocated_ptrIT_ERSF_
FNDA:49,_ZSt18__allocate_guardedISaISt23_Sp_counted_ptr_inplaceIN5Catch5clara6detail15BoundFlagLambdaIZNS3_4HelpC4ERbEUlbE_EESaIS8_ELN9__gnu_cxx12_Lock_policyE2EEEESt15__allocated_ptrIT_ERSF_
FNDA:14,_ZSt18__allocate_guardedISaISt23_Sp_counted_ptr_inplaceIN5Catch8TestSpec10TagPatternESaIS3_ELN9__gnu_cxx12_Lock_policyE2EEEESt15__allocated_ptrIT_ERSA_
FNDA:0,_ZSt18__allocate_guardedISaISt23_Sp_counted_ptr_inplaceIN5Catch8TestSpec15ExcludedPatternESaIS3_ELN9__gnu_cxx12_Lock_policyE2EEEESt15__allocated_ptrIT_ERSA_
FNDA:22,_ZSt18__allocate_guardedISaISt23_Sp_counted_ptr_inplaceIN5Catch8TestSpec11NamePatternESaIS3_ELN9__gnu_cxx12_Lock_policyE2EEEESt15__allocated_ptrIT_ERSA_
FNDA:754,_ZSt18__allocate_guardedISaISt23_Sp_counted_ptr_inplaceIN5Catch16TestCaseTracking14SectionTrackerESaIS3_ELN9__gnu_cxx12_Lock_policyE2EEEESt15__allocated_ptrIT_ERSA_
FNDA:43,_ZSt18__allocate_guardedISaISt23_Sp_counted_ptr_inplaceIN5Catch6ConfigESaIS2_ELN9__gnu_cxx12_Lock_policyE2EEEESt15__allocated_ptrIT_ERS9_
FNDA:21,_ZSt18__allocate_guardedISaISt23_Sp_counted_ptr_inplaceIN5Catch10Generators16GeneratorTrackerESaIS3_ELN9__gnu_cxx12_Lock_policyE2EEEESt15__allocated_ptrIT_ERSA_
FNDA:539,_ZSt18__allocate_guardedISaISt23_Sp_counted_ptr_inplaceIN5Catch5clara6detail12BoundFlagRefESaIS4_ELN9__gnu_cxx12_Lock_policyE2EEEESt15__allocated_ptrIT_ERSB_
FNDA:147,_ZSt18__allocate_guardedISaISt23_Sp_counted_ptr_inplaceIN5Catch5clara6detail13BoundValueRefINSt7__cxx1112basic_stringIcSt11char_traitsIcESaIcEEEEESaISB_ELN9__gnu_cxx12_Lock_policyE2EEEESt15__allocated_ptrIT_ERSI_
FNDA:147,_ZSt18__allocate_guardedISaISt23_Sp_counted_ptr_inplaceINSt7__cxx1112basic_stringIcSt11char_traitsIcESaIcEEESaIS6_ELN9__gnu_cxx12_Lock_policyE2EEEESt15__allocated_ptrIT_ERSD_
FNF:198
FNH:162
DA:52,5432
DA:53,5432
DA:54,5432
DA:70,5432
DA:72,5432
DA:73,2716
DA:74,5432
DA:78,2716
DA:80,2716
DA:81,2716
DA:85,2716
DA:88,2716
DA:102,2716
DA:104,2716
LF:14
LH:14
end_of_record
SF:/usr/include/c++/7/bits/allocator.h
FN:131,_ZNSaIN5Catch8TestSpec6FilterEEC2Ev
FN:131,_ZNSaIN5Catch5clara6detail11BoundLambdaIZNS_21makeCommandLineParserERNS_10ConfigDataEEUlRKNSt7__cxx1112basic_stringIcSt11char_traitsIcESaIcEEEE0_EEEC2Ev
FN:131,_ZNSaIN5Catch5clara6detail3OptEEC2Ev
FN:131,_ZNSaIN5Catch8TestSpec15ExcludedPatternEEC2Ev
FN:131,_ZNSaIN5Catch5clara6detail11BoundLambdaIZNS_21makeCommandLineParserERNS_10ConfigDataEEUliE8_EEEC2Ev
FN:131,_ZNSaIN5Catch14AssertionStatsEEC2Ev
FN:131,_ZNSaINSt8__detail6_StateIcEEEC2Ev
FN:131,_ZNSaIN5Catch5clara6detail11BoundLambdaIZNS_21makeCommandLineParserERNS_10ConfigDataEEUlRKNSt7__cxx1112basic_stringIcSt11char_traitsIcESaIcEEEE3_EEEC2Ev
FN:131,_ZNSaINSt15__exception_ptr13exception_ptrEEC2Ev
FN:131,_ZNSaIN5Catch5clara6detail11BoundLambdaIZNS_21makeCommandLineParserERNS_10ConfigDataEEUlRKNSt7__cxx1112basic_stringIcSt11char_traitsIcESaIcEEEE4_EEEC2Ev
FN:131,_ZNSaISt4pairIccEEC2Ev
FN:131,_ZNSaIN5Catch12_GLOBAL__N_110ColumnInfoEEC2Ev
FN:131,_ZNSaISt13_Rb_tree_nodeINSt7__cxx1112basic_stringIcSt11char_traitsIcESaIcEEEEEC2Ev
FN:131,_ZNSaIN5Catch16TestCaseTracking14SectionTrackerEEC2Ev
FN:131,_ZNSaIN5Catch5clara6detail3ArgEEC2Ev
FN:131,_ZNSaISt13_Rb_tree_nodeIPKN5Catch8TestCaseEEEC2Ev
FN:131,_ZNSaIN5Catch8TestSpec10TagPatternEEC2Ev
FN:131,_ZNSaISt13_Rb_tree_nodeIN5Catch8TestCaseEEEC2Ev
FN:131,_ZNSaISt10shared_ptrIN5Catch16IReporterFactoryEEEC2Ev
FN:131,_ZNSaISt4pairIiN5Catch9StringRefEEEC2Ev
FN:131,_ZNSaIN5Catch5clara6detail11BoundLambdaIZNS_21makeCommandLineParserERNS_10ConfigDataEEUlRKNSt7__cxx1112basic_stringIcSt11char_traitsIcESaIcEEEE1_EEEC2Ev
FN:131,_ZNSaIN5Catch5clara6detail5TokenEEC2Ev
FN:131,_ZNSaISt13_Rb_tree_nodeISt4pairIKNSt7__cxx1112basic_stringIcSt11char_traitsIcESaIcEEEN5Catch7TagInfoEEEEC2Ev
FN:131,_ZNSaIN5Catch11MessageInfoEEC2Ev
FN:131,_ZNSaIN5Catch5clara6detail12BoundFlagRefEEC2Ev
FN:131,_ZNSaISt13_Rb_tree_nodeISt4pairIKNSt7__cxx1112basic_stringIcSt11char_traitsIcESaIcEEEN5Catch8TagAliasEEEEC2Ev
FN:131,_ZNSaIN5Catch5clara6detail11BoundLambdaIZNS_21makeCommandLineParserERNS_10ConfigDataEEUlRKNSt7__cxx1112basic_stringIcSt11char_traitsIcESaIcEEEE5_EEEC2Ev
FN:131,_ZNSaIN5Catch22CumulativeReporterBaseINS_13JunitReporterEE4NodeINS_13TestCaseStatsENS2_11SectionNodeEEEEC2Ev
FN:131,_ZNSaIN5Catch8TestSpec11NamePatternEEC2Ev
FN:131,_ZNSaIN5Catch5clara6detail15BoundFlagLambdaIZNS_21makeCommandLineParserERNS_10ConfigDataEEUlbE7_EEEC2Ev
FN:131,_ZNSaIN5Catch17ReporterRegistrarINS_13JunitReporterEE15ReporterFactoryEEC2Ev
FN:131,_ZNSaIN5Catch17ReporterRegistrarINS_11XmlReporterEE15ReporterFactoryEEC2Ev
FN:131,_ZNSaIPN5Catch16TestCaseTracking8ITrackerEEC2Ev
FN:131,_ZNSaIlEC2Ev
FN:131,_ZNSaIN5Catch5clara6detail11BoundLambdaIZNS_21makeCommandLineParserERNS_10ConfigDataEEUlRKNSt7__cxx1112basic_stringIcSt11char_traitsIcESaIcEEEE2_EEEC2Ev
FN:131,_ZNSaIN5Catch17ReporterRegistrarINS_15CompactReporterEE15ReporterFactoryEEC2Ev
FN:131,_ZNSaISt4pairIN9__gnu_cxx17__normal_iteratorIPKcNSt7__cxx1112basic_stringIcSt11char_traitsIcESaIcEEEEEiEEC2Ev
FN:131,_ZNSaIN5Catch5clara6detail13BoundValueRefINSt7__cxx1112basic_stringIcSt11char_traitsIcESaIcEEEEEEC2Ev
FN:131,_ZNSaIN5Catch14SectionEndInfoEEC2Ev
FN:131,_ZNSaINSt7__cxx119sub_matchIN9__gnu_cxx17__normal_iteratorIPKcNS_12basic_stringIcSt11char_traitsIcESaIcEEEEEEEEC2Ev
FN:131,_ZNSaIN5Catch5clara6detail13BoundValueRefIdEEEC2Ev
FN:131,_ZNSaIN5Catch22CumulativeReporterBaseINS_13JunitReporterEE4NodeINS_14TestGroupStatsENS3_INS_13TestCaseStatsENS2_11SectionNodeEEEEEEC2Ev
FN:131,_ZNSaIN5Catch9VerbosityEEC2Ev
FN:131,_ZNSaISt10unique_ptrIKN5Catch20IExceptionTranslatorESt14default_deleteIS2_EEEC2Ev
FN:131,_ZNSaISt10unique_ptrIN5Catch18IStreamingReporterESt14default_deleteIS1_EEEC2Ev
FN:131,_ZNSaISt10shared_ptrIN5Catch22CumulativeReporterBaseINS0_13JunitReporterEE4NodeINS0_14TestGroupStatsENS4_INS0_13TestCaseStatsENS3_11SectionNodeEEEEEEEC2Ev
FN:131,_ZNSaIPKN5Catch8TestCaseEEC2Ev
FN:131,_ZNSaISt10shared_ptrIN5Catch22CumulativeReporterBaseINS0_13JunitReporterEE11SectionNodeEEEC2Ev
FN:131,_ZNSaIN5Catch5clara6detail13BoundValueRefIjEEEC2Ev
FN:131,_ZNSaISt4pairIlSt6vectorINSt7__cxx119sub_matchIN9__gnu_cxx17__normal_iteratorIPKcNS1_12basic_stringIcSt11char_traitsIcESaIcEEEEEEESaISD_EEEEC2Ev
FN:131,_ZNSaIN5Catch5clara6detail11BoundLambdaIZNS_21makeCommandLineParserERNS_10ConfigDataEEUlbE9_EEEC2Ev
FN:131,_ZNSaIN5Catch22CumulativeReporterBaseINS_13JunitReporterEE4NodeINS_12TestRunStatsENS3_INS_14TestGroupStatsENS3_INS_13TestCaseStatsENS2_11SectionNodeEEEEEEEEC2Ev
FN:131,_ZNSaIN5Catch13ScopedMessageEEC2Ev
FN:131,_ZNSaISt13_Rb_tree_nodeISt4pairIKllEEEC2Ev
FN:131,_ZNSaISt4pairINSt7__cxx1112basic_stringIcSt11char_traitsIcESaIcEEES5_EEC2Ev
FN:131,_ZNSaIPN5Catch10ISingletonEEC2Ev
FN:131,_ZNSaISt10shared_ptrIN5Catch22CumulativeReporterBaseINS0_13JunitReporterEE4NodeINS0_13TestCaseStatsENS3_11SectionNodeEEEEEC2Ev
FN:131,_ZNSaINSt7__cxx1112basic_stringIcSt11char_traitsIcESaIcEEEEC2Ev
FN:131,_ZNSaISt10shared_ptrIN5Catch8TestSpec7PatternEEEC2Ev
FN:131,_ZNSaINSt8__detail9_StateSeqINSt7__cxx1112regex_traitsIcEEEEEC2Ev
FN:131,_ZNSaIN5Catch5clara6detail11BoundLambdaIZNS_21makeCommandLineParserERNS_10ConfigDataEEUlRKNSt7__cxx1112basic_stringIcSt11char_traitsIcESaIcEEEE_EEEC2Ev
FN:131,_ZNSaISt6vectorISt10shared_ptrIN5Catch22CumulativeReporterBaseINS1_13JunitReporterEE11SectionNodeEESaIS6_EEEC2Ev
FN:131,_ZNSaIN5Catch8TestCaseEEC2Ev
FN:131,_ZNSaISt13_Rb_tree_nodeIN5Catch9VerbosityEEEC2Ev
FN:131,_ZNSaIN5Catch22CumulativeReporterBaseINS_13JunitReporterEE11SectionNodeEEC2Ev
FN:131,_ZNSaIN5Catch9StringRefEEC2Ev
FN:131,_ZNSaIN5Catch5clara6detail13BoundValueRefISt6vectorINSt7__cxx1112basic_stringIcSt11char_traitsIcESaIcEEESaIS9_EEEEEC2Ev
FN:131,_ZNSaISt10unique_ptrIN5Catch6Detail8EnumInfoESt14default_deleteIS2_EEEC2Ev
FN:131,_ZNSaINSt7__cxx1112regex_traitsIcE10_RegexMaskEEC2Ev
FN:131,_ZNSaImEC2Ev
FN:131,_ZNSaIN5Catch11SectionInfoEEC2Ev
FN:131,_ZNSaIN5Catch8TestSpec11FilterMatchEEC2Ev
FN:131,_ZNSaIN5Catch5clara6detail15BoundFlagLambdaIZNS1_4HelpC4ERbEUlbE_EEEC2Ev
FN:131,_ZNSaISt10shared_ptrIN5Catch22CumulativeReporterBaseINS0_13JunitReporterEE4NodeINS0_12TestRunStatsENS4_INS0_14TestGroupStatsENS4_INS0_13TestCaseStatsENS3_11SectionNodeEEEEEEEEEC2Ev
FN:131,_ZNSaIN5Catch6ConfigEEC2Ev
FN:131,_ZNSaIN5Catch5clara6detail11BoundLambdaIZNS_21makeCommandLineParserERNS_10ConfigDataEEUlRKNSt7__cxx1112basic_stringIcSt11char_traitsIcESaIcEEEE6_EEEC2Ev
FN:131,_ZNSaIN5Catch13SummaryColumnEEC2Ev
FN:131,_ZNSaISt10unique_ptrINSt7__cxx1119basic_ostringstreamIcSt11char_traitsIcESaIcEEESt14default_deleteIS5_EEEC2Ev
FN:131,_ZNSaIN5Catch5clara8TextFlow6Column8iteratorEEC2Ev
FN:131,_ZNSaIN5Catch5clara6detail11HelpColumnsEEC2Ev
FN:131,_ZNSaINSt8__detail4_NFAINSt7__cxx1112regex_traitsIcEEEEEC2Ev
FN:131,_ZNSaIN5Catch17ReporterRegistrarINS_15ConsoleReporterEE15ReporterFactoryEEC2Ev
FN:131,_ZNSaISt10shared_ptrIN5Catch16TestCaseTracking8ITrackerEEEC2Ev
FN:131,_ZNSaIN5Catch5clara8TextFlow6ColumnEEC2Ev
FN:131,_ZNSaIN5Catch10Generators16GeneratorTrackerEEC2Ev
FN:131,_ZNSaISt13_Rb_tree_nodeISt4pairIKNSt7__cxx1112basic_stringIcSt11char_traitsIcESaIcEEESt10shared_ptrIN5Catch16IReporterFactoryEEEEEC2Ev
FN:133,_ZNSaIN5Catch5clara6detail11HelpColumnsEEC2ERKS3_
FN:133,_ZNSaIN5Catch5clara6detail3ArgEEC2ERKS3_
FN:133,_ZNSaIN5Catch5clara6detail11BoundLambdaIZNS_21makeCommandLineParserERNS_10ConfigDataEEUlRKNSt7__cxx1112basic_stringIcSt11char_traitsIcESaIcEEEE5_EEEC2ERKSF_
FN:133,_ZNSaIN5Catch5clara6detail13BoundValueRefIjEEEC2ERKS4_
FN:133,_ZNSaIPKN5Catch8TestCaseEEC2ERKS3_
FN:133,_ZNSaIN5Catch22CumulativeReporterBaseINS_13JunitReporterEE4NodeINS_13TestCaseStatsENS2_11SectionNodeEEEEC2ERKS7_
FN:133,_ZNSaISt4pairIN9__gnu_cxx17__normal_iteratorIPKcNSt7__cxx1112basic_stringIcSt11char_traitsIcESaIcEEEEEiEEC2ERKSC_
FN:133,_ZNSaISt4pairIccEEC2ERKS1_
FN:133,_ZNSaISt4pairIlSt6vectorINSt7__cxx119sub_matchIN9__gnu_cxx17__normal_iteratorIPKcNS1_12basic_stringIcSt11char_traitsIcESaIcEEEEEEESaISD_EEEEC2ERKSH_
FN:133,_ZNSaIN5Catch5clara6detail11BoundLambdaIZNS_21makeCommandLineParserERNS_10ConfigDataEEUlbE9_EEEC2ERKS7_
FN:133,_ZNSaIN5Catch5clara6detail13BoundValueRefISt6vectorINSt7__cxx1112basic_stringIcSt11char_traitsIcESaIcEEESaIS9_EEEEEC2ERKSD_
FN:133,_ZNSaISt10shared_ptrIN5Catch8TestSpec7PatternEEEC2ERKS4_
FN:133,_ZNSaIN5Catch5clara6detail11BoundLambdaIZNS_21makeCommandLineParserERNS_10ConfigDataEEUliE8_EEEC2ERKS7_
FN:133,_ZNSaIN5Catch5clara6detail11BoundLambdaIZNS_21makeCommandLineParserERNS_10ConfigDataEEUlRKNSt7__cxx1112basic_stringIcSt11char_traitsIcESaIcEEEE2_EEEC2ERKSF_
FN:133,_ZNSaIN5Catch5clara6detail15BoundFlagLambdaIZNS1_4HelpC4ERbEUlbE_EEEC2ERKS7_
FN:133,_ZNSaIN5Catch17ReporterRegistrarINS_13JunitReporterEE15ReporterFactoryEEC2ERKS4_
FN:133,_ZNSaIN5Catch9VerbosityEEC2ERKS1_
FN:133,_ZNSaIN5Catch8TestSpec15ExcludedPatternEEC2ERKS2_
FN:133,_ZNSaIN5Catch17ReporterRegistrarINS_15ConsoleReporterEE15ReporterFactoryEEC2ERKS4_
FN:133,_ZNSaIN5Catch22CumulativeReporterBaseINS_13JunitReporterEE11SectionNodeEEC2ERKS4_
FN:133,_ZNSaINSt8__detail4_NFAINSt7__cxx1112regex_traitsIcEEEEEC2ERKS5_
FN:133,_ZNSaIN5Catch22CumulativeReporterBaseINS_13JunitReporterEE4NodeINS_14TestGroupStatsENS3_INS_13TestCaseStatsENS2_11SectionNodeEEEEEEC2ERKS9_
FN:133,_ZNSaIN5Catch5clara6detail12BoundFlagRefEEC2ERKS3_
FN:133,_ZNSaIN5Catch5clara6detail13BoundValueRefIdEEEC2ERKS4_
FN:133,_ZNSaIN5Catch8TestSpec10TagPatternEEC2ERKS2_
FN:133,_ZNSaIN5Catch6ConfigEEC2ERKS1_
FN:133,_ZNSaIN5Catch8TestSpec6FilterEEC2ERKS2_
FN:133,_ZNSaIN5Catch16TestCaseTracking14SectionTrackerEEC2ERKS2_
FN:133,_ZNSaIN5Catch5clara6detail11BoundLambdaIZNS_21makeCommandLineParserERNS_10ConfigDataEEUlRKNSt7__cxx1112basic_stringIcSt11char_traitsIcESaIcEEEE3_EEEC2ERKSF_
FN:133,_ZNSaIN5Catch8TestCaseEEC2ERKS1_
FN:133,_ZNSaIN5Catch5clara6detail11BoundLambdaIZNS_21makeCommandLineParserERNS_10ConfigDataEEUlRKNSt7__cxx1112basic_stringIcSt11char_traitsIcESaIcEEEE1_EEEC2ERKSF_
FN:133,_ZNSaISt4pairINSt7__cxx1112basic_stringIcSt11char_traitsIcESaIcEEES5_EEC2ERKS7_
FN:133,_ZNSaIN5Catch8TestSpec11FilterMatchEEC2ERKS2_
FN:133,_ZNSaIN5Catch10Generators16GeneratorTrackerEEC2ERKS2_
FN:133,_ZNSaIN5Catch5clara6detail5TokenEEC2ERKS3_
FN:133,_ZNSaIN5Catch5clara6detail15BoundFlagLambdaIZNS_21makeCommandLineParserERNS_10ConfigDataEEUlbE7_EEEC2ERKS7_
FN:133,_ZNSaISt13_Rb_tree_nodeIN5Catch9VerbosityEEEC2ERKS3_
FN:133,_ZNSaIN5Catch17ReporterRegistrarINS_15CompactReporterEE15ReporterFactoryEEC2ERKS4_
FN:133,_ZNSaIN5Catch5clara6detail11BoundLambdaIZNS_21makeCommandLineParserERNS_10ConfigDataEEUlRKNSt7__cxx1112basic_stringIcSt11char_traitsIcESaIcEEEE_EEEC2ERKSF_
FN:133,_ZNSaISt13_Rb_tree_nodeINSt7__cxx1112basic_stringIcSt11char_traitsIcESaIcEEEEEC2ERKS7_
FN:133,_ZNSaINSt7__cxx1112basic_stringIcSt11char_traitsIcESaIcEEEEC2ERKS5_
FN:133,_ZNSaIN5Catch5clara6detail11BoundLambdaIZNS_21makeCommandLineParserERNS_10ConfigDataEEUlRKNSt7__cxx1112basic_stringIcSt11char_traitsIcESaIcEEEE6_EEEC2ERKSF_
FN:133,_ZNSaIN5Catch5clara6detail13BoundValueRefINSt7__cxx1112basic_stringIcSt11char_traitsIcESaIcEEEEEEC2ERKSA_
FN:133,_ZNSaIN5Catch5clara8TextFlow6ColumnEEC2ERKS3_
FN:133,_ZNSaIN5Catch5clara6detail11BoundLambdaIZNS_21makeCommandLineParserERNS_10ConfigDataEEUlRKNSt7__cxx1112basic_stringIcSt11char_traitsIcESaIcEEEE0_EEEC2ERKSF_
FN:133,_ZNSaIN5Catch17ReporterRegistrarINS_11XmlReporterEE15ReporterFactoryEEC2ERKS4_
FN:133,_ZNSaINSt7__cxx1112regex_traitsIcE10_RegexMaskEEC2ERKS3_
FN:133,_ZNSaIN5Catch8TestSpec11NamePatternEEC2ERKS2_
FN:133,_ZNSaIN5Catch11MessageInfoEEC2ERKS1_
FN:133,_ZNSaIN5Catch5clara6detail3OptEEC2ERKS3_
FN:133,_ZNSaIN5Catch22CumulativeReporterBaseINS_13JunitReporterEE4NodeINS_12TestRunStatsENS3_INS_14TestGroupStatsENS3_INS_13TestCaseStatsENS2_11SectionNodeEEEEEEEEC2ERKSB_
FN:133,_ZNSaIN5Catch12_GLOBAL__N_110ColumnInfoEEC2ERKS2_
FN:133,_ZNSaIN5Catch5clara6detail11BoundLambdaIZNS_21makeCommandLineParserERNS_10ConfigDataEEUlRKNSt7__cxx1112basic_stringIcSt11char_traitsIcESaIcEEEE4_EEEC2ERKSF_
FN:133,_ZNSaINSt7__cxx119sub_matchIN9__gnu_cxx17__normal_iteratorIPKcNS_12basic_stringIcSt11char_traitsIcESaIcEEEEEEEEC2ERKSC_
FN:137,_ZNSaISt23_Sp_counted_ptr_inplaceIN5Catch22CumulativeReporterBaseINS0_13JunitReporterEE4NodeINS0_14TestGroupStatsENS4_INS0_13TestCaseStatsENS3_11SectionNodeEEEEESaIS9_ELN9__gnu_cxx12_Lock_policyE2EEEC2IS9_EERKSaIT_E
FN:137,_ZNSaISt23_Sp_counted_ptr_inplaceIN5Catch17ReporterRegistrarINS0_13JunitReporterEE15ReporterFactoryESaIS4_ELN9__gnu_cxx12_Lock_policyE2EEEC2IS4_EERKSaIT_E
FN:137,_ZNSaISt23_Sp_counted_ptr_inplaceIN5Catch22CumulativeReporterBaseINS0_13JunitReporterEE4NodeINS0_12TestRunStatsENS4_INS0_14TestGroupStatsENS4_INS0_13TestCaseStatsENS3_11SectionNodeEEEEEEESaISB_ELN9__gnu_cxx12_Lock_policyE2EEEC2ISB_EERKSaIT_E
FN:137,_ZNSaISt23_Sp_counted_ptr_inplaceIN5Catch5clara6detail11BoundLambdaIZNS0_21makeCommandLineParserERNS0_10ConfigDataEEUlRKNSt7__cxx1112basic_stringIcSt11char_traitsIcESaIcEEEE2_EESaISF_ELN9__gnu_cxx12_Lock_policyE2EEEC2ISF_EERKSaIT_E
FN:137,_ZNSaISt23_Sp_counted_ptr_inplaceIN5Catch5clara6detail11BoundLambdaIZNS0_21makeCommandLineParserERNS0_10ConfigDataEEUlRKNSt7__cxx1112basic_stringIcSt11char_traitsIcESaIcEEEE6_EESaISF_ELN9__gnu_cxx12_Lock_policyE2EEEC2ISF_EERKSaIT_E
FN:137,_ZNSaISt23_Sp_counted_ptr_inplaceIN5Catch5clara6detail11BoundLambdaIZNS0_21makeCommandLineParserERNS0_10ConfigDataEEUlRKNSt7__cxx1112basic_stringIcSt11char_traitsIcESaIcEEEE_EESaISF_ELN9__gnu_cxx12_Lock_policyE2EEEC2ISF_EERKSaIT_E
FN:137,_ZNSaISt23_Sp_counted_ptr_inplaceIN5Catch17ReporterRegistrarINS0_15CompactReporterEE15ReporterFactoryESaIS4_ELN9__gnu_cxx12_Lock_policyE2EEEC2IS4_EERKSaIT_E
FN:137,_ZNSaISt23_Sp_counted_ptr_inplaceIN5Catch5clara6detail11BoundLambdaIZNS0_21makeCommandLineParserERNS0_10ConfigDataEEUlbE9_EESaIS7_ELN9__gnu_cxx12_Lock_policyE2EEEC2IS7_EERKSaIT_E
FN:137,_ZNSaISt23_Sp_counted_ptr_inplaceIN5Catch5clara6detail11BoundLambdaIZNS0_21makeCommandLineParserERNS0_10ConfigDataEEUlRKNSt7__cxx1112basic_stringIcSt11char_traitsIcESaIcEEEE1_EESaISF_ELN9__gnu_cxx12_Lock_policyE2EEEC2ISF_EERKSaIT_E
FN:137,_ZNSaIPcEC2IcEERKSaIT_E
FN:137,_ZNSaISt23_Sp_counted_ptr_inplaceIN5Catch17ReporterRegistrarINS0_11XmlReporterEE15ReporterFactoryESaIS4_ELN9__gnu_cxx12_Lock_policyE2EEEC2IS4_EERKSaIT_E
FN:137,_ZNSaIPNSt8__detail9_StateSeqINSt7__cxx1112regex_traitsIcEEEEEC2IS4_EERKSaIT_E
FN:137,_ZNSaISt23_Sp_counted_ptr_inplaceIN5Catch5clara6detail15BoundFlagLambdaIZNS2_4HelpC4ERbEUlbE_EESaIS7_ELN9__gnu_cxx12_Lock_policyE2EEEC2IS7_EERKSaIT_E
FN:137,_ZNSaISt13_Rb_tree_nodeIN5Catch9VerbosityEEEC2IS1_EERKSaIT_E
FN:137,_ZNSaISt23_Sp_counted_ptr_inplaceIN5Catch5clara6detail13BoundValueRefIjEESaIS4_ELN9__gnu_cxx12_Lock_policyE2EEEC2IS4_EERKSaIT_E
FN:137,_ZNSaISt23_Sp_counted_ptr_inplaceIN5Catch8TestSpec15ExcludedPatternESaIS2_ELN9__gnu_cxx12_Lock_policyE2EEEC2IS2_EERKSaIT_E
FN:137,_ZNSaISt23_Sp_counted_ptr_inplaceIN5Catch17ReporterRegistrarINS0_15ConsoleReporterEE15ReporterFactoryESaIS4_ELN9__gnu_cxx12_Lock_policyE2EEEC2IS4_EERKSaIT_E
FN:137,_ZNSaISt23_Sp_counted_ptr_inplaceINSt7__cxx1112basic_stringIcSt11char_traitsIcESaIcEEESaIS5_ELN9__gnu_cxx12_Lock_policyE2EEEC2IS5_EERKSaIT_E
FN:137,_ZNSaISt23_Sp_counted_ptr_inplaceIN5Catch5clara6detail13BoundValueRefIdEESaIS4_ELN9__gnu_cxx12_Lock_policyE2EEEC2IS4_EERKSaIT_E
FN:137,_ZNSaISt23_Sp_counted_ptr_inplaceIN5Catch5clara6detail15BoundFlagLambdaIZNS0_21makeCommandLineParserERNS0_10ConfigDataEEUlbE7_EESaIS7_ELN9__gnu_cxx12_Lock_policyE2EEEC2IS7_EERKSaIT_E
FN:137,_ZNSaISt23_Sp_counted_ptr_inplaceIN5Catch5clara6detail11BoundLambdaIZNS0_21makeCommandLineParserERNS0_10ConfigDataEEUliE8_EESaIS7_ELN9__gnu_cxx12_Lock_policyE2EEEC2IS7_EERKSaIT_E
FN:137,_ZNSaISt23_Sp_counted_ptr_inplaceIN5Catch6ConfigESaIS1_ELN9__gnu_cxx12_Lock_policyE2EEEC2IS1_EERKSaIT_E
FN:137,_ZNSaISt23_Sp_counted_ptr_inplaceIN5Catch5clara6detail11BoundLambdaIZNS0_21makeCommandLineParserERNS0_10ConfigDataEEUlRKNSt7__cxx1112basic_stringIcSt11char_traitsIcESaIcEEEE5_EESaISF_ELN9__gnu_cxx12_Lock_policyE2EEEC2ISF_EERKSaIT_E
FN:137,_ZNSaISt23_Sp_counted_ptr_inplaceIN5Catch5clara6detail13BoundValueRefINSt7__cxx1112basic_stringIcSt11char_traitsIcESaIcEEEEESaISA_ELN9__gnu_cxx12_Lock_policyE2EEEC2ISA_EERKSaIT_E
FN:137,_ZNSaISt23_Sp_counted_ptr_inplaceIN5Catch5clara6detail11BoundLambdaIZNS0_21makeCommandLineParserERNS0_10ConfigDataEEUlRKNSt7__cxx1112basic_stringIcSt11char_traitsIcESaIcEEEE0_EESaISF_ELN9__gnu_cxx12_Lock_policyE2EEEC2ISF_EERKSaIT_E
FN:137,_ZNSaISt23_Sp_counted_ptr_inplaceINSt8__detail4_NFAINSt7__cxx1112regex_traitsIcEEEESaIS5_ELN9__gnu_cxx12_Lock_policyE2EEEC2IS5_EERKSaIT_E
FN:137,_ZNSaISt23_Sp_counted_ptr_inplaceIN5Catch8TestSpec11NamePatternESaIS2_ELN9__gnu_cxx12_Lock_policyE2EEEC2IS2_EERKSaIT_E
FN:137,_ZNSaISt23_Sp_counted_ptr_inplaceIN5Catch5clara6detail11BoundLambdaIZNS0_21makeCommandLineParserERNS0_10ConfigDataEEUlRKNSt7__cxx1112basic_stringIcSt11char_traitsIcESaIcEEEE4_EESaISF_ELN9__gnu_cxx12_Lock_policyE2EEEC2ISF_EERKSaIT_E
FN:137,_ZNSaISt23_Sp_counted_ptr_inplaceIN5Catch5clara6detail11BoundLambdaIZNS0_21makeCommandLineParserERNS0_10ConfigDataEEUlRKNSt7__cxx1112basic_stringIcSt11char_traitsIcESaIcEEEE3_EESaISF_ELN9__gnu_cxx12_Lock_policyE2EEEC2ISF_EERKSaIT_E
FN:137,_ZNSaISt23_Sp_counted_ptr_inplaceIN5Catch22CumulativeReporterBaseINS0_13JunitReporterEE4NodeINS0_13TestCaseStatsENS3_11SectionNodeEEESaIS7_ELN9__gnu_cxx12_Lock_policyE2EEEC2IS7_EERKSaIT_E
FN:137,_ZNSaISt23_Sp_counted_ptr_inplaceIN5Catch5clara6detail13BoundValueRefISt6vectorINSt7__cxx1112basic_stringIcSt11char_traitsIcESaIcEEESaISA_EEEESaISD_ELN9__gnu_cxx12_Lock_policyE2EEEC2ISD_EERKSaIT_E
FN:137,_ZNSaISt23_Sp_counted_ptr_inplaceIN5Catch22CumulativeReporterBaseINS0_13JunitReporterEE11SectionNodeESaIS4_ELN9__gnu_cxx12_Lock_policyE2EEEC2IS4_EERKSaIT_E
FN:137,_ZNSaISt23_Sp_counted_ptr_inplaceIN5Catch5clara6detail12BoundFlagRefESaIS3_ELN9__gnu_cxx12_Lock_policyE2EEEC2IS3_EERKSaIT_E
FN:137,_ZNSaISt23_Sp_counted_ptr_inplaceIN5Catch8TestSpec10TagPatternESaIS2_ELN9__gnu_cxx12_Lock_policyE2EEEC2IS2_EERKSaIT_E
FN:137,_ZNSaISt23_Sp_counted_ptr_inplaceIN5Catch10Generators16GeneratorTrackerESaIS2_ELN9__gnu_cxx12_Lock_policyE2EEEC2IS2_EERKSaIT_E
FN:137,_ZNSaISt23_Sp_counted_ptr_inplaceIN5Catch16TestCaseTracking14SectionTrackerESaIS2_ELN9__gnu_cxx12_Lock_policyE2EEEC2IS2_EERKSaIT_E
FN:137,_ZNSaIPlEC2IlEERKSaIT_E
FN:139,_ZNSaISt13_Rb_tree_nodeINSt7__cxx1112basic_stringIcSt11char_traitsIcESaIcEEEEED2Ev
FN:139,_ZNSaISt10shared_ptrIN5Catch16TestCaseTracking8ITrackerEEED2Ev
FN:139,_ZNSaISt23_Sp_counted_ptr_inplaceIN5Catch5clara6detail15BoundFlagLambdaIZNS2_4HelpC4ERbEUlbE_EESaIS7_ELN9__gnu_cxx12_Lock_policyE2EEED2Ev
FN:139,_ZNSaIN5Catch13ScopedMessageEED2Ev
FN:139,_ZNSaISt13_Rb_tree_nodeIN5Catch8TestCaseEEED2Ev
FN:139,_ZNSaISt10shared_ptrIN5Catch22CumulativeReporterBaseINS0_13JunitReporterEE4NodeINS0_12TestRunStatsENS4_INS0_14TestGroupStatsENS4_INS0_13TestCaseStatsENS3_11SectionNodeEEEEEEEEED2Ev
FN:139,_ZNSaISt23_Sp_counted_ptr_inplaceIN5Catch5clara6detail11BoundLambdaIZNS0_21makeCommandLineParserERNS0_10ConfigDataEEUlbE9_EESaIS7_ELN9__gnu_cxx12_Lock_policyE2EEED2Ev
FN:139,_ZNSaISt10shared_ptrIN5Catch16IReporterFactoryEEED2Ev
FN:139,_ZNSaIN5Catch5clara6detail13BoundValueRefINSt7__cxx1112basic_stringIcSt11char_traitsIcESaIcEEEEEED2Ev
FN:139,_ZNSaISt10shared_ptrIN5Catch22CumulativeReporterBaseINS0_13JunitReporterEE11SectionNodeEEED2Ev
FN:139,_ZNSaIN5Catch17ReporterRegistrarINS_11XmlReporterEE15ReporterFactoryEED2Ev
FN:139,_ZNSaIN5Catch16TestCaseTracking14SectionTrackerEED2Ev
FN:139,_ZNSaISt13_Rb_tree_nodeISt4pairIKllEEED2Ev
FN:139,_ZNSaIlED2Ev
FN:139,_ZNSaISt13_Rb_tree_nodeIPKN5Catch8TestCaseEEED2Ev
FN:139,_ZNSaISt23_Sp_counted_ptr_inplaceIN5Catch8TestSpec15ExcludedPatternESaIS2_ELN9__gnu_cxx12_Lock_policyE2EEED2Ev
FN:139,_ZNSaIN5Catch22CumulativeReporterBaseINS_13JunitReporterEE11SectionNodeEED2Ev
FN:139,_ZNSaISt23_Sp_counted_ptr_inplaceIN5Catch17ReporterRegistrarINS0_11XmlReporterEE15ReporterFactoryESaIS4_ELN9__gnu_cxx12_Lock_policyE2EEED2Ev
FN:139,_ZNSaISt23_Sp_counted_ptr_inplaceIN5Catch5clara6detail13BoundValueRefINSt7__cxx1112basic_stringIcSt11char_traitsIcESaIcEEEEESaISA_ELN9__gnu_cxx12_Lock_policyE2EEED2Ev
FN:139,_ZNSaISt23_Sp_counted_ptr_inplaceIN5Catch22CumulativeReporterBaseINS0_13JunitReporterEE4NodeINS0_12TestRunStatsENS4_INS0_14TestGroupStatsENS4_INS0_13TestCaseStatsENS3_11SectionNodeEEEEEEESaISB_ELN9__gnu_cxx12_Lock_policyE2EEED2Ev
FN:139,_ZNSaISt23_Sp_counted_ptr_inplaceIN5Catch5clara6detail12BoundFlagRefESaIS3_ELN9__gnu_cxx12_Lock_policyE2EEED2Ev
FN:139,_ZNSaIN5Catch5clara6detail11BoundLambdaIZNS_21makeCommandLineParserERNS_10ConfigDataEEUlRKNSt7__cxx1112basic_stringIcSt11char_traitsIcESaIcEEEE6_EEED2Ev
FN:139,_ZNSaIPcED2Ev
FN:139,_ZNSaISt13_Rb_tree_nodeISt4pairIKNSt7__cxx1112basic_stringIcSt11char_traitsIcESaIcEEEN5Catch8TagAliasEEEED2Ev
FN:139,_ZNSaIN5Catch12_GLOBAL__N_110ColumnInfoEED2Ev
FN:139,_ZNSaISt23_Sp_counted_ptr_inplaceIN5Catch22CumulativeReporterBaseINS0_13JunitReporterEE11SectionNodeESaIS4_ELN9__gnu_cxx12_Lock_policyE2EEED2Ev
FN:139,_ZNSaINSt7__cxx1112basic_stringIcSt11char_traitsIcESaIcEEEED2Ev
FN:139,_ZNSaISt23_Sp_counted_ptr_inplaceIN5Catch8TestSpec11NamePatternESaIS2_ELN9__gnu_cxx12_Lock_policyE2EEED2Ev
FN:139,_ZNSaINSt15__exception_ptr13exception_ptrEED2Ev
FN:139,_ZNSaIN5Catch8TestCaseEED2Ev
FN:139,_ZNSaIN5Catch9VerbosityEED2Ev
FN:139,_ZNSaIN5Catch5clara6detail13BoundValueRefISt6vectorINSt7__cxx1112basic_stringIcSt11char_traitsIcESaIcEEESaIS9_EEEEED2Ev
FN:139,_ZNSaIN5Catch5clara6detail15BoundFlagLambdaIZNS1_4HelpC4ERbEUlbE_EEED2Ev
FN:139,_ZNSaISt23_Sp_counted_ptr_inplaceIN5Catch17ReporterRegistrarINS0_15CompactReporterEE15ReporterFactoryESaIS4_ELN9__gnu_cxx12_Lock_policyE2EEED2Ev
FN:139,_ZNSaIN5Catch8TestSpec15ExcludedPatternEED2Ev
FN:139,_ZNSaISt4pairIlSt6vectorINSt7__cxx119sub_matchIN9__gnu_cxx17__normal_iteratorIPKcNS1_12basic_stringIcSt11char_traitsIcESaIcEEEEEEESaISD_EEEED2Ev
